{
   test-cwd suppression
   Memcheck:Free
   fun:free 
   fun:_ZL8test_cwdv
   fun:main 
}
{
   test-string suppression
   Memcheck:Free
   fun:free
   fun:_Z11test_strdupv
   fun:main
}
{
   test2 supp
   Memcheck:Free
   fun:free
   fun:_Z5test2v
   fun:main
}
{
   libc-fini supp
   Memcheck:Addr1
   fun:call_fini
   fun:vdl_list_iterate
   fun:vdl_fini_call
   fun:vdl_dlclose
   obj:/lib/libc-2.11.1.so
   obj:/lib/libc-2.11.1.so
   fun:libc_freeres_interceptor
   fun:_vgnU_freeres
   fun:exit
   fun:(below main)
}
{
   elf-loader malloc supp
   Memcheck:Leak
   fun:alloc_do_malloc
}
{
   dce-exit supp
   Memcheck:Leak
   fun:_Znwm
   ...
   fun:dce_exit
}
{
   runner supp
   Memcheck:Leak
   ...
   fun:_ZN3ns310TestRunner3RunEiPPc
   fun:main
}
{
   dce-app supp
   Memcheck:Leak
   ...
   fun:_ZN3ns314DceApplication16StartApplicationEv
}
{
   dcemng install supp
   Memcheck:Leak
   ...
   fun:_ZN3ns316DceManagerHelper7InstallENS_13NodeContainerE
}

{
   <insert_a_suppression_name_here>
   Memcheck:Leak
   ...
   obj:/home/tazaki/hgworks/ns-3-dce-thehajime/build/lib/libns3-dev-bridge-debug.so
   ...
}
{
   <insert_a_suppression_name_here>
   Memcheck:Leak
   ...
   obj:/home/tazaki/hgworks/ns-3-dce-thehajime/build/lib/libns3-dev-core-debug.so
   ...
}
{
   <insert_a_suppression_name_here>
   Memcheck:Leak
   ...
   obj:/home/tazaki/hgworks/ns-3-dce-thehajime/build/lib/libns3-dev-internet-debug.so
   ...
}
{
   <insert_a_suppression_name_here>
   Memcheck:Leak
   ...
   obj:/home/tazaki/hgworks/ns-3-dce-thehajime/build/lib/libns3-dev-mpi-debug.so
   ...
}
{
   <insert_a_suppression_name_here>
   Memcheck:Leak
   ...
   obj:/home/tazaki/hgworks/ns-3-dce-thehajime/build/lib/libns3-dev-network-debug.so
   ...
}
{
   <insert_a_suppression_name_here>
   Memcheck:Leak
   ...
   obj:/home/tazaki/hgworks/ns-3-dce-thehajime/build/lib/libns3-dev-point-to-point-debug.so
   ...
}
{
   <insert_a_suppression_name_here>
   Memcheck:Leak
   ...
   obj:/home/tazaki/hgworks/ns-3-dce-thehajime/build/lib/libns3-dce-quagga.so
   ...
}
{
   <insert_a_suppression_name_here>
   Memcheck:Leak
   ...
   obj:/home/tazaki/hgworks/ns-3-dce-thehajime/build/lib/libns3-dce.so
   ...
}
{
   <insert_a_suppression_name_here>
   Memcheck:Leak
   ...
   obj:/home/tazaki/hgworks/ns-3-dce-thehajime/build/lib/libns3-netlink.so
   ...
}

{
   <START:insert_a_suppression_name_here>
   Memcheck:Leak
   fun:malloc
   fun:_ZN3ns36ObjectC2Ev
   fun:_ZN3ns36UnixFdC2Ev
   fun:_ZN3ns313LocalSocketFdC2Ev
   fun:_ZN3ns319LocalStreamSocketFdC1ENS_3PtrINS_20LocalSocketFdFactoryEEE
   fun:_ZN3ns320LocalSocketFdFactory12CreateSocketEiii
   fun:dce_socket
   obj:*
   obj:*
   fun:_ZL16pthread_do_startPv
   fun:_ZN3ns311TaskManager10TrampolineEPv
   fun:_ZN3ns320UcontextFiberManager10TrampolineEiiii
}
{
   <insert_a_suppression_name_here>
   Memcheck:Leak
   fun:malloc
   fun:__nss_lookup_function
   fun:__nss_lookup
   fun:getservbyname_r@@GLIBC_2.2.5
   fun:gaih_inet_serv
   fun:gaih_inet
   fun:getaddrinfo
   fun:dce_getaddrinfo
   obj:*
   obj:*
   obj:*
   fun:_ZN3ns310DceManager14DoStartProcessEPv
}
{
   <insert_a_suppression_name_here>
   Memcheck:Leak
   fun:_Znwm
   fun:_ZNSs4_Rep9_S_createEmmRKSaIcE
   fun:_ZNSs9_M_mutateEmmm
   fun:_ZNSs15_M_replace_safeEmmPKcm
   fun:_ZN3ns314DceNodeContext5UNameEP7utsname
   fun:dce_uname
   obj:*
   obj:*
   fun:_ZN3ns310DceManager14DoStartProcessEPv
   fun:_ZN3ns311TaskManager10TrampolineEPv
   fun:_ZN3ns320UcontextFiberManager10TrampolineEiiii
   obj:/lib/libc-2.11.1.so
}
{
   <insert_a_suppression_name_here>
   Memcheck:Leak
   fun:_Znwm
   fun:_ZNSs4_Rep9_S_createEmmRKSaIcE
   obj:/usr/lib/libstdc++.so.6.0.13
   fun:_ZNSsC1IPcEET_S1_RKSaIcE
   fun:_ZNKSt19basic_ostringstreamIcSt11char_traitsIcESaIcEE3strEv
   fun:_ZN3ns314DceNodeContext5UNameEP7utsname
   fun:dce_uname
   obj:*
   obj:*
   fun:_ZN3ns310DceManager14DoStartProcessEPv
   fun:_ZN3ns311TaskManager10TrampolineEPv
   fun:_ZN3ns320UcontextFiberManager10TrampolineEiiii
}
{
   <insert_a_suppression_name_here>
   Memcheck:Leak
   fun:_Znwm
   fun:_ZN3ns36CreateINS_20LinuxSocketFdFactory13EventIdHolderEEENS_3PtrIT_EEv
   fun:_ZN3ns320LinuxSocketFdFactory15EventScheduleNsEP9SimKernelyPFvPvES3_PFvvE
   obj:*
   obj:*
   obj:*
   obj:*
   obj:*
   obj:*
   fun:_ZN3ns320LinuxSocketFdFactory15InitializeStackEv
   fun:_ZZN3ns39MakeEventIMNS_20LinuxSocketFdFactoryEFvvEPS1_EEPNS_9EventImplET_T0_EN16EventMemberImpl06NotifyEv
   fun:_ZN3ns39EventImpl6InvokeEv
}
{
   <insert_a_suppression_name_here>
   Memcheck:Leak
   fun:_Znwm
   fun:_ZN3ns36CreateINS_20LinuxSocketFdFactory13EventIdHolderEEENS_3PtrIT_EEv
   fun:_ZN3ns320LinuxSocketFdFactory15EventScheduleNsEP9SimKernelyPFvPvES3_PFvvE
   obj:*
   obj:*
   obj:*
   obj:*
   obj:*
   obj:*
   obj:*
   obj:*
   obj:*
}
{
   <insert_a_suppression_name_here>
   Memcheck:Leak
   fun:_Znwm
   fun:_ZNSs4_Rep9_S_createEmmRKSaIcE
   fun:_ZNSs4_Rep8_M_cloneERKSaIcEm
   fun:_ZNSs7reserveEm
   fun:_ZNSs6appendEPKcm
   fun:_ZStplIcSt11char_traitsIcESaIcEESbIT_T0_T1_ERKS6_PKS3_
   fun:_ZN3ns314DceNodeContext5UNameEP7utsname
   fun:dce_uname
   obj:*
   obj:*
   fun:_ZN3ns310DceManager14DoStartProcessEPv
   fun:_ZN3ns311TaskManager10TrampolineEPv
}
{
   <insert_a_suppression_name_here>
   Memcheck:Leak
   fun:_Znwm
   fun:_ZN3ns39MakeEventIMNS_11TaskManagerEFvvEPS1_EEPNS_9EventImplET_T0_
   fun:_ZN3ns39Simulator11ScheduleNowIMNS_11TaskManagerEFvvEPS2_EENS_7EventIdET_T0_
   fun:_ZN3ns311TaskManager6WakeupEPNS_4TaskE
   fun:_ZN3ns310DceManager6WakeupEPNS_6ThreadE
   fun:_ZN3ns315UtilsSendSignalEPNS_7ProcessEi
   fun:_ZL6ItimerPN3ns37ProcessE
   fun:_ZZN3ns39MakeEventIPNS_7ProcessES2_EEPNS_9EventImplEPFvT_ET0_EN18EventFunctionImpl16NotifyEv
   fun:_ZN3ns39EventImpl6InvokeEv
   fun:_ZN3ns320DefaultSimulatorImpl15ProcessOneEventEv
   fun:_ZN3ns320DefaultSimulatorImpl3RunEv
   fun:_ZN3ns39Simulator3RunEv
}
{
   <insert_a_suppression_name_here>
   Memcheck:Leak
   fun:_Znwm
   fun:_ZN3ns39MakeEventIMNS_11TaskManagerEFvvEPS1_EEPNS_9EventImplET_T0_
   fun:_ZN3ns39Simulator11ScheduleNowIMNS_11TaskManagerEFvvEPS2_EENS_7EventIdET_T0_
   fun:_ZN3ns311TaskManager6WakeupEPNS_4TaskE
   fun:_ZN3ns310DceManager6WakeupEPNS_6ThreadE
   fun:dce_pthread_exit
   obj:*
   obj:*
   fun:_ZL16pthread_do_startPv
   fun:_ZN3ns311TaskManager10TrampolineEPv
   fun:_ZN3ns320UcontextFiberManager10TrampolineEiiii
   obj:/lib/libc-2.11.1.so
}
{
   <insert_a_suppression_name_here>
   Memcheck:Leak
   fun:_Znwm
   fun:_ZN3ns39MakeEventIMNS_11TaskManagerEFvvEPS1_EEPNS_9EventImplET_T0_
   fun:_ZN3ns39Simulator11ScheduleNowIMNS_11TaskManagerEFvvEPS2_EENS_7EventIdET_T0_
   fun:_ZN3ns311TaskManager4ExitEv
   fun:dce_pthread_exit
   obj:*
   obj:*
   fun:_ZL16pthread_do_startPv
   fun:_ZN3ns311TaskManager10TrampolineEPv
   fun:_ZN3ns320UcontextFiberManager10TrampolineEiiii
   obj:/lib/libc-2.11.1.so
}
{
   <insert_a_suppression_name_here>
   Memcheck:Leak
   fun:_Znwm
   fun:_ZN3ns39MakeEventIMNS_11TaskManagerEFvvEPS1_EEPNS_9EventImplET_T0_
   fun:_ZN3ns39Simulator11ScheduleNowIMNS_11TaskManagerEFvvEPS2_EENS_7EventIdET_T0_
   fun:_ZN3ns311TaskManager6WakeupEPNS_4TaskE
   fun:_ZN3ns311TaskManager5StartEPFvPvES1_j
   fun:dce_pthread_create
   obj:*
   obj:*
   fun:_ZN3ns310DceManager14DoStartProcessEPv
   fun:_ZN3ns311TaskManager10TrampolineEPv
   fun:_ZN3ns320UcontextFiberManager10TrampolineEiiii
   obj:/lib/libc-2.11.1.so
}
{
   <insert_a_suppression_name_here>
   Memcheck:Leak
   fun:_Znwm
   fun:_ZN3ns39MakeEventIMNS_11TaskManagerEFvvEPS1_EEPNS_9EventImplET_T0_
   fun:_ZN3ns39Simulator11ScheduleNowIMNS_11TaskManagerEFvvEPS2_EENS_7EventIdET_T0_
   fun:_ZN3ns311TaskManager6WakeupEPNS_4TaskE
   fun:_ZN3ns310DceManager6WakeupEPNS_6ThreadE
   fun:dce_sem_post
   obj:*
   obj:*
   fun:_ZL16pthread_do_startPv
   fun:_ZN3ns311TaskManager10TrampolineEPv
   fun:_ZN3ns320UcontextFiberManager10TrampolineEiiii
   obj:/lib/libc-2.11.1.so
}
{
   <insert_a_suppression_name_here>
   Memcheck:Leak
   fun:_Znwm
   fun:_ZN3ns39MakeEventIMNS_11TaskManagerEFvvEPS1_EEPNS_9EventImplET_T0_
   fun:_ZN3ns39Simulator11ScheduleNowIMNS_11TaskManagerEFvvEPS2_EENS_7EventIdET_T0_
   fun:_ZN3ns311TaskManager6WakeupEPNS_4TaskE
   fun:_ZN3ns310DceManager6WakeupEPNS_6ThreadE
   fun:dce_pthread_cond_broadcast
   obj:*
   obj:*
   obj:*
   fun:_ZL16pthread_do_startPv
   fun:_ZN3ns311TaskManager10TrampolineEPv
   fun:_ZN3ns320UcontextFiberManager10TrampolineEiiii
}
{
   <insert_a_suppression_name_here>
   Memcheck:Leak
   fun:_Znwm
   fun:_ZN9__gnu_cxx13new_allocatorISt13_Rb_tree_nodeISt4pairIKiPN3ns39FileUsageEEEE8allocateEmPKv
   fun:_ZNSt8_Rb_treeIiSt4pairIKiPN3ns39FileUsageEESt10_Select1stIS5_ESt4lessIiESaIS5_EE11_M_get_nodeEv
   fun:_ZNSt8_Rb_treeIiSt4pairIKiPN3ns39FileUsageEESt10_Select1stIS5_ESt4lessIiESaIS5_EE14_M_create_nodeERKS5_
   fun:_ZNSt8_Rb_treeIiSt4pairIKiPN3ns39FileUsageEESt10_Select1stIS5_ESt4lessIiESaIS5_EE10_M_insert_EPKSt18_Rb_tree_node_baseSE_RKS5_
   fun:_ZNSt8_Rb_treeIiSt4pairIKiPN3ns39FileUsageEESt10_Select1stIS5_ESt4lessIiESaIS5_EE16_M_insert_uniqueERKS5_
   fun:_ZNSt8_Rb_treeIiSt4pairIKiPN3ns39FileUsageEESt10_Select1stIS5_ESt4lessIiESaIS5_EE17_M_insert_unique_ESt23_Rb_tree_const_iteratorIS5_ERKS5_
   fun:_ZNSt3mapIiPN3ns39FileUsageESt4lessIiESaISt4pairIKiS2_EEE6insertESt17_Rb_tree_iteratorIS7_ERKS7_
   fun:_ZNSt3mapIiPN3ns39FileUsageESt4lessIiESaISt4pairIKiS2_EEEixERS6_
   fun:dce_poll
   obj:*
   obj:*
}
{
   <insert_a_suppression_name_here>
   Memcheck:Leak
   fun:_Znwm
   fun:_ZN3ns36CreateINS_20LinuxSocketFdFactory13EventIdHolderEEENS_3PtrIT_EEv
   fun:_ZN3ns320LinuxSocketFdFactory15EventScheduleNsEP9SimKernelyPFvPvES3_PFvvE
   obj:*
   obj:*
   obj:*
   obj:*
   obj:*
   obj:*
   obj:*
   obj:*
   fun:_ZN3ns311TaskManager10TrampolineEPv
}
{
   <insert_a_suppression_name_here>
   Memcheck:Leak
   fun:_Znwm
   fun:_ZN3ns39MakeEventIMNS_20LinuxSocketFdFactoryEFvPFvPvES2_PFvvENS_3PtrINS1_13EventIdHolderEEEEPS1_S4_S2_S6_S9_EEPNS_9EventImplET_T0_T1_T2_T3_T4_
   fun:_ZN3ns39Simulator8ScheduleIMNS_20LinuxSocketFdFactoryEFvPFvPvES3_PFvvENS_3PtrINS2_13EventIdHolderEEEEPS2_S5_S3_S7_SA_EENS_7EventIdERKNS_4TimeET_T0_T1_T2_T3_T4_
   fun:_ZN3ns320LinuxSocketFdFactory15EventScheduleNsEP9SimKernelyPFvPvES3_PFvvE
   obj:*
   obj:*
   obj:*
   obj:*
   obj:*
   obj:*
   obj:*
   obj:*
}
{
   <insert_a_suppression_name_here>
   Memcheck:Leak
   fun:_Znwm
   fun:_ZN3ns39MakeEventIMNS_20LinuxSocketFdFactoryEFvPFvPvES2_PFvvENS_3PtrINS1_13EventIdHolderEEEEPS1_S4_S2_S6_S9_EEPNS_9EventImplET_T0_T1_T2_T3_T4_
   fun:_ZN3ns39Simulator8ScheduleIMNS_20LinuxSocketFdFactoryEFvPFvPvES3_PFvvENS_3PtrINS2_13EventIdHolderEEEEPS2_S5_S3_S7_SA_EENS_7EventIdERKNS_4TimeET_T0_T1_T2_T3_T4_
   fun:_ZN3ns320LinuxSocketFdFactory15EventScheduleNsEP9SimKernelyPFvPvES3_PFvvE
   obj:*
   obj:*
   obj:*
   obj:*
   obj:*
   obj:*
   obj:*
   fun:_ZN3ns320LinuxSocketFdFactory6AcceptEP9SimSocketP8sockaddrPj
}
{
   <insert_a_suppression_name_here>
   Memcheck:Leak
   fun:_Znwm
   fun:_ZN3ns311TaskManager5CloneEPNS_4TaskE
   fun:_ZN3ns310DceManager5CloneEPNS_6ThreadE
   fun:dce_fork
   obj:*
   obj:*
   obj:*
   fun:_ZN3ns310DceManager14DoStartProcessEPv
   fun:_ZN3ns311TaskManager10TrampolineEPv
   fun:_ZN3ns320UcontextFiberManager10TrampolineEiiii
   obj:/lib/libc-2.11.1.so
   fun:_ZN3ns311TaskManager5StartEPFvPvES1_j
}
{
   <insert_a_suppression_name_here>
   Memcheck:Leak
   fun:_Znwm
   fun:_ZN3ns39MakeEventIMNS_11TaskManagerEFvvEPS1_EEPNS_9EventImplET_T0_
   fun:_ZN3ns39Simulator11ScheduleNowIMNS_11TaskManagerEFvvEPS2_EENS_7EventIdET_T0_
   fun:_ZN3ns311TaskManager6WakeupEPNS_4TaskE
   fun:_ZN3ns310DceManager6WakeupEPNS_6ThreadE
   fun:dce_pthread_exit
   fun:_ZL16pthread_do_startPv
   fun:_ZN3ns311TaskManager10TrampolineEPv
   fun:_ZN3ns320UcontextFiberManager10TrampolineEiiii
   obj:/lib/libc-2.11.1.so
}
{
   <insert_a_suppression_name_here>
   Memcheck:Leak
   fun:_Znwm
   fun:_ZN3ns39MakeEventIMNS_20LinuxSocketFdFactoryEFvPFvPvES2_PFvvENS_3PtrINS1_13EventIdHolderEEEEPS1_S4_S2_S6_S9_EEPNS_9EventImplET_T0_T1_T2_T3_T4_
   fun:_ZN3ns39Simulator8ScheduleIMNS_20LinuxSocketFdFactoryEFvPFvPvES3_PFvvENS_3PtrINS2_13EventIdHolderEEEEPS2_S5_S3_S7_SA_EENS_7EventIdERKNS_4TimeET_T0_T1_T2_T3_T4_
   fun:_ZN3ns320LinuxSocketFdFactory15EventScheduleNsEP9SimKernelyPFvPvES3_PFvvE
   obj:*
   obj:*
   obj:*
   obj:*
   obj:*
   obj:*
   fun:_ZN3ns320LinuxSocketFdFactory15InitializeStackEv
   fun:_ZZN3ns39MakeEventIMNS_20LinuxSocketFdFactoryEFvvEPS1_EEPNS_9EventImplET_T0_EN16EventMemberImpl06NotifyEv
}
{
   <insert_a_suppression_name_here>
   Memcheck:Leak
   fun:_Znwm
   fun:_ZN3ns36CreateINS_20LinuxSocketFdFactory13EventIdHolderEEENS_3PtrIT_EEv
   fun:_ZN3ns320LinuxSocketFdFactory15EventScheduleNsEP9SimKernelyPFvPvES3_PFvvE
   obj:*
   obj:*
   obj:*
   obj:*
   obj:*
   obj:*
   obj:*
   fun:_ZN3ns320LinuxSocketFdFactory6AcceptEP9SimSocketP8sockaddrPj
   fun:_ZN3ns313LinuxSocketFd6AcceptEP8sockaddrPj
}
{
   <insert_a_suppression_name_here>
   Memcheck:Leak
   fun:_Znwm
   fun:_ZN3ns39MakeEventIMNS_11TaskManagerEFvvEPS1_EEPNS_9EventImplET_T0_
   fun:_ZN3ns39Simulator11ScheduleNowIMNS_11TaskManagerEFvvEPS2_EENS_7EventIdET_T0_
   fun:_ZN3ns311TaskManager6WakeupEPNS_4TaskE
   fun:_ZN3ns311TaskManager7EndWaitEPNS_4TaskE
   fun:_ZZN3ns39MakeEventIMNS_11TaskManagerEFvPNS_4TaskEEPS1_S3_EEPNS_9EventImplET_T0_T1_EN16EventMemberImpl16NotifyEv
   fun:_ZN3ns39EventImpl6InvokeEv
   fun:_ZN3ns320DefaultSimulatorImpl15ProcessOneEventEv
   fun:_ZN3ns320DefaultSimulatorImpl3RunEv
   fun:_ZN3ns39Simulator3RunEv
   fun:_ZN3ns318DceManagerTestCase5DoRunEv
   fun:_ZN3ns38TestCase3RunEPNS_14TestRunnerImplE
}
{
   <insert_a_suppression_name_here>
   Memcheck:Leak
   fun:_Znwm
   fun:_ZN3ns320LocalSocketFdFactory12CreateSocketEiii
   fun:dce_socket
   obj:*
   obj:*
   fun:_ZL16pthread_do_startPv
   fun:_ZN3ns311TaskManager10TrampolineEPv
   fun:_ZN3ns320UcontextFiberManager10TrampolineEiiii
   obj:/lib/libc-2.11.1.so
}
{
   <insert_a_suppression_name_here>
   Memcheck:Leak
   fun:_Znwm
   fun:_ZN9__gnu_cxx13new_allocatorIN3ns33PtrINS1_11ApplicationEEEE8allocateEmPKv
   fun:_ZNSt12_Vector_baseIN3ns33PtrINS0_11ApplicationEEESaIS3_EE11_M_allocateEm
   fun:_ZNSt6vectorIN3ns33PtrINS0_11ApplicationEEESaIS3_EE13_M_insert_auxEN9__gnu_cxx17__normal_iteratorIPS3_S5_EERKS3_
   fun:_ZNSt6vectorIN3ns33PtrINS0_11ApplicationEEESaIS3_EE9push_backERKS3_
   fun:_ZN3ns34Node14AddApplicationENS_3PtrINS_11ApplicationEEE
   fun:_ZN3ns320DceApplicationHelper7InstallENS_13NodeContainerE
   fun:_ZN3ns318DceManagerTestCase5DoRunEv
   fun:_ZN3ns38TestCase3RunEPNS_14TestRunnerImplE
   fun:_ZN3ns38TestCase3RunEPNS_14TestRunnerImplE
   fun:_ZN3ns314TestRunnerImpl3RunEiPPc
   fun:_ZN3ns310TestRunner3RunEiPPc
}
{
   <insert_a_suppression_name_here>
   Memcheck:Leak
   fun:_Znwm
   fun:_ZN3ns36CreateINS_20LinuxSocketFdFactory13EventIdHolderEEENS_3PtrIT_EEv
   fun:_ZN3ns320LinuxSocketFdFactory15EventScheduleNsEP9SimKernelyPFvPvES3_PFvvE
   obj:*
   obj:*
   obj:*
   obj:*
   obj:*
   obj:*
   obj:*
   obj:*
   fun:_ZN3ns320LinuxSocketFdFactory7RecvmsgEP9SimSocketP6msghdri
}
{
   <insert_a_suppression_name_here>
   Memcheck:Leak
   fun:_Znwm
   fun:_ZN3ns39MakeEventIMNS_11TaskManagerEFvvEPS1_EEPNS_9EventImplET_T0_
   fun:_ZN3ns39Simulator11ScheduleNowIMNS_11TaskManagerEFvvEPS2_EENS_7EventIdET_T0_
   fun:_ZN3ns311TaskManager4ExitEv
   fun:dce_pthread_exit
   fun:_ZL16pthread_do_startPv
   fun:_ZN3ns311TaskManager10TrampolineEPv
   fun:_ZN3ns320UcontextFiberManager10TrampolineEiiii
   obj:/lib/libc-2.11.1.so
}
{
   <insert_a_suppression_name_here>
   Memcheck:Leak
   fun:_Znwm
   fun:_ZN3ns39MakeEventIMNS_20LinuxSocketFdFactoryEFvPFvPvES2_PFvvENS_3PtrINS1_13EventIdHolderEEEEPS1_S4_S2_S6_S9_EEPNS_9EventImplET_T0_T1_T2_T3_T4_
   fun:_ZN3ns39Simulator8ScheduleIMNS_20LinuxSocketFdFactoryEFvPFvPvES3_PFvvENS_3PtrINS2_13EventIdHolderEEEEPS2_S5_S3_S7_SA_EENS_7EventIdERKNS_4TimeET_T0_T1_T2_T3_T4_
   fun:_ZN3ns320LinuxSocketFdFactory15EventScheduleNsEP9SimKernelyPFvPvES3_PFvvE
   obj:*
   obj:*
   obj:*
   obj:*
   obj:*
   obj:*
   obj:*
   fun:_ZN3ns320LinuxSocketFdFactory15InitializeStackEv
}
{
   <insert_a_suppression_name_here>
   Memcheck:Leak
   fun:_Znwm
   fun:_ZN3ns39MakeEventIMNS_20LinuxSocketFdFactoryEFvPFvPvES2_PFvvENS_3PtrINS1_13EventIdHolderEEEEPS1_S4_S2_S6_S9_EEPNS_9EventImplET_T0_T1_T2_T3_T4_
   fun:_ZN3ns39Simulator8ScheduleIMNS_20LinuxSocketFdFactoryEFvPFvPvES3_PFvvENS_3PtrINS2_13EventIdHolderEEEEPS2_S5_S3_S7_SA_EENS_7EventIdERKNS_4TimeET_T0_T1_T2_T3_T4_
   fun:_ZN3ns320LinuxSocketFdFactory15EventScheduleNsEP9SimKernelyPFvPvES3_PFvvE
   obj:*
   obj:*
   obj:*
   obj:*
   obj:*
   fun:_ZN3ns320LinuxSocketFdFactory15InitializeStackEv
   fun:_ZZN3ns39MakeEventIMNS_20LinuxSocketFdFactoryEFvvEPS1_EEPNS_9EventImplET_T0_EN16EventMemberImpl06NotifyEv
   fun:_ZN3ns39EventImpl6InvokeEv
}
{
   <insert_a_suppression_name_here>
   Memcheck:Leak
   fun:_Znwm
   fun:_ZN3ns36CreateINS_20LinuxSocketFdFactory13EventIdHolderEEENS_3PtrIT_EEv
   fun:_ZN3ns320LinuxSocketFdFactory15EventScheduleNsEP9SimKernelyPFvPvES3_PFvvE
   obj:*
   obj:*
   obj:*
   obj:*
   obj:*
   obj:*
   obj:*
   obj:*
   fun:_ZN3ns320LinuxSocketFdFactory15InitializeStackEv
}
{
   <insert_a_suppression_name_here>
   Memcheck:Leak
   fun:_Znwm
   fun:_ZN3ns36CreateINS_20LinuxSocketFdFactory13EventIdHolderEEENS_3PtrIT_EEv
   fun:_ZN3ns320LinuxSocketFdFactory15EventScheduleNsEP9SimKernelyPFvPvES3_PFvvE
   obj:*
   obj:*
   obj:*
   obj:*
   obj:*
   obj:*
   obj:*
   fun:_ZN3ns320LinuxSocketFdFactory15InitializeStackEv
   fun:_ZZN3ns39MakeEventIMNS_20LinuxSocketFdFactoryEFvvEPS1_EEPNS_9EventImplET_T0_EN16EventMemberImpl06NotifyEv
}
{
   <insert_a_suppression_name_here>
   Memcheck:Leak
   fun:_Znwm
   fun:_ZN3ns36CreateINS_20LinuxSocketFdFactory13EventIdHolderEEENS_3PtrIT_EEv
   fun:_ZN3ns320LinuxSocketFdFactory15EventScheduleNsEP9SimKernelyPFvPvES3_PFvvE
   obj:*
   obj:*
   obj:*
   obj:*
   obj:*
   fun:_ZN3ns320LinuxSocketFdFactory15InitializeStackEv
   fun:_ZZN3ns39MakeEventIMNS_20LinuxSocketFdFactoryEFvvEPS1_EEPNS_9EventImplET_T0_EN16EventMemberImpl06NotifyEv
   fun:_ZN3ns39EventImpl6InvokeEv
   fun:_ZN3ns320LinuxSocketFdFactory22ScheduleTaskTrampolineEPv
}
{
   <insert_a_suppression_name_here>
   Memcheck:Leak
   fun:_Znwm
   fun:_ZN3ns36CreateINS_20LinuxSocketFdFactory13EventIdHolderEEENS_3PtrIT_EEv
   fun:_ZN3ns320LinuxSocketFdFactory15EventScheduleNsEP9SimKernelyPFvPvES3_PFvvE
   obj:*
   obj:*
   obj:*
   obj:*
   obj:*
   obj:*
   obj:*
   obj:*
   fun:_ZN3ns320LinuxSocketFdFactory7SendmsgEP9SimSocketPK6msghdri
}
{
   <insert_a_suppression_name_here>
   Memcheck:Free
   fun:free
   fun:zfree
   fun:thread_call
   fun:main
}
{
   <insert_a_suppression_name_here>
   Memcheck:Free
   fun:free
   fun:yyparse
   fun:conf_file
   fun:conf_parse
   fun:main
}
{
   <insert_a_suppression_name_here>
   Memcheck:Leak
   fun:_Znwm
   fun:_ZN3ns36CreateINS_20LinuxSocketFdFactory13EventIdHolderEEENS_3PtrIT_EEv
   fun:_ZN3ns320LinuxSocketFdFactory15EventScheduleNsEP9SimKernelyPFvPvES3_PFvvE
   fun:sim_event_schedule_ns
   fun:add_timer
   fun:mod_timer
   fun:sk_reset_timer
   fun:tcp_event_new_data_sent
   fun:tcp_write_xmit
   fun:__tcp_push_pending_frames
   fun:tcp_sendmsg
   fun:inet_sendmsg
}
{
   <insert_a_suppression_name_here>
   Memcheck:Leak
   fun:_Znwm
   fun:_ZN3ns36CreateINS_20LinuxSocketFdFactory13EventIdHolderEEENS_3PtrIT_EEv
   fun:_ZN3ns320LinuxSocketFdFactory15EventScheduleNsEP9SimKernelyPFvPvES3_PFvvE
   fun:sim_event_schedule_ns
   fun:add_timer
   fun:mod_timer
   fun:sk_reset_timer
   fun:tcp_rearm_rto
   fun:tcp_clean_rtx_queue
   fun:tcp_ack
   fun:tcp_rcv_established
   fun:tcp_v4_do_rcv
}
{
   <insert_a_suppression_name_here>
   Memcheck:Leak
   fun:_Znwm
   fun:_ZN3ns39MakeEventIMNS_20LinuxSocketFdFactoryEFvPFvPvES2_PFvvENS_3PtrINS1_13EventIdHolderEEEEPS1_S4_S2_S6_S9_EEPNS_9EventImplET_T0_T1_T2_T3_T4_
   fun:_ZN3ns39Simulator8ScheduleIMNS_20LinuxSocketFdFactoryEFvPFvPvES3_PFvvENS_3PtrINS2_13EventIdHolderEEEEPS2_S5_S3_S7_SA_EENS_7EventIdERKNS_4TimeET_T0_T1_T2_T3_T4_
   fun:_ZN3ns320LinuxSocketFdFactory15EventScheduleNsEP9SimKernelyPFvPvES3_PFvvE
   fun:sim_event_schedule_ns
   fun:add_timer
   fun:mod_timer
   fun:sk_reset_timer
   fun:tcp_rearm_rto
   fun:tcp_clean_rtx_queue
   fun:tcp_ack
   fun:tcp_rcv_established
}
{
   <insert_a_suppression_name_here>
   Memcheck:Leak
   fun:_Znwm
   fun:_ZN3ns36CreateINS_20LinuxSocketFdFactory13EventIdHolderEEENS_3PtrIT_EEv
   fun:_ZN3ns320LinuxSocketFdFactory15EventScheduleNsEP9SimKernelyPFvPvES3_PFvvE
   fun:sim_event_schedule_ns
   fun:add_timer
   fun:mod_timer
   fun:sk_reset_timer
   fun:tcp_v4_rcv
   fun:ip_local_deliver_finish
   fun:ip_local_deliver
   fun:ip_rcv_finish
   fun:ip_rcv
}
{
   <insert_a_suppression_name_here>
   Memcheck:Leak
   fun:_Znwm
   fun:_ZN3ns39MakeEventIMNS_20LinuxSocketFdFactoryEFvPFvPvES2_PFvvENS_3PtrINS1_13EventIdHolderEEEEPS1_S4_S2_S6_S9_EEPNS_9EventImplET_T0_T1_T2_T3_T4_
   fun:_ZN3ns39Simulator8ScheduleIMNS_20LinuxSocketFdFactoryEFvPFvPvES3_PFvvENS_3PtrINS2_13EventIdHolderEEEEPS2_S5_S3_S7_SA_EENS_7EventIdERKNS_4TimeET_T0_T1_T2_T3_T4_
   fun:_ZN3ns320LinuxSocketFdFactory15EventScheduleNsEP9SimKernelyPFvPvES3_PFvvE
   fun:sim_event_schedule_ns
   fun:add_timer
   fun:mod_timer
   fun:sk_reset_timer
   fun:tcp_v4_rcv
   fun:ip_local_deliver_finish
   fun:ip_local_deliver
   fun:ip_rcv_finish
}
{
   <insert_a_suppression_name_here>
   Memcheck:Leak
   fun:_Znam
   obj:*
   obj:*
   fun:_ZN3ns310DceManager14DoStartProcessEPv
   fun:_ZN3ns311TaskManager10TrampolineEPv
   fun:_ZN3ns320UcontextFiberManager10TrampolineEiiii
   obj:/lib/libc-2.11.1.so
   fun:_ZN3ns311TaskManager5StartEPFvPvES1_j
   fun:_ZN3ns310DceManager5StartESsSsjSt6vectorISsSaISsEES1_ISt4pairISsSsESaIS5_EEjjjj
}
{
   <insert_a_suppression_name_here>
   Memcheck:Leak
   fun:_Znwm
   fun:_ZL21PthreadCondInitStaticP14pthread_cond_t
   fun:dce_pthread_cond_init
   obj:*
   obj:*
   fun:_ZN3ns310DceManager14DoStartProcessEPv
   fun:_ZN3ns311TaskManager10TrampolineEPv
   fun:_ZN3ns320UcontextFiberManager10TrampolineEiiii
   obj:/lib/libc-2.11.1.so
   fun:_ZN3ns311TaskManager5StartEPFvPvES1_j
   fun:_ZN3ns310DceManager5StartESsSsjSt6vectorISsSaISsEES1_ISt4pairISsSsESaIS5_EEjjjj
}
{
   <insert_a_suppression_name_here>
   Memcheck:Leak
   fun:_Znwm
   fun:_ZN9__gnu_cxx13new_allocatorISt10_List_nodeIPN3ns36ThreadEEE8allocateEmPKv
   fun:_ZNSt10_List_baseIPN3ns36ThreadESaIS2_EE11_M_get_nodeEv
   fun:_ZNSt4listIPN3ns36ThreadESaIS2_EE14_M_create_nodeERKS2_
   fun:_ZNSt4listIPN3ns36ThreadESaIS2_EE9_M_insertESt14_List_iteratorIS2_ERKS2_
   fun:_ZNSt4listIPN3ns36ThreadESaIS2_EE9push_backERKS2_
   fun:dce_pthread_cond_wait
   obj:*
   obj:*
   obj:*
   fun:_ZL16pthread_do_startPv
   fun:_ZN3ns311TaskManager10TrampolineEPv
}
{
   <insert_a_suppression_name_here>
   Memcheck:Leak
   fun:_Znwm
   fun:_ZN9__gnu_cxx13new_allocatorISt10_List_nodeIPN3ns36ThreadEEE8allocateEmPKv
   fun:_ZNSt10_List_baseIPN3ns36ThreadESaIS2_EE11_M_get_nodeEv
   fun:_ZNSt4listIPN3ns36ThreadESaIS2_EE14_M_create_nodeERKS2_
   fun:_ZNSt4listIPN3ns36ThreadESaIS2_EE9_M_insertESt14_List_iteratorIS2_ERKS2_
   fun:_ZNSt4listIPN3ns36ThreadESaIS2_EE9push_backERKS2_
   fun:dce_pthread_cond_timedwait
   obj:*
   obj:*
   obj:*
   fun:_ZL16pthread_do_startPv
   fun:_ZN3ns311TaskManager10TrampolineEPv
}
{
   <insert_a_suppression_name_here>
   Memcheck:Leak
   fun:_Znwm
   fun:_ZL21PthreadCondInitStaticP14pthread_cond_t
   fun:dce_pthread_cond_init
   obj:*
   obj:*
   obj:*
   obj:*
   obj:*
   fun:_ZL16pthread_do_startPv
   fun:_ZN3ns311TaskManager10TrampolineEPv
   fun:_ZN3ns320UcontextFiberManager10TrampolineEiiii
   obj:/lib/libc-2.11.1.so
}
{
   <insert_a_suppression_name_here>
   Memcheck:Leak
   fun:_Znwm
   fun:_ZN3ns312GlobalRouter23ProcessPointToPointLinkENS_3PtrINS_9NetDeviceEEEPNS_16GlobalRoutingLSAE
   fun:_ZN3ns312GlobalRouter12DiscoverLSAsEv
   fun:_ZN3ns322GlobalRouteManagerImpl26BuildGlobalRoutingDatabaseEv
   fun:_ZN3ns318GlobalRouteManager26BuildGlobalRoutingDatabaseEv
   fun:_ZN3ns323Ipv4GlobalRoutingHelper21PopulateRoutingTablesEv
   fun:main
}
{
   <insert_a_suppression_name_here>
   Memcheck:Leak
   fun:_Znwm
   fun:_ZN3ns317Ipv4GlobalRouting17AddNetworkRouteToENS_11Ipv4AddressENS_8Ipv4MaskES1_j
   fun:_ZN3ns322GlobalRouteManagerImpl16CheckForStubNodeENS_11Ipv4AddressE
   fun:_ZN3ns322GlobalRouteManagerImpl12SPFCalculateENS_11Ipv4AddressE
   fun:_ZN3ns322GlobalRouteManagerImpl16InitializeRoutesEv
   fun:_ZN3ns318GlobalRouteManager16InitializeRoutesEv
   fun:_ZN3ns323Ipv4GlobalRoutingHelper21PopulateRoutingTablesEv
   fun:main
}
{
   <insert_a_suppression_name_here>
   Memcheck:Leak
   fun:_Znwm
   fun:_ZN3ns36CreateINS_20LinuxSocketFdFactory13EventIdHolderEEENS_3PtrIT_EEv
   fun:_ZN3ns320LinuxSocketFdFactory15EventScheduleNsEP9SimKernelyPFvPvES3_PFvvE
   fun:sim_event_schedule_ns
   fun:add_timer
   fun:mod_timer
   fun:sk_reset_timer
   fun:tcp_event_new_data_sent
   fun:tcp_write_xmit
   fun:__tcp_push_pending_frames
   fun:tcp_send_fin
   fun:tcp_close
}
{
   <insert_a_suppression_name_here>
   Memcheck:Leak
   fun:_Znwm
   fun:_ZN3ns36CreateINS_20LinuxSocketFdFactory13EventIdHolderEEENS_3PtrIT_EEv
   fun:_ZN3ns320LinuxSocketFdFactory15EventScheduleNsEP9SimKernelyPFvPvES3_PFvvE
   fun:sim_event_schedule_ns
   fun:add_timer
   fun:mod_timer
   fun:sk_reset_timer
   fun:inet_csk_reset_keepalive_timer
   fun:tcp_rcv_state_process
   fun:tcp_v4_do_rcv
   fun:tcp_v4_rcv
   fun:ip_local_deliver_finish
}
{
   <insert_a_suppression_name_here>
   Memcheck:Leak
   fun:_Znwm
   fun:_ZN3ns36CreateINS_20LinuxSocketFdFactory13EventIdHolderEEENS_3PtrIT_EEv
   fun:_ZN3ns320LinuxSocketFdFactory15EventScheduleNsEP9SimKernelyPFvPvES3_PFvvE
   fun:sim_event_schedule_ns
   fun:add_timer
   fun:mod_timer
   fun:inet_twdr_hangman
   fun:run_timer_softirq
   fun:do_softirq
   fun:softirq_task_function
   fun:sim_task_start_trampoline
   fun:_ZN3ns311TaskManager10TrampolineEPv
}
{
   <insert_a_suppression_name_here>
   Memcheck:Leak
   fun:_Znwm
   fun:_ZN9__gnu_cxx13new_allocatorISt10_List_nodeIPN3ns323GlobalRoutingLinkRecordEEE8allocateEmPKv
   fun:_ZNSt10_List_baseIPN3ns323GlobalRoutingLinkRecordESaIS2_EE11_M_get_nodeEv
   fun:_ZNSt4listIPN3ns323GlobalRoutingLinkRecordESaIS2_EE14_M_create_nodeERKS2_
   fun:_ZNSt4listIPN3ns323GlobalRoutingLinkRecordESaIS2_EE9_M_insertESt14_List_iteratorIS2_ERKS2_
   fun:_ZNSt4listIPN3ns323GlobalRoutingLinkRecordESaIS2_EE9push_backERKS2_
   fun:_ZN3ns316GlobalRoutingLSA13AddLinkRecordEPNS_23GlobalRoutingLinkRecordE
   fun:_ZN3ns312GlobalRouter23ProcessPointToPointLinkENS_3PtrINS_9NetDeviceEEEPNS_16GlobalRoutingLSAE
   fun:_ZN3ns312GlobalRouter12DiscoverLSAsEv
   fun:_ZN3ns322GlobalRouteManagerImpl26BuildGlobalRoutingDatabaseEv
   fun:_ZN3ns318GlobalRouteManager26BuildGlobalRoutingDatabaseEv
   fun:_ZN3ns323Ipv4GlobalRoutingHelper21PopulateRoutingTablesEv
}
{
   <insert_a_suppression_name_here>
   Memcheck:Leak
   fun:_Znwm
   fun:_ZN9__gnu_cxx13new_allocatorISt10_List_nodeIPN3ns316GlobalRoutingLSAEEE8allocateEmPKv
   fun:_ZNSt10_List_baseIPN3ns316GlobalRoutingLSAESaIS2_EE11_M_get_nodeEv
   fun:_ZNSt4listIPN3ns316GlobalRoutingLSAESaIS2_EE14_M_create_nodeERKS2_
   fun:_ZNSt4listIPN3ns316GlobalRoutingLSAESaIS2_EE9_M_insertESt14_List_iteratorIS2_ERKS2_
   fun:_ZNSt4listIPN3ns316GlobalRoutingLSAESaIS2_EE9push_backERKS2_
   fun:_ZN3ns312GlobalRouter12DiscoverLSAsEv
   fun:_ZN3ns322GlobalRouteManagerImpl26BuildGlobalRoutingDatabaseEv
   fun:_ZN3ns318GlobalRouteManager26BuildGlobalRoutingDatabaseEv
   fun:_ZN3ns323Ipv4GlobalRoutingHelper21PopulateRoutingTablesEv
   fun:main
}
{
   <insert_a_suppression_name_here>
   Memcheck:Leak
   fun:_Znwm
   fun:_ZN9__gnu_cxx13new_allocatorISt10_List_nodeIPN3ns321Ipv4RoutingTableEntryEEE8allocateEmPKv
   fun:_ZNSt10_List_baseIPN3ns321Ipv4RoutingTableEntryESaIS2_EE11_M_get_nodeEv
   fun:_ZNSt4listIPN3ns321Ipv4RoutingTableEntryESaIS2_EE14_M_create_nodeERKS2_
   fun:_ZNSt4listIPN3ns321Ipv4RoutingTableEntryESaIS2_EE9_M_insertESt14_List_iteratorIS2_ERKS2_
   fun:_ZNSt4listIPN3ns321Ipv4RoutingTableEntryESaIS2_EE9push_backERKS2_
   fun:_ZN3ns317Ipv4GlobalRouting17AddNetworkRouteToENS_11Ipv4AddressENS_8Ipv4MaskES1_j
   fun:_ZN3ns322GlobalRouteManagerImpl16CheckForStubNodeENS_11Ipv4AddressE
   fun:_ZN3ns322GlobalRouteManagerImpl12SPFCalculateENS_11Ipv4AddressE
   fun:_ZN3ns322GlobalRouteManagerImpl16InitializeRoutesEv
   fun:_ZN3ns318GlobalRouteManager16InitializeRoutesEv
   fun:_ZN3ns323Ipv4GlobalRoutingHelper21PopulateRoutingTablesEv
}
{
   <insert_a_suppression_name_here>
   Memcheck:Leak
   fun:_Znwm
   fun:_ZN3ns312CreateObjectINS_29ConstantPositionMobilityModelEEENS_3PtrIT_EEv
   fun:_ZN3ns36setPosENS_3PtrINS_4NodeEEEiii
   fun:main
}
{
   <insert_a_suppression_name_here>
   Memcheck:Leak
   fun:_Znwm
   fun:_ZN3ns39MakeEventIMNS_20LinuxSocketFdFactoryEFvPFvPvES2_PFvvENS_3PtrINS1_13EventIdHolderEEEEPS1_S4_S2_S6_S9_EEPNS_9EventImplET_T0_T1_T2_T3_T4_
   fun:_ZN3ns39Simulator8ScheduleIMNS_20LinuxSocketFdFactoryEFvPFvPvES3_PFvvENS_3PtrINS2_13EventIdHolderEEEEPS2_S5_S3_S7_SA_EENS_7EventIdERKNS_4TimeET_T0_T1_T2_T3_T4_
   fun:_ZN3ns320LinuxSocketFdFactory15EventScheduleNsEP9SimKernelyPFvPvES3_PFvvE
   fun:sim_event_schedule_ns
   fun:add_timer
   fun:mod_timer
   fun:sk_reset_timer
   fun:tcp_event_new_data_sent
   fun:tcp_write_xmit
   fun:__tcp_push_pending_frames
   fun:tcp_send_fin
}
{
   <insert_a_suppression_name_here>
   Memcheck:Leak
   fun:_Znwm
   fun:_ZN3ns39MakeEventIMNS_20LinuxSocketFdFactoryEFvPFvPvES2_PFvvENS_3PtrINS1_13EventIdHolderEEEEPS1_S4_S2_S6_S9_EEPNS_9EventImplET_T0_T1_T2_T3_T4_
   fun:_ZN3ns39Simulator8ScheduleIMNS_20LinuxSocketFdFactoryEFvPFvPvES3_PFvvENS_3PtrINS2_13EventIdHolderEEEEPS2_S5_S3_S7_SA_EENS_7EventIdERKNS_4TimeET_T0_T1_T2_T3_T4_
   fun:_ZN3ns320LinuxSocketFdFactory15EventScheduleNsEP9SimKernelyPFvPvES3_PFvvE
   fun:sim_event_schedule_ns
   fun:add_timer
   fun:mod_timer
   fun:sk_reset_timer
   fun:inet_csk_reset_keepalive_timer
   fun:tcp_rcv_state_process
   fun:tcp_v4_do_rcv
   fun:tcp_v4_rcv
}
{
   <insert_a_suppression_name_here>
   Memcheck:Leak
   fun:_Znwm
   fun:_ZN3ns39MakeEventIMNS_20LinuxSocketFdFactoryEFvPFvPvES2_PFvvENS_3PtrINS1_13EventIdHolderEEEEPS1_S4_S2_S6_S9_EEPNS_9EventImplET_T0_T1_T2_T3_T4_
   fun:_ZN3ns39Simulator8ScheduleIMNS_20LinuxSocketFdFactoryEFvPFvPvES3_PFvvENS_3PtrINS2_13EventIdHolderEEEEPS2_S5_S3_S7_SA_EENS_7EventIdERKNS_4TimeET_T0_T1_T2_T3_T4_
   fun:_ZN3ns320LinuxSocketFdFactory15EventScheduleNsEP9SimKernelyPFvPvES3_PFvvE
   fun:sim_event_schedule_ns
   fun:add_timer
   fun:mod_timer
   fun:inet_twdr_hangman
   fun:run_timer_softirq
   fun:do_softirq
   fun:softirq_task_function
   fun:sim_task_start_trampoline
}
{
   <insert_a_suppression_name_here>
   Memcheck:Leak
   fun:_Znwm
   fun:_ZN3ns39MakeEventIMNS_20LinuxSocketFdFactoryEFvPFvPvES2_PFvvENS_3PtrINS1_13EventIdHolderEEEEPS1_S4_S2_S6_S9_EEPNS_9EventImplET_T0_T1_T2_T3_T4_
   fun:_ZN3ns39Simulator8ScheduleIMNS_20LinuxSocketFdFactoryEFvPFvPvES3_PFvvENS_3PtrINS2_13EventIdHolderEEEEPS2_S5_S3_S7_SA_EENS_7EventIdERKNS_4TimeET_T0_T1_T2_T3_T4_
   fun:_ZN3ns320LinuxSocketFdFactory15EventScheduleNsEP9SimKernelyPFvPvES3_PFvvE
   fun:sim_event_schedule_ns
   fun:add_timer
   fun:mod_timer
   fun:inet_twsk_schedule
   fun:tcp_time_wait
   fun:tcp_fin
   fun:tcp_data_queue
   fun:tcp_rcv_state_process
}
{
   <insert_a_suppression_name_here>
   Memcheck:Leak
   fun:_Znwm
   fun:_ZN3ns36CreateINS_20LinuxSocketFdFactory13EventIdHolderEEENS_3PtrIT_EEv
   fun:_ZN3ns320LinuxSocketFdFactory15EventScheduleNsEP9SimKernelyPFvPvES3_PFvvE
   fun:sim_event_schedule_ns
   fun:add_timer
   fun:mod_timer
   fun:inet_twsk_schedule
   fun:tcp_time_wait
   fun:tcp_fin
   fun:tcp_data_queue
   fun:tcp_rcv_state_process
   fun:tcp_v4_do_rcv
}
{
   <insert_a_suppression_name_here>
   Memcheck:Leak
   fun:malloc
   fun:_ZN3ns36Object15AggregateObjectENS_3PtrIS0_EE
   fun:_ZN3ns36setPosENS_3PtrINS_4NodeEEEiii
   fun:main
}
{
   <insert_a_suppression_name_here>
   Memcheck:Leak
   fun:_Znwm
   fun:_ZN3ns312GlobalRouter12DiscoverLSAsEv
   fun:_ZN3ns322GlobalRouteManagerImpl26BuildGlobalRoutingDatabaseEv
   fun:_ZN3ns318GlobalRouteManager26BuildGlobalRoutingDatabaseEv
   fun:_ZN3ns323Ipv4GlobalRoutingHelper21PopulateRoutingTablesEv
   fun:main
}
{
   <insert_a_suppression_name_here>
   Memcheck:Leak
   fun:_Znwm
   obj:*
   obj:*
   fun:_ZN3ns310DceManager14DoStartProcessEPv
   fun:_ZN3ns311TaskManager10TrampolineEPv
   fun:_ZN3ns320UcontextFiberManager10TrampolineEiiii
   obj:/lib/libc-2.11.1.so
   fun:_ZN3ns311TaskManager5StartEPFvPvES1_j
   fun:_ZN3ns310DceManager5StartESsSsjSt6vectorISsSaISsEES1_ISt4pairISsSsESaIS5_EEjjjj
}
{
   <insert_a_suppression_name_here>
   Memcheck:Leak
   fun:malloc
   obj:*
   obj:*
   obj:*
   obj:*
   fun:_ZL16pthread_do_startPv
   fun:_ZN3ns311TaskManager10TrampolineEPv
   fun:_ZN3ns320UcontextFiberManager10TrampolineEiiii
   obj:/lib/libc-2.11.1.so
}
{
   <insert_a_suppression_name_here>
   Memcheck:Leak
   fun:malloc
   obj:*
   obj:*
   obj:*
   obj:*
   fun:_ZN3ns310DceManager14DoStartProcessEPv
   fun:_ZN3ns311TaskManager10TrampolineEPv
   fun:_ZN3ns320UcontextFiberManager10TrampolineEiiii
   obj:/lib/libc-2.11.1.so
   fun:_ZN3ns311TaskManager5StartEPFvPvES1_j
   fun:_ZN3ns310DceManager5StartESsSsjSt6vectorISsSaISsEES1_ISt4pairISsSsESaIS5_EEjjjj
}
{
   <insert_a_suppression_name_here>
   Memcheck:Leak
   fun:malloc
   obj:*
   obj:*
   obj:*
   obj:*
   fun:_ZN3ns310DceManager14DoStartProcessEPv
   fun:_ZN3ns311TaskManager10TrampolineEPv
   fun:_ZN3ns320UcontextFiberManager10TrampolineEiiii
   obj:/lib/libc-2.11.1.so
   fun:_ZSt29_Rb_tree_insert_and_rebalancebPSt18_Rb_tree_node_baseS0_RS_
   fun:_ZNSt8_Rb_treeIN3ns39Scheduler8EventKeyESt4pairIKS2_PNS0_9EventImplEESt10_Select1stIS7_ESt4lessIS2_ESaIS7_EE10_M_insert_EPKSt18_Rb_tree_node_baseSG_RKS7_
   obj:*
}
{
   <insert_a_suppression_name_here>
   Memcheck:Leak
   fun:malloc
   obj:*
   obj:*
   obj:*
   obj:*
   obj:*
   fun:_ZN3ns310DceManager14DoStartProcessEPv
   fun:_ZN3ns311TaskManager10TrampolineEPv
   fun:_ZN3ns320UcontextFiberManager10TrampolineEiiii
   obj:/lib/libc-2.11.1.so
   fun:_ZSt29_Rb_tree_insert_and_rebalancebPSt18_Rb_tree_node_baseS0_RS_
   fun:_ZNSt8_Rb_treeIN3ns39Scheduler8EventKeyESt4pairIKS2_PNS0_9EventImplEESt10_Select1stIS7_ESt4lessIS2_ESaIS7_EE10_M_insert_EPKSt18_Rb_tree_node_baseSG_RKS7_
}
{
   <insert_a_suppression_name_here>
   Memcheck:Leak
   fun:malloc
   obj:*
   obj:*
   obj:*
   obj:*
   obj:*
   obj:*
   fun:_ZN3ns310DceManager14DoStartProcessEPv
   fun:_ZN3ns311TaskManager10TrampolineEPv
   fun:_ZN3ns320UcontextFiberManager10TrampolineEiiii
   obj:/lib/libc-2.11.1.so
   fun:_ZN3ns311TaskManager5StartEPFvPvES1_j
}
{
   <insert_a_suppression_name_here>
   Memcheck:Leak
   fun:malloc
   obj:*
   obj:*
   obj:*
   obj:*
   obj:*
   fun:_ZN3ns310DceManager14DoStartProcessEPv
   fun:_ZN3ns311TaskManager10TrampolineEPv
   fun:_ZN3ns320UcontextFiberManager10TrampolineEiiii
   obj:/lib/libc-2.11.1.so
   fun:_ZN3ns311TaskManager5StartEPFvPvES1_j
   fun:_ZN3ns310DceManager5StartESsSsjSt6vectorISsSaISsEES1_ISt4pairISsSsESaIS5_EEjjjj
}
{
   <insert_a_suppression_name_here>
   Memcheck:Leak
   fun:malloc
   obj:*
   obj:*
   obj:*
   obj:*
   obj:*
   obj:*
   fun:_ZN3ns310DceManager14DoStartProcessEPv
   fun:_ZN3ns311TaskManager10TrampolineEPv
   fun:_ZN3ns320UcontextFiberManager10TrampolineEiiii
   obj:/lib/libc-2.11.1.so
   fun:_ZSt29_Rb_tree_insert_and_rebalancebPSt18_Rb_tree_node_baseS0_RS_
}
{
   <insert_a_suppression_name_here>
   Memcheck:Leak
   fun:calloc
   obj:*
   obj:*
   obj:*
   obj:*
   obj:*
   fun:_ZN3ns310DceManager14DoStartProcessEPv
   fun:_ZN3ns311TaskManager10TrampolineEPv
   fun:_ZN3ns320UcontextFiberManager10TrampolineEiiii
   obj:/lib/libc-2.11.1.so
   fun:_ZN3ns311TaskManager5StartEPFvPvES1_j
   fun:_ZN3ns310DceManager5StartESsSsjSt6vectorISsSaISsEES1_ISt4pairISsSsESaIS5_EEjjjj
}
{
   <insert_a_suppression_name_here>
   Memcheck:Leak
   fun:calloc
   obj:*
   obj:*
   obj:*
   obj:*
   obj:*
   obj:*
   obj:*
   obj:*
   fun:_ZN3ns310DceManager14DoStartProcessEPv
   fun:_ZN3ns311TaskManager10TrampolineEPv
   fun:_ZN3ns320UcontextFiberManager10TrampolineEiiii
}
{
   <insert_a_suppression_name_here>
   Memcheck:Leak
   fun:calloc
   obj:*
   obj:*
   obj:*
   obj:*
   obj:*
   obj:*
   fun:_ZN3ns310DceManager14DoStartProcessEPv
   fun:_ZN3ns311TaskManager10TrampolineEPv
   fun:_ZN3ns320UcontextFiberManager10TrampolineEiiii
   obj:/lib/libc-2.11.1.so
   fun:_ZN3ns311TaskManager5StartEPFvPvES1_j
}
{
   <insert_a_suppression_name_here>
   Memcheck:Leak
   fun:calloc
   obj:*
   obj:*
   obj:*
   obj:*
   obj:*
   fun:_ZN3ns310DceManager14DoStartProcessEPv
   fun:_ZN3ns311TaskManager10TrampolineEPv
   fun:_ZN3ns320UcontextFiberManager10TrampolineEiiii
   obj:/lib/libc-2.11.1.so
   fun:_ZSt29_Rb_tree_insert_and_rebalancebPSt18_Rb_tree_node_baseS0_RS_
   fun:_ZNSt8_Rb_treeIN3ns39Scheduler8EventKeyESt4pairIKS2_PNS0_9EventImplEESt10_Select1stIS7_ESt4lessIS2_ESaIS7_EE10_M_insert_EPKSt18_Rb_tree_node_baseSG_RKS7_
}
{
   <insert_a_suppression_name_here>
   Memcheck:Leak
   fun:calloc
   obj:*
   obj:*
   obj:*
   obj:*
   obj:*
   obj:*
   fun:_ZN3ns310DceManager14DoStartProcessEPv
   fun:_ZN3ns311TaskManager10TrampolineEPv
   fun:_ZN3ns320UcontextFiberManager10TrampolineEiiii
   obj:/lib/libc-2.11.1.so
   fun:_ZSt29_Rb_tree_insert_and_rebalancebPSt18_Rb_tree_node_baseS0_RS_
}
{
   <insert_a_suppression_name_here>
   Memcheck:Leak
   fun:calloc
   obj:*
   obj:*
   obj:*
   obj:*
   obj:*
   obj:*
   obj:*
   fun:_ZN3ns310DceManager14DoStartProcessEPv
   fun:_ZN3ns311TaskManager10TrampolineEPv
   fun:_ZN3ns320UcontextFiberManager10TrampolineEiiii
   obj:/lib/libc-2.11.1.so
}
{
   <insert_a_suppression_name_here>
   Memcheck:Leak
   fun:calloc
   obj:*
   obj:*
   obj:*
   obj:*
   fun:_ZN3ns310DceManager14DoStartProcessEPv
   fun:_ZN3ns311TaskManager10TrampolineEPv
   fun:_ZN3ns320UcontextFiberManager10TrampolineEiiii
   obj:/lib/libc-2.11.1.so
   fun:_ZSt29_Rb_tree_insert_and_rebalancebPSt18_Rb_tree_node_baseS0_RS_
   fun:_ZNSt8_Rb_treeIN3ns39Scheduler8EventKeyESt4pairIKS2_PNS0_9EventImplEESt10_Select1stIS7_ESt4lessIS2_ESaIS7_EE10_M_insert_EPKSt18_Rb_tree_node_baseSG_RKS7_
   obj:*
}
{
   <insert_a_suppression_name_here>
   Memcheck:Leak
   fun:calloc
   obj:*
   obj:*
   obj:*
   obj:*
   fun:_ZN3ns310DceManager14DoStartProcessEPv
   fun:_ZN3ns311TaskManager10TrampolineEPv
   fun:_ZN3ns320UcontextFiberManager10TrampolineEiiii
   obj:/lib/libc-2.11.1.so
   fun:_ZN3ns311TaskManager5StartEPFvPvES1_j
   fun:_ZN3ns310DceManager5StartESsSsjSt6vectorISsSaISsEES1_ISt4pairISsSsESaIS5_EEjjjj
}
{
   <insert_a_suppression_name_here>
   Memcheck:Leak
   fun:malloc
   fun:strdup
   fun:tzset_internal
   fun:__tz_convert
   fun:dce_gmtime
   obj:*
   obj:*
   obj:*
   obj:*
   obj:*
   obj:*
   obj:*
}
{
   <insert_a_suppression_name_here>
   Memcheck:Leak
   fun:realloc
   obj:*
   obj:*
   obj:*
   obj:*
   obj:*
   obj:*
   obj:*
   fun:_ZN3ns310DceManager14DoStartProcessEPv
   fun:_ZN3ns311TaskManager10TrampolineEPv
   fun:_ZN3ns320UcontextFiberManager10TrampolineEiiii
   obj:/lib/libc-2.11.1.so
}
{
   <insert_a_suppression_name_here>
   Memcheck:Leak
   fun:realloc
   obj:*
   obj:*
   obj:*
   obj:*
   obj:*
   obj:*
   obj:*
   obj:*
   obj:*
   fun:_ZN3ns310DceManager14DoStartProcessEPv
   fun:_ZN3ns311TaskManager10TrampolineEPv
}
{
   <insert_a_suppression_name_here>
   Memcheck:Leak
   fun:realloc
   obj:*
   obj:*
   obj:*
   obj:*
   obj:*
   obj:*
   obj:*
   obj:*
   fun:_ZN3ns310DceManager14DoStartProcessEPv
   fun:_ZN3ns311TaskManager10TrampolineEPv
   fun:_ZN3ns320UcontextFiberManager10TrampolineEiiii
}
{
   <insert_a_suppression_name_here>
   Memcheck:Leak
   fun:_Znwm
   fun:_ZN3ns312QuaggaConfigC1Ev
   fun:_ZN3ns312QuaggaHelper11EnableRadvdENS_3PtrINS_4NodeEEEPKcS5_
   fun:main
}
{
   <insert_a_suppression_name_here>
   Memcheck:Leak
   fun:_Znwm
   fun:_ZN3ns312QuaggaConfigC1Ev
   fun:_ZN3ns312QuaggaHelper16EnableZebraDebugENS_13NodeContainerE
   fun:main
}
{
   <insert_a_suppression_name_here>
   Memcheck:Leak
   fun:_Znwm
   fun:_ZN13KingsleyAlloc9MmapAllocEj
   fun:_ZN13KingsleyAlloc3BrkEj
   fun:_ZN13KingsleyAlloc6MallocEj
   fun:_ZN3ns320LinuxSocketFdFactory6MallocEP9SimKernelm
   fun:sim_malloc
   fun:__kmalloc
   fun:kmalloc
   fun:kmem_cache_alloc
   fun:sk_prot_alloc
   fun:sk_alloc
   fun:inet6_create
}
{
   <insert_a_suppression_name_here>
   Memcheck:Leak
   fun:calloc
   obj:*
   obj:*
   obj:*
   obj:*
   obj:*
   obj:*
   obj:*
   obj:*
   obj:*
   fun:_ZN3ns310DceManager14DoStartProcessEPv
   fun:_ZN3ns311TaskManager10TrampolineEPv
}
{
   <insert_a_suppression_name_here>
   Memcheck:Leak
   fun:calloc
   obj:*
   obj:*
   obj:*
   obj:*
   obj:*
   obj:*
   obj:*
   obj:*
   obj:*
   obj:*
   fun:_ZN3ns310DceManager14DoStartProcessEPv
}
{
   <insert_a_suppression_name_here>
   Memcheck:Leak
   fun:calloc
   obj:*
   obj:*
   obj:*
   obj:*
   obj:*
   obj:*
   obj:*
   obj:*
   obj:*
   obj:*
   obj:*
}
{
   <insert_a_suppression_name_here>
   Memcheck:Leak
   fun:malloc
   obj:*
   obj:*
   obj:*
   obj:*
   fun:_ZN3ns310DceManager14DoStartProcessEPv
   fun:_ZN3ns311TaskManager10TrampolineEPv
   fun:_ZN3ns320UcontextFiberManager10TrampolineEiiii
   obj:/lib/libc-2.11.1.so
   obj:*
}
{
   <insert_a_suppression_name_here>
   Memcheck:Leak
   fun:malloc
   obj:*
   obj:*
   obj:*
   obj:*
   fun:_ZN3ns310DceManager14DoStartProcessEPv
   fun:_ZN3ns311TaskManager10TrampolineEPv
   fun:_ZN3ns320UcontextFiberManager10TrampolineEiiii
   obj:/lib/libc-2.11.1.so
   obj:*
   obj:*
   obj:/home/tazaki/hgworks/ns-3-dce-thehajime/build/lib/libns3-dev-point-to-point-debug.so
}
{
   <insert_a_suppression_name_here>
   Memcheck:Leak
   fun:malloc
   obj:*
   obj:*
   obj:*
   obj:*
   fun:_ZN3ns310DceManager14DoStartProcessEPv
   fun:_ZN3ns311TaskManager10TrampolineEPv
   fun:_ZN3ns320UcontextFiberManager10TrampolineEiiii
   obj:/lib/libc-2.11.1.so
   obj:*
   obj:*
   obj:*
}
{
   <insert_a_suppression_name_here>
   Memcheck:Leak
   fun:_Znwm
   fun:_ZNSs4_Rep9_S_createEmmRKSaIcE
   obj:/usr/lib/libstdc++.so.6.0.13
   fun:_ZNSsC1EPKcRKSaIcE
   fun:_ZN3ns312QuaggaHelper11EnableRadvdENS_3PtrINS_4NodeEEEPKcS5_
   fun:main
}
{
   <insert_a_suppression_name_here>
   Memcheck:Leak
   fun:_Znwm
   fun:_ZN3ns36CreateINS_20LinuxSocketFdFactory13EventIdHolderEEENS_3PtrIT_EEv
   fun:_ZN3ns320LinuxSocketFdFactory15EventScheduleNsEP9SimKernelyPFvPvES3_PFvvE
   fun:sim_event_schedule_ns
   fun:add_timer
   fun:addrconf_verify
   fun:addrconf_prefix_rcv
   fun:ndisc_router_discovery
   fun:ndisc_rcv
   fun:icmpv6_rcv
   fun:ip6_input_finish
   fun:ip6_input
}
{
   <insert_a_suppression_name_here>
   Memcheck:Leak
   fun:_Znwm
   fun:_ZN3ns36CreateINS_20LinuxSocketFdFactory13EventIdHolderEEENS_3PtrIT_EEv
   fun:_ZN3ns320LinuxSocketFdFactory15EventScheduleNsEP9SimKernelyPFvPvES3_PFvvE
   fun:sim_event_schedule_ns
   fun:add_timer
   fun:addrconf_verify
   fun:run_timer_softirq
   fun:do_softirq
   fun:softirq_task_function
   fun:sim_task_start_trampoline
   fun:_ZN3ns311TaskManager10TrampolineEPv
   fun:_ZN3ns320UcontextFiberManager10TrampolineEiiii
}
{
   <insert_a_suppression_name_here>
   Memcheck:Leak
   fun:_Znwm
   fun:_ZN3ns39MakeEventIMNS_11TaskManagerEFvvEPS1_EEPNS_9EventImplET_T0_
   fun:_ZN3ns39Simulator11ScheduleNowIMNS_11TaskManagerEFvvEPS2_EENS_7EventIdET_T0_
   fun:_ZN3ns311TaskManager6WakeupEPNS_4TaskE
   fun:_ZN3ns320LinuxSocketFdFactory10TaskWakeupEP9SimKernelP7SimTask
   fun:sim_task_wakeup
   fun:sim_softirq_wakeup
   fun:sim_sock_poll_forwarder
   fun:_ZN3ns320LinuxSocketFdFactory4PollEP9SimSocketPNS_9PollTableE
   fun:_ZN3ns313LinuxSocketFd4PollEPNS_9PollTableE
   fun:dce_poll
   fun:dce_select
}
{
   <insert_a_suppression_name_here>
   Memcheck:Leak
   fun:_Znwm
   fun:_ZN9__gnu_cxx13new_allocatorISt13_Rb_tree_nodeISt4pairIKSsSsEEE8allocateEmPKv
   fun:_ZNSt8_Rb_treeISsSt4pairIKSsSsESt10_Select1stIS2_ESt4lessISsESaIS2_EE11_M_get_nodeEv
   fun:_ZNSt8_Rb_treeISsSt4pairIKSsSsESt10_Select1stIS2_ESt4lessISsESaIS2_EE14_M_create_nodeERKS2_
   fun:_ZNSt8_Rb_treeISsSt4pairIKSsSsESt10_Select1stIS2_ESt4lessISsESaIS2_EE10_M_insert_EPKSt18_Rb_tree_node_baseSB_RKS2_
   fun:_ZNSt8_Rb_treeISsSt4pairIKSsSsESt10_Select1stIS2_ESt4lessISsESaIS2_EE16_M_insert_uniqueERKS2_
   fun:_ZNSt3mapISsSsSt4lessISsESaISt4pairIKSsSsEEE6insertERKS4_
   fun:_ZN3ns312QuaggaHelper11EnableRadvdENS_3PtrINS_4NodeEEEPKcS5_
   fun:main
}
{
   <insert_a_suppression_name_here>
   Memcheck:Leak
   fun:_Znwm
   fun:_ZN9__gnu_cxx13new_allocatorIN3ns33PtrINS1_11ApplicationEEEE8allocateEmPKv
   fun:_ZNSt12_Vector_baseIN3ns33PtrINS0_11ApplicationEEESaIS3_EE11_M_allocateEm
   fun:_ZNSt6vectorIN3ns33PtrINS0_11ApplicationEEESaIS3_EE13_M_insert_auxEN9__gnu_cxx17__normal_iteratorIPS3_S5_EERKS3_
   fun:_ZNSt6vectorIN3ns33PtrINS0_11ApplicationEEESaIS3_EE9push_backERKS3_
   fun:_ZN3ns34Node14AddApplicationENS_3PtrINS_11ApplicationEEE
   fun:_ZN3ns312QuaggaHelper11InstallPrivENS_3PtrINS_4NodeEEE
   fun:_ZN3ns312QuaggaHelper7InstallENS_13NodeContainerE
   fun:main
}
{
   <insert_a_suppression_name_here>
   Memcheck:Leak
   fun:calloc
   obj:*
   obj:*
   obj:*
   obj:*
   obj:*
   fun:_ZN3ns310DceManager14DoStartProcessEPv
   fun:_ZN3ns311TaskManager10TrampolineEPv
   fun:_ZN3ns320UcontextFiberManager10TrampolineEiiii
   obj:/lib/libc-2.11.1.so
   obj:*
}
{
   <insert_a_suppression_name_here>
   Memcheck:Leak
   fun:calloc
   obj:*
   obj:*
   obj:*
   obj:*
   obj:*
   fun:_ZN3ns310DceManager14DoStartProcessEPv
   fun:_ZN3ns311TaskManager10TrampolineEPv
   fun:_ZN3ns320UcontextFiberManager10TrampolineEiiii
   obj:/lib/libc-2.11.1.so
   obj:*
   obj:*
}
{
   <insert_a_suppression_name_here>
   Memcheck:Leak
   fun:calloc
   obj:*
   obj:*
   obj:*
   fun:_ZN3ns310DceManager14DoStartProcessEPv
   fun:_ZN3ns311TaskManager10TrampolineEPv
   fun:_ZN3ns320UcontextFiberManager10TrampolineEiiii
   obj:/lib/libc-2.11.1.so
   fun:_ZSt29_Rb_tree_insert_and_rebalancebPSt18_Rb_tree_node_baseS0_RS_
   fun:_ZNSt8_Rb_treeIN3ns39Scheduler8EventKeyESt4pairIKS2_PNS0_9EventImplEESt10_Select1stIS7_ESt4lessIS2_ESaIS7_EE10_M_insert_EPKSt18_Rb_tree_node_baseSG_RKS7_
   obj:*
}
{
   <insert_a_suppression_name_here>
   Memcheck:Leak
   fun:calloc
   obj:*
   obj:*
   obj:*
   fun:_ZN3ns310DceManager14DoStartProcessEPv
   fun:_ZN3ns311TaskManager10TrampolineEPv
   fun:_ZN3ns320UcontextFiberManager10TrampolineEiiii
   obj:/lib/libc-2.11.1.so
   fun:_ZN3ns311TaskManager5StartEPFvPvES1_j
   fun:_ZN3ns310DceManager5StartESsSsjSt6vectorISsSaISsEES1_ISt4pairISsSsESaIS5_EEjjjj
}
{
   <insert_a_suppression_name_here>
   Memcheck:Leak
   fun:_Znwm
   fun:_ZN13KingsleyAlloc9MmapAllocEj
   fun:_ZN13KingsleyAlloc3BrkEj
   fun:_ZN13KingsleyAlloc6MallocEj
   fun:_ZN3ns320LinuxSocketFdFactory6MallocEP9SimKernelm
   fun:sim_malloc
   fun:__kmalloc
   fun:__alloc_skb
   fun:dev_alloc_skb
   fun:sim_dev_create_packet
   fun:sim_dev_create_packet_forwarder
   fun:_ZN3ns320LinuxSocketFdFactory12RxFromDeviceENS_3PtrINS_9NetDeviceEEENS1_IKNS_6PacketEEEtRKNS_7AddressES9_NS2_10PacketTypeE
}
{
   <insert_a_suppression_name_here>
   Memcheck:Leak
   fun:_Znwm
   fun:_ZN3ns39MakeEventIMNS_20LinuxSocketFdFactoryEFvPFvPvES2_PFvvENS_3PtrINS1_13EventIdHolderEEEEPS1_S4_S2_S6_S9_EEPNS_9EventImplET_T0_T1_T2_T3_T4_
   fun:_ZN3ns39Simulator8ScheduleIMNS_20LinuxSocketFdFactoryEFvPFvPvES3_PFvvENS_3PtrINS2_13EventIdHolderEEEEPS2_S5_S3_S7_SA_EENS_7EventIdERKNS_4TimeET_T0_T1_T2_T3_T4_
   fun:_ZN3ns320LinuxSocketFdFactory15EventScheduleNsEP9SimKernelyPFvPvES3_PFvvE
   fun:sim_event_schedule_ns
   fun:add_timer
   fun:addrconf_verify
   fun:addrconf_prefix_rcv
   fun:ndisc_router_discovery
   fun:ndisc_rcv
   fun:icmpv6_rcv
   fun:ip6_input_finish
}
{
   <insert_a_suppression_name_here>
   Memcheck:Leak
   fun:_Znwm
   fun:_ZN3ns39MakeEventIMNS_20LinuxSocketFdFactoryEFvPFvPvES2_PFvvENS_3PtrINS1_13EventIdHolderEEEEPS1_S4_S2_S6_S9_EEPNS_9EventImplET_T0_T1_T2_T3_T4_
   fun:_ZN3ns39Simulator8ScheduleIMNS_20LinuxSocketFdFactoryEFvPFvPvES3_PFvvENS_3PtrINS2_13EventIdHolderEEEEPS2_S5_S3_S7_SA_EENS_7EventIdERKNS_4TimeET_T0_T1_T2_T3_T4_
   fun:_ZN3ns320LinuxSocketFdFactory15EventScheduleNsEP9SimKernelyPFvPvES3_PFvvE
   fun:sim_event_schedule_ns
   fun:add_timer
   fun:addrconf_verify
   fun:run_timer_softirq
   fun:do_softirq
   fun:softirq_task_function
   fun:sim_task_start_trampoline
   fun:_ZN3ns311TaskManager10TrampolineEPv
}
{
   <insert_a_suppression_name_here>
   Memcheck:Leak
   fun:_Znwm
   fun:_ZN3ns39MakeEventIMNS_20LinuxSocketFdFactoryEFvPFvPvES2_PFvvENS_3PtrINS1_13EventIdHolderEEEEPS1_S4_S2_S6_S9_EEPNS_9EventImplET_T0_T1_T2_T3_T4_
   fun:_ZN3ns39Simulator8ScheduleIMNS_20LinuxSocketFdFactoryEFvPFvPvES3_PFvvENS_3PtrINS2_13EventIdHolderEEEEPS2_S5_S3_S7_SA_EENS_7EventIdERKNS_4TimeET_T0_T1_T2_T3_T4_
   fun:_ZN3ns320LinuxSocketFdFactory15EventScheduleNsEP9SimKernelyPFvPvES3_PFvvE
   fun:sim_event_schedule_ns
   fun:add_timer
   fun:mod_timer
   fun:mld_ifc_start_timer
   fun:mld_ifc_event
   fun:igmp6_group_added
   fun:ipv6_dev_mc_inc
   fun:ipv6_sock_mc_join
}
{
   <insert_a_suppression_name_here>
   Memcheck:Leak
   fun:_Znwm
   fun:_ZN3ns39MakeEventIMNS_20LinuxSocketFdFactoryEFvPFvPvES2_PFvvENS_3PtrINS1_13EventIdHolderEEEEPS1_S4_S2_S6_S9_EEPNS_9EventImplET_T0_T1_T2_T3_T4_
   fun:_ZN3ns39Simulator8ScheduleIMNS_20LinuxSocketFdFactoryEFvPFvPvES3_PFvvENS_3PtrINS2_13EventIdHolderEEEEPS2_S5_S3_S7_SA_EENS_7EventIdERKNS_4TimeET_T0_T1_T2_T3_T4_
   fun:_ZN3ns320LinuxSocketFdFactory15EventScheduleNsEP9SimKernelyPFvPvES3_PFvvE
   fun:sim_event_schedule_ns
   fun:add_timer
   fun:mod_timer
   fun:mld_ifc_start_timer
   fun:mld_ifc_timer_expire
   fun:run_timer_softirq
   fun:do_softirq
   fun:softirq_task_function
}
{
   <insert_a_suppression_name_here>
   Memcheck:Leak
   fun:_Znwm
   fun:_ZN3ns39MakeEventIMNS_20LinuxSocketFdFactoryEFvPFvPvES2_PFvvENS_3PtrINS1_13EventIdHolderEEEEPS1_S4_S2_S6_S9_EEPNS_9EventImplET_T0_T1_T2_T3_T4_
   fun:_ZN3ns39Simulator8ScheduleIMNS_20LinuxSocketFdFactoryEFvPFvPvES3_PFvvENS_3PtrINS2_13EventIdHolderEEEEPS2_S5_S3_S7_SA_EENS_7EventIdERKNS_4TimeET_T0_T1_T2_T3_T4_
   fun:_ZN3ns320LinuxSocketFdFactory15EventScheduleNsEP9SimKernelyPFvPvES3_PFvvE
   fun:sim_event_schedule_ns
   fun:add_timer
   fun:addrconf_verify
   fun:inet6_addr_add
   fun:inet6_rtm_newaddr
   fun:rtnetlink_rcv_msg
   fun:netlink_rcv_skb
   fun:rtnetlink_rcv
}
{
   <insert_a_suppression_name_here>
   Memcheck:Leak
   fun:malloc
   fun:__tzstring
   fun:__tzfile_read
   fun:tzset_internal
   fun:__tz_convert
   fun:dce_gmtime
   obj:*
   obj:*
   obj:*
   obj:*
   obj:*
   obj:*
}
{
   <insert_a_suppression_name_here>
   Memcheck:Leak
   fun:_Znwm
   fun:_ZN9__gnu_cxx13new_allocatorISt13_Rb_tree_nodeISt4pairIKiiEEE8allocateEmPKv
   fun:_ZNSt8_Rb_treeIiSt4pairIKiiESt10_Select1stIS2_ESt4lessIiESaIS2_EE11_M_get_nodeEv
   fun:_ZNSt8_Rb_treeIiSt4pairIKiiESt10_Select1stIS2_ESt4lessIiESaIS2_EE14_M_create_nodeERKS2_
   fun:_ZNSt8_Rb_treeIiSt4pairIKiiESt10_Select1stIS2_ESt4lessIiESaIS2_EE10_M_insert_EPKSt18_Rb_tree_node_baseSB_RKS2_
   fun:_ZNSt8_Rb_treeIiSt4pairIKiiESt10_Select1stIS2_ESt4lessIiESaIS2_EE17_M_insert_unique_ESt23_Rb_tree_const_iteratorIS2_ERKS2_
   fun:_ZNSt3mapIiiSt4lessIiESaISt4pairIKiiEEE6insertESt17_Rb_tree_iteratorIS4_ERKS4_
   fun:_ZNSt3mapIiiSt4lessIiESaISt4pairIKiiEEEixERS3_
   fun:dce_select
   obj:*
   obj:*
   obj:*
}
{
   <insert_a_suppression_name_here>
   Memcheck:Leak
   fun:_Znwm
   fun:_ZN9__gnu_cxx13new_allocatorISt13_Rb_tree_nodeISt4pairIKiPN3ns39FileUsageEEEE8allocateEmPKv
   fun:_ZNSt8_Rb_treeIiSt4pairIKiPN3ns39FileUsageEESt10_Select1stIS5_ESt4lessIiESaIS5_EE11_M_get_nodeEv
   fun:_ZNSt8_Rb_treeIiSt4pairIKiPN3ns39FileUsageEESt10_Select1stIS5_ESt4lessIiESaIS5_EE14_M_create_nodeERKS5_
   fun:_ZNSt8_Rb_treeIiSt4pairIKiPN3ns39FileUsageEESt10_Select1stIS5_ESt4lessIiESaIS5_EE10_M_insert_EPKSt18_Rb_tree_node_baseSE_RKS5_
   fun:_ZNSt8_Rb_treeIiSt4pairIKiPN3ns39FileUsageEESt10_Select1stIS5_ESt4lessIiESaIS5_EE17_M_insert_unique_ESt23_Rb_tree_const_iteratorIS5_ERKS5_
   fun:_ZNSt3mapIiPN3ns39FileUsageESt4lessIiESaISt4pairIKiS2_EEE6insertESt17_Rb_tree_iteratorIS7_ERKS7_
   fun:_ZNSt3mapIiPN3ns39FileUsageESt4lessIiESaISt4pairIKiS2_EEEixERS6_
   fun:dce_poll
   fun:dce_select
   obj:*
   obj:*
}
{
   <insert_a_suppression_name_here>
   Memcheck:Leak
   fun:_Znwm
   fun:_ZNSs4_Rep9_S_createEmmRKSaIcE
   obj:/usr/lib/libstdc++.so.6.0.13
   fun:_ZNSsC1EPKcRKSaIcE
   fun:_ZN3ns312QuaggaHelper19GenerateConfigZebraENS_3PtrINS_4NodeEEE
   fun:_ZN3ns312QuaggaHelper11InstallPrivENS_3PtrINS_4NodeEEE
   fun:_ZN3ns312QuaggaHelper7InstallENS_13NodeContainerE
   fun:main
}
{
   <insert_a_suppression_name_here>
   Memcheck:Leak
   fun:_Znwm
   fun:_ZN3ns312QuaggaHelper11EnableRadvdENS_3PtrINS_4NodeEEEPKcS5_
   fun:main
}
{
   <insert_a_suppression_name_here>
   Memcheck:Leak
   fun:_Znwm
   fun:_ZN3ns312QuaggaHelper16EnableZebraDebugENS_13NodeContainerE
   fun:main
}
{
   <insert_a_suppression_name_here>
   Memcheck:Leak
   fun:_Znwm
   fun:_ZN3ns36CreateINS_20LinuxSocketFdFactory13EventIdHolderEEENS_3PtrIT_EEv
   fun:_ZN3ns320LinuxSocketFdFactory15EventScheduleNsEP9SimKernelyPFvPvES3_PFvvE
   fun:sim_event_schedule_ns
   fun:add_timer
   fun:addrconf_verify
   fun:inet6_addr_add
   fun:inet6_rtm_newaddr
   fun:rtnetlink_rcv_msg
   fun:netlink_rcv_skb
   fun:rtnetlink_rcv
   fun:netlink_unicast
}
{
   <insert_a_suppression_name_here>
   Memcheck:Leak
   fun:_Znwm
   fun:_ZN3ns36CreateINS_20LinuxSocketFdFactory13EventIdHolderEEENS_3PtrIT_EEv
   fun:_ZN3ns320LinuxSocketFdFactory15EventScheduleNsEP9SimKernelyPFvPvES3_PFvvE
   fun:sim_event_schedule_ns
   fun:add_timer
   fun:mod_timer
   fun:mld_ifc_start_timer
   fun:mld_ifc_event
   fun:igmp6_group_added
   fun:ipv6_dev_mc_inc
   fun:ipv6_sock_mc_join
   fun:do_ipv6_setsockopt
}
{
   <insert_a_suppression_name_here>
   Memcheck:Leak
   fun:_Znwm
   fun:_ZN3ns36CreateINS_20LinuxSocketFdFactory13EventIdHolderEEENS_3PtrIT_EEv
   fun:_ZN3ns320LinuxSocketFdFactory15EventScheduleNsEP9SimKernelyPFvPvES3_PFvvE
   fun:sim_event_schedule_ns
   fun:add_timer
   fun:mod_timer
   fun:mld_ifc_start_timer
   fun:mld_ifc_timer_expire
   fun:run_timer_softirq
   fun:do_softirq
   fun:softirq_task_function
   fun:sim_task_start_trampoline
}
{
   <insert_a_suppression_name_here>
   Memcheck:Leak
   fun:_Znwm
   fun:_ZN9__gnu_cxx13new_allocatorISt13_Rb_tree_nodeISt4pairIKiiEEE8allocateEmPKv
   fun:_ZNSt8_Rb_treeIiSt4pairIKiiESt10_Select1stIS2_ESt4lessIiESaIS2_EE11_M_get_nodeEv
   fun:_ZNSt8_Rb_treeIiSt4pairIKiiESt10_Select1stIS2_ESt4lessIiESaIS2_EE14_M_create_nodeERKS2_
   fun:_ZNSt8_Rb_treeIiSt4pairIKiiESt10_Select1stIS2_ESt4lessIiESaIS2_EE10_M_insert_EPKSt18_Rb_tree_node_baseSB_RKS2_
   fun:_ZNSt8_Rb_treeIiSt4pairIKiiESt10_Select1stIS2_ESt4lessIiESaIS2_EE16_M_insert_uniqueERKS2_
   fun:_ZNSt8_Rb_treeIiSt4pairIKiiESt10_Select1stIS2_ESt4lessIiESaIS2_EE17_M_insert_unique_ESt23_Rb_tree_const_iteratorIS2_ERKS2_
   fun:_ZNSt3mapIiiSt4lessIiESaISt4pairIKiiEEE6insertESt17_Rb_tree_iteratorIS4_ERKS4_
   fun:_ZNSt3mapIiiSt4lessIiESaISt4pairIKiiEEEixERS3_
   fun:dce_select
   obj:*
   obj:*
}
{
   <insert_a_suppression_name_here>
   Memcheck:Leak
   fun:realloc
   obj:*
   obj:*
   obj:*
   obj:*
   obj:*
   obj:*
   obj:*
   obj:*
   obj:*
   obj:*
   fun:_ZN3ns310DceManager14DoStartProcessEPv
}
{
   <insert_a_suppression_name_here>
   Memcheck:Leak
   fun:_Znwm
   fun:_ZN9__gnu_cxx13new_allocatorISt13_Rb_tree_nodeISt4pairIKiPN3ns39FileUsageEEEE8allocateEmPKv
   fun:_ZNSt8_Rb_treeIiSt4pairIKiPN3ns39FileUsageEESt10_Select1stIS5_ESt4lessIiESaIS5_EE11_M_get_nodeEv
   fun:_ZNSt8_Rb_treeIiSt4pairIKiPN3ns39FileUsageEESt10_Select1stIS5_ESt4lessIiESaIS5_EE14_M_create_nodeERKS5_
   fun:_ZNSt8_Rb_treeIiSt4pairIKiPN3ns39FileUsageEESt10_Select1stIS5_ESt4lessIiESaIS5_EE10_M_insert_EPKSt18_Rb_tree_node_baseSE_RKS5_
   fun:_ZNSt8_Rb_treeIiSt4pairIKiPN3ns39FileUsageEESt10_Select1stIS5_ESt4lessIiESaIS5_EE16_M_insert_uniqueERKS5_
   fun:_ZNSt8_Rb_treeIiSt4pairIKiPN3ns39FileUsageEESt10_Select1stIS5_ESt4lessIiESaIS5_EE17_M_insert_unique_ESt23_Rb_tree_const_iteratorIS5_ERKS5_
   fun:_ZNSt3mapIiPN3ns39FileUsageESt4lessIiESaISt4pairIKiS2_EEE6insertESt17_Rb_tree_iteratorIS7_ERKS7_
   fun:_ZNSt3mapIiPN3ns39FileUsageESt4lessIiESaISt4pairIKiS2_EEEixERS6_
   fun:dce_poll
   fun:dce_select
   obj:*
}
{
   <insert_a_suppression_name_here>
   Memcheck:Leak
   fun:malloc
   fun:_ZN3ns36Object15AggregateObjectENS_3PtrIS0_EE
   fun:_ZN3ns318PointToPointHelper18EnablePcapInternalESsNS_3PtrINS_9NetDeviceEEEbb
   fun:_ZN3ns319PcapHelperForDevice10EnablePcapESsNS_3PtrINS_9NetDeviceEEEbb
   fun:_ZN3ns319PcapHelperForDevice10EnablePcapESsNS_18NetDeviceContainerEb
   fun:_ZN3ns319PcapHelperForDevice10EnablePcapESsNS_13NodeContainerEb
   fun:_ZN3ns319PcapHelperForDevice13EnablePcapAllESsb
   fun:main
}
{
   <insert_a_suppression_name_here>
   Memcheck:Leak
   fun:malloc
   fun:__tzfile_read
   fun:tzset_internal
   fun:__tz_convert
   fun:dce_gmtime
   obj:*
   obj:*
   obj:*
   obj:*
   obj:*
   obj:*
   obj:*
}
{
   <insert_a_suppression_name_here>
   Memcheck:Leak
   fun:realloc
   obj:*
   obj:*
   obj:*
   obj:*
   obj:*
   obj:*
   fun:_ZN3ns310DceManager14DoStartProcessEPv
   fun:_ZN3ns311TaskManager10TrampolineEPv
   fun:_ZN3ns320UcontextFiberManager10TrampolineEiiii
   obj:/lib/libc-2.11.1.so
   fun:_ZN3ns311TaskManager5StartEPFvPvES1_j
}
{
   <insert_a_suppression_name_here>
   Memcheck:Leak
   fun:realloc
   obj:*
   obj:*
   obj:*
   obj:*
   obj:*
   obj:*
   fun:_ZN3ns310DceManager14DoStartProcessEPv
   fun:_ZN3ns311TaskManager10TrampolineEPv
   fun:_ZN3ns320UcontextFiberManager10TrampolineEiiii
   obj:/lib/libc-2.11.1.so
   fun:_ZSt29_Rb_tree_insert_and_rebalancebPSt18_Rb_tree_node_baseS0_RS_
}
{
   <insert_a_suppression_name_here>
   Memcheck:Leak
   fun:_Znwm
   fun:_ZN9__gnu_cxx13new_allocatorIN3ns33PtrINS1_6PacketEEEE8allocateEmPKv
   fun:_ZNSt11_Deque_baseIN3ns33PtrINS0_6PacketEEESaIS3_EE16_M_allocate_nodeEv
   fun:_ZNSt11_Deque_baseIN3ns33PtrINS0_6PacketEEESaIS3_EE15_M_create_nodesEPPS3_S7_
   fun:_ZNSt11_Deque_baseIN3ns33PtrINS0_6PacketEEESaIS3_EE17_M_initialize_mapEm
   fun:_ZNSt11_Deque_baseIN3ns33PtrINS0_6PacketEEESaIS3_EEC2ERKS4_m
   fun:_ZNSt5dequeIN3ns33PtrINS0_6PacketEEESaIS3_EEC1ERKS5_
   fun:_ZNSt5queueIN3ns33PtrINS0_6PacketEEESt5dequeIS3_SaIS3_EEEC1ERKS6_
   fun:_ZN3ns313DropTailQueueC1Ev
   fun:_ZZN3ns36TypeId14AddConstructorINS_13DropTailQueueEEES0_vEN5Maker6CreateEv
   fun:_ZN3ns319FunctorCallbackImplIPFPNS_10ObjectBaseEvES2_NS_5emptyES5_S5_S5_S5_S5_S5_S5_S5_EclEv
   fun:_ZNK3ns38CallbackIPNS_10ObjectBaseENS_5emptyES3_S3_S3_S3_S3_S3_S3_S3_EclEv
}
{
   <insert_a_suppression_name_here>
   Memcheck:Leak
   fun:malloc
   fun:getpwnam
   obj:*
   obj:*
   obj:*
   fun:_ZN3ns310DceManager14DoStartProcessEPv
   fun:_ZN3ns311TaskManager10TrampolineEPv
   fun:_ZN3ns320UcontextFiberManager10TrampolineEiiii
   obj:/lib/libc-2.11.1.so
   fun:_ZN3ns311TaskManager5StartEPFvPvES1_j
   fun:_ZN3ns310DceManager5StartESsSsjSt6vectorISsSaISsEES1_ISt4pairISsSsESaIS5_EEjjjj
}
{
   <insert_a_suppression_name_here>
   Memcheck:Leak
   fun:malloc
   fun:getgrnam
   obj:*
   obj:*
   obj:*
   fun:_ZN3ns310DceManager14DoStartProcessEPv
   fun:_ZN3ns311TaskManager10TrampolineEPv
   fun:_ZN3ns320UcontextFiberManager10TrampolineEiiii
   obj:/lib/libc-2.11.1.so
   fun:_ZN3ns311TaskManager5StartEPFvPvES1_j
   fun:_ZN3ns310DceManager5StartESsSsjSt6vectorISsSaISsEES1_ISt4pairISsSsESaIS5_EEjjjj
}
{
   <insert_a_suppression_name_here>
   Memcheck:Free
   fun:free
   fun:zfree
   fun:thread_get
   fun:funcname_thread_add_read
   fun:bgp_connect_success
   fun:bgp_event
   fun:thread_call
   fun:main
}
{
   <insert_a_suppression_name_here>
   Memcheck:Free
   fun:free
   fun:zfree
   fun:thread_get
   fun:funcname_thread_add_timer_timeval
   fun:funcname_thread_add_timer
   fun:bgp_timer_set
   fun:bgp_event
   fun:thread_call
   fun:main
}
{
   <insert_a_suppression_name_here>
   Memcheck:Free
   fun:free
   fun:zfree
   fun:thread_get
   fun:funcname_thread_add_event
   fun:bgp_accept
   fun:thread_call
   fun:main
}
{
   <insert_a_suppression_name_here>
   Memcheck:Free
   fun:free
   fun:zfree
   fun:peer_free
   fun:peer_unlock
   fun:peer_delete
   fun:bgp_read
   fun:thread_call
   fun:main
}
{
   <insert_a_suppression_name_here>
   Memcheck:Free
   fun:free
   fun:zfree
   fun:work_queue_free
   fun:peer_free
   fun:peer_unlock
   fun:peer_delete
   fun:bgp_read
   fun:thread_call
   fun:main
}
{
   <insert_a_suppression_name_here>
   Memcheck:Free
   fun:free
   fun:zfree
   fun:thread_get
   fun:funcname_thread_add_write
   fun:bgp_keepalive_send
   fun:bgp_establish
   fun:bgp_event
   fun:thread_call
   fun:main
}
{
   <insert_a_suppression_name_here>
   Memcheck:Free
   fun:free
   fun:zfree
   fun:thread_get
   fun:funcname_thread_add_write
   fun:bgp_routeadv_timer
   fun:thread_call
   fun:main
}
{
   <insert_a_suppression_name_here>
   Memcheck:Leak
   fun:malloc
   fun:zmalloc
   fun:aspath_make_str_count
   fun:aspath_dup
   fun:aspath_hash_alloc
   fun:hash_get
   fun:aspath_parse
   fun:aspath_empty
   fun:bgp_attr_default_set
   fun:bgp_redistribute_add
   fun:zebra_read_ipv4
   fun:zclient_read
}
{
   <insert_a_suppression_name_here>
   Memcheck:Leak
   fun:malloc
   fun:zmalloc
   fun:vty_save_cwd
   fun:vty_init
   fun:main
}
{
   <insert_a_suppression_name_here>
   Memcheck:Leak
   fun:malloc
   fun:zmalloc
   fun:cmd_make_descvec
   fun:install_element
   fun:install_default
   fun:cmd_init
   fun:main
}
{
   <insert_a_suppression_name_here>
   Memcheck:Leak
   fun:malloc
   fun:zmalloc
   fun:cmd_make_descvec
   fun:install_element
   fun:vty_init
   fun:main
}
{
   <insert_a_suppression_name_here>
   Memcheck:Leak
   fun:calloc
   fun:zcalloc
   fun:bgp_connected_add
   fun:bgp_interface_address_add
   fun:zclient_read
   fun:thread_call
   fun:main
}
{
   <insert_a_suppression_name_here>
   Memcheck:Leak
   fun:calloc
   fun:zcalloc
   fun:assegment_data_new
   fun:assegment_new
   fun:assegment_dup
   fun:assegment_dup_all
   fun:aspath_dup
   fun:aspath_hash_alloc
   fun:hash_get
   fun:aspath_parse
   fun:bgp_attr_aspath
   fun:bgp_attr_parse
}
{
   <insert_a_suppression_name_here>
   Memcheck:Leak
   fun:malloc
   fun:zmalloc
   fun:cmd_make_descvec
   fun:install_element
   fun:cmd_init
   fun:main
}
{
   <insert_a_suppression_name_here>
   Memcheck:Leak
   fun:_Znwm
   fun:_ZN9__gnu_cxx13new_allocatorISsE8allocateEmPKv
   fun:_ZNSt12_Vector_baseISsSaISsEE11_M_allocateEm
   fun:_ZNSt6vectorISsSaISsEE13_M_insert_auxEN9__gnu_cxx17__normal_iteratorIPSsS1_EERKSs
   fun:_ZNSt6vectorISsSaISsEE9push_backERKSs
   fun:_ZN3ns39BgpConfig11AddNeighborESsj
   fun:_ZN3ns312QuaggaHelper14BgpAddNeighborENS_3PtrINS_4NodeEEESsj
   fun:main
}
{
   <insert_a_suppression_name_here>
   Memcheck:Leak
   fun:_Znwm
   fun:_ZN9__gnu_cxx13new_allocatorIN3ns33PtrINS1_7ChannelEEEE8allocateEmPKv
   fun:_ZNSt12_Vector_baseIN3ns33PtrINS0_7ChannelEEESaIS3_EE11_M_allocateEm
   fun:_ZNSt6vectorIN3ns33PtrINS0_7ChannelEEESaIS3_EE13_M_insert_auxEN9__gnu_cxx17__normal_iteratorIPS3_S5_EERKS3_
   fun:_ZNSt6vectorIN3ns33PtrINS0_7ChannelEEESaIS3_EE9push_backERKS3_
   fun:_ZN3ns315ChannelListPriv3AddENS_3PtrINS_7ChannelEEE
   fun:_ZN3ns311ChannelList3AddENS_3PtrINS_7ChannelEEE
   fun:_ZN3ns37ChannelC2Ev
   fun:_ZN3ns319PointToPointChannelC1Ev
   fun:_ZZN3ns36TypeId14AddConstructorINS_19PointToPointChannelEEES0_vEN5Maker6CreateEv
   fun:_ZN3ns319FunctorCallbackImplIPFPNS_10ObjectBaseEvES2_NS_5emptyES5_S5_S5_S5_S5_S5_S5_S5_EclEv
   fun:_ZNK3ns38CallbackIPNS_10ObjectBaseENS_5emptyES3_S3_S3_S3_S3_S3_S3_S3_EclEv
}
{
   <insert_a_suppression_name_here>
   Memcheck:Leak
   fun:calloc
   fun:zcalloc
   fun:vector_init
   fun:cmd_make_descvec
   fun:install_element
   fun:route_map_init_vty
   fun:zebra_route_map_init
   fun:zebra_init
   fun:main
}
{
   <insert_a_suppression_name_here>
   Memcheck:Leak
   fun:calloc
   fun:zcalloc
   fun:route_table_init
   fun:vrf_alloc
   fun:vrf_init
   fun:rib_init
   fun:main
}
{
   <insert_a_suppression_name_here>
   Memcheck:Leak
   fun:calloc
   fun:zcalloc
   fun:vector_init
   fun:cmd_make_descvec
   fun:install_element
   fun:zebra_if_init
   fun:main
}
{
   <insert_a_suppression_name_here>
   Memcheck:Leak
   fun:calloc
   fun:zcalloc
   fun:vector_init
   fun:install_node
   fun:access_list_init_ipv4
   fun:access_list_init
   fun:main
}
{
   <insert_a_suppression_name_here>
   Memcheck:Leak
   fun:calloc
   fun:zcalloc
   fun:vector_init
   fun:cmd_make_descvec
   fun:install_element
   fun:cmd_init
   fun:main
}
{
   <insert_a_suppression_name_here>
   Memcheck:Leak
   fun:calloc
   fun:zcalloc
   fun:vector_init
   fun:cmd_make_descvec
   fun:install_element
   fun:install_default
   fun:cmd_init
   fun:main
}
{
   <insert_a_suppression_name_here>
   Memcheck:Leak
   fun:calloc
   fun:zcalloc
   fun:vector_init
   fun:cmd_make_descvec
   fun:install_element
   fun:vty_init
   fun:main
}
{
   <insert_a_suppression_name_here>
   Memcheck:Leak
   fun:calloc
   fun:zcalloc
   fun:vector_init
   fun:install_node
   fun:zebra_init
   fun:main
}
{
   <insert_a_suppression_name_here>
   Memcheck:Leak
   fun:calloc
   fun:zcalloc
   fun:vector_init
   fun:install_node
   fun:access_list_init_ipv6
   fun:access_list_init
   fun:main
}
{
   <insert_a_suppression_name_here>
   Memcheck:Leak
   fun:calloc
   fun:zcalloc
   fun:vector_init
   fun:install_node
   fun:prefix_list_init_ipv4
   fun:prefix_list_init
   fun:main
}
{
   <insert_a_suppression_name_here>
   Memcheck:Leak
   fun:calloc
   fun:zcalloc
   fun:vector_init
   fun:install_node
   fun:cmd_init
   fun:main
}
{
   <insert_a_suppression_name_here>
   Memcheck:Leak
   fun:calloc
   fun:zcalloc
   fun:vector_init
   fun:vty_init
   fun:main
}
{
   <insert_a_suppression_name_here>
   Memcheck:Leak
   fun:calloc
   fun:zcalloc
   fun:vector_init
   fun:route_map_init
   fun:zebra_route_map_init
   fun:zebra_init
   fun:main
}
{
   <insert_a_suppression_name_here>
   Memcheck:Leak
   fun:calloc
   fun:zcalloc
   fun:vector_init
   fun:vrf_init
   fun:rib_init
   fun:main
}
{
   <insert_a_suppression_name_here>
   Memcheck:Leak
   fun:calloc
   fun:zcalloc
   fun:vector_init
   fun:install_node
   fun:zebra_debug_init
   fun:main
}
{
   <insert_a_suppression_name_here>
   Memcheck:Leak
   fun:calloc
   fun:zcalloc
   fun:vector_init
   fun:install_node
   fun:zebra_vty_init
   fun:main
}
{
   <insert_a_suppression_name_here>
   Memcheck:Leak
   fun:calloc
   fun:zcalloc
   fun:vector_init
   fun:install_node
   fun:prefix_list_init_ipv6
   fun:prefix_list_init
   fun:main
}
{
   <insert_a_suppression_name_here>
   Memcheck:Leak
   fun:calloc
   fun:zcalloc
   fun:vector_init
   fun:cmd_make_descvec
   fun:install_element
   fun:bgp_vty_init
   fun:bgp_init
   fun:main
}
{
   <insert_a_suppression_name_here>
   Memcheck:Leak
   fun:calloc
   fun:zcalloc
   fun:vector_init
   fun:install_node
   fun:community_list_vty
   fun:bgp_vty_init
   fun:bgp_init
   fun:main
}
{
   <insert_a_suppression_name_here>
   Memcheck:Leak
   fun:calloc
   fun:zcalloc
   fun:vector_init
   fun:install_node
   fun:bgp_debug_init
   fun:bgp_init
   fun:main
}
{
   <insert_a_suppression_name_here>
   Memcheck:Leak
   fun:calloc
   fun:zcalloc
   fun:vector_init
   fun:install_node
   fun:bgp_dump_init
   fun:bgp_init
   fun:main
}
{
   <insert_a_suppression_name_here>
   Memcheck:Leak
   fun:calloc
   fun:zcalloc
   fun:vector_init
   fun:cmd_make_descvec
   fun:install_element
   fun:bgp_route_init
   fun:bgp_init
   fun:main
}
{
   <insert_a_suppression_name_here>
   Memcheck:Leak
   fun:calloc
   fun:zcalloc
   fun:vector_init
   fun:cmd_make_descvec
   fun:install_element
   fun:route_map_init_vty
   fun:bgp_route_map_init
   fun:bgp_init
   fun:main
}
{
   <insert_a_suppression_name_here>
   Memcheck:Leak
   fun:calloc
   fun:zcalloc
   fun:vector_init
   fun:install_node
   fun:access_list_init_ipv4
   fun:access_list_init
   fun:bgp_init
   fun:main
}
{
   <insert_a_suppression_name_here>
   Memcheck:Leak
   fun:calloc
   fun:zcalloc
   fun:vector_init
   fun:install_node
   fun:access_list_init_ipv6
   fun:access_list_init
   fun:bgp_init
   fun:main
}
{
   <insert_a_suppression_name_here>
   Memcheck:Leak
   fun:calloc
   fun:zcalloc
   fun:vector_init
   fun:install_node
   fun:bgp_filter_init
   fun:bgp_init
   fun:main
}
{
   <insert_a_suppression_name_here>
   Memcheck:Leak
   fun:calloc
   fun:zcalloc
   fun:vector_init
   fun:install_node
   fun:prefix_list_init_ipv4
   fun:prefix_list_init
   fun:bgp_init
   fun:main
}
{
   <insert_a_suppression_name_here>
   Memcheck:Leak
   fun:calloc
   fun:zcalloc
   fun:vector_init
   fun:install_node
   fun:prefix_list_init_ipv6
   fun:prefix_list_init
   fun:bgp_init
   fun:main
}
{
   <insert_a_suppression_name_here>
   Memcheck:Leak
   fun:malloc
   fun:zmalloc
   fun:cmd_make_descvec
   fun:install_element
   fun:zebra_if_init
   fun:main
}
{
   <insert_a_suppression_name_here>
   Memcheck:Leak
   fun:malloc
   fun:zmalloc
   fun:cmd_make_descvec
   fun:install_element
   fun:bgp_route_init
   fun:bgp_init
   fun:main
}
{
   <insert_a_suppression_name_here>
   Memcheck:Leak
   fun:malloc
   fun:zmalloc
   fun:cmd_make_descvec
   fun:install_element
   fun:bgp_debug_init
   fun:bgp_init
   fun:main
}
{
   <insert_a_suppression_name_here>
   Memcheck:Leak
   fun:malloc
   fun:zmalloc
   fun:cmd_make_descvec
   fun:install_element
   fun:zebra_init
   fun:main
}
{
   <insert_a_suppression_name_here>
   Memcheck:Leak
   fun:malloc
   fun:zmalloc
   fun:cmd_make_descvec
   fun:install_element
   fun:zebra_route_map_init
   fun:zebra_init
   fun:main
}
{
   <insert_a_suppression_name_here>
   Memcheck:Leak
   fun:malloc
   fun:zmalloc
   fun:cmd_make_descvec
   fun:install_element
   fun:irdp_init
   fun:main
}
{
   <insert_a_suppression_name_here>
   Memcheck:Leak
   fun:malloc
   fun:zmalloc
   fun:cmd_make_descvec
   fun:install_element
   fun:memory_init
   fun:main
}
{
   <insert_a_suppression_name_here>
   Memcheck:Leak
   fun:malloc
   fun:zmalloc
   fun:cmd_make_descvec
   fun:install_element
   fun:bgp_vty_init
   fun:bgp_init
   fun:main
}
{
   <insert_a_suppression_name_here>
   Memcheck:Leak
   fun:malloc
   fun:zmalloc
   fun:cmd_make_descvec
   fun:install_element
   fun:router_id_init
   fun:main
}
{
   <insert_a_suppression_name_here>
   Memcheck:Leak
   fun:malloc
   fun:zmalloc
   fun:cmd_make_descvec
   fun:install_element
   fun:zebra_vty_init
   fun:main
}
{
   <insert_a_suppression_name_here>
   Memcheck:Leak
   fun:malloc
   fun:zmalloc
   fun:cmd_make_descvec
   fun:install_element
   fun:bgp_route_map_init
   fun:bgp_init
   fun:main
}
{
   <insert_a_suppression_name_here>
   Memcheck:Leak
   fun:malloc
   fun:strdup
   fun:tzset_internal
   fun:__tz_convert
   fun:dce_gmtime
   fun:gmtime
   fun:quagga_timestamp
   fun:time_print
   fun:vzlog
   fun:zlog_notice
   fun:main
}
{
   <insert_a_suppression_name_here>
   Memcheck:Leak
   fun:_Znwm
   fun:_ZN3ns36CreateINS_8internal15APointerCheckerINS_10ErrorModelEEEEENS_3PtrIT_EEv
   fun:_ZN3ns318MakePointerCheckerINS_10ErrorModelEEENS_3PtrINS_16AttributeCheckerEEEv
   fun:_ZN3ns315SimpleNetDevice9GetTypeIdEv
   fun:_ZN3ns333XSimpleNetDeviceRegistrationClassC1Ev
   fun:_Z41__static_initialization_and_destruction_0ii
   fun:_GLOBAL__I_simple_net_device.cc
   obj:/home/tazaki/hgworks/ns-3-dce-thehajime/build/lib/libns3-dev-network-debug.so
   obj:/home/tazaki/hgworks/ns-3-dce-thehajime/build/lib/libns3-dev-network-debug.so
   fun:vdl_list_iterate
   fun:vdl_init_call
   fun:dlopen_with_context
}
{
   <insert_a_suppression_name_here>
   Memcheck:Leak
   fun:_Znwm
   fun:_ZN3ns36CreateINS_8internal27AnObjectPtrContainerCheckerINS_4NodeEEEEENS_3PtrIT_EEv
   fun:_ZN3ns329MakeObjectPtrContainerCheckerINS_4NodeEEENS_3PtrIKNS_16AttributeCheckerEEEv
   fun:_ZN3ns323MakeObjectVectorCheckerINS_4NodeEEENS_3PtrIKNS_16AttributeCheckerEEEv
   fun:_ZN3ns312NodeListPriv9GetTypeIdEv
   fun:_ZN3ns330XNodeListPrivRegistrationClassC1Ev
   fun:_Z41__static_initialization_and_destruction_0ii
   fun:_GLOBAL__I_node_list.cc
   obj:/home/tazaki/hgworks/ns-3-dce-thehajime/build/lib/libns3-dev-network-debug.so
   obj:/home/tazaki/hgworks/ns-3-dce-thehajime/build/lib/libns3-dev-network-debug.so
   fun:vdl_list_iterate
   fun:vdl_init_call
}
{
   <insert_a_suppression_name_here>
   Memcheck:Leak
   fun:_Znwm
   fun:_ZN3ns36CreateINS_8internal27AnObjectPtrContainerCheckerINS_11ApplicationEEEEENS_3PtrIT_EEv
   fun:_ZN3ns329MakeObjectPtrContainerCheckerINS_11ApplicationEEENS_3PtrIKNS_16AttributeCheckerEEEv
   fun:_ZN3ns323MakeObjectVectorCheckerINS_11ApplicationEEENS_3PtrIKNS_16AttributeCheckerEEEv
   fun:_ZN3ns34Node9GetTypeIdEv
   fun:_ZN3ns322XNodeRegistrationClassC1Ev
   fun:_Z41__static_initialization_and_destruction_0ii
   fun:_GLOBAL__I_node.cc
   obj:/home/tazaki/hgworks/ns-3-dce-thehajime/build/lib/libns3-dev-network-debug.so
   obj:/home/tazaki/hgworks/ns-3-dce-thehajime/build/lib/libns3-dev-network-debug.so
   fun:vdl_list_iterate
   fun:vdl_init_call
}
{
   <insert_a_suppression_name_here>
   Memcheck:Leak
   fun:_Znwm
   fun:_ZN3ns36CreateINS_8internal27AnObjectPtrContainerCheckerINS_9NetDeviceEEEEENS_3PtrIT_EEv
   fun:_ZN3ns329MakeObjectPtrContainerCheckerINS_9NetDeviceEEENS_3PtrIKNS_16AttributeCheckerEEEv
   fun:_ZN3ns323MakeObjectVectorCheckerINS_9NetDeviceEEENS_3PtrIKNS_16AttributeCheckerEEEv
   fun:_ZN3ns34Node9GetTypeIdEv
   fun:_ZN3ns322XNodeRegistrationClassC1Ev
   fun:_Z41__static_initialization_and_destruction_0ii
   fun:_GLOBAL__I_node.cc
   obj:/home/tazaki/hgworks/ns-3-dce-thehajime/build/lib/libns3-dev-network-debug.so
   obj:/home/tazaki/hgworks/ns-3-dce-thehajime/build/lib/libns3-dev-network-debug.so
   fun:vdl_list_iterate
   fun:vdl_init_call
}
{
   <insert_a_suppression_name_here>
   Memcheck:Leak
   fun:_Znwm
   fun:_ZN3ns36CreateINS_12BooleanValueES1_EENS_3PtrIT_EET0_
   fun:_ZNK3ns312BooleanValue4CopyEv
   fun:_ZNK3ns316AttributeChecker16CreateValidValueERKNS_14AttributeValueE
   fun:_ZN3ns311GlobalValueC1ESsSsRKNS_14AttributeValueENS_3PtrIKNS_16AttributeCheckerEEE
   fun:_Z41__static_initialization_and_destruction_0ii
   fun:_GLOBAL__I_node.cc
   obj:/home/tazaki/hgworks/ns-3-dce-thehajime/build/lib/libns3-dev-network-debug.so
   obj:/home/tazaki/hgworks/ns-3-dce-thehajime/build/lib/libns3-dev-network-debug.so
   fun:vdl_list_iterate
   fun:vdl_init_call
   fun:dlopen_with_context
}
{
   <insert_a_suppression_name_here>
   Memcheck:Leak
   fun:_Znwm
   fun:_ZN3ns36CreateINS_8internal27AnObjectPtrContainerCheckerINS_7ChannelEEEEENS_3PtrIT_EEv
   fun:_ZN3ns329MakeObjectPtrContainerCheckerINS_7ChannelEEENS_3PtrIKNS_16AttributeCheckerEEEv
   fun:_ZN3ns323MakeObjectVectorCheckerINS_7ChannelEEENS_3PtrIKNS_16AttributeCheckerEEEv
   fun:_ZN3ns315ChannelListPriv9GetTypeIdEv
   fun:_ZN3ns333XChannelListPrivRegistrationClassC1Ev
   fun:_Z41__static_initialization_and_destruction_0ii
   fun:_GLOBAL__I_channel_list.cc
   obj:/home/tazaki/hgworks/ns-3-dce-thehajime/build/lib/libns3-dev-network-debug.so
   obj:/home/tazaki/hgworks/ns-3-dce-thehajime/build/lib/libns3-dev-network-debug.so
   fun:vdl_list_iterate
   fun:vdl_init_call
}
{
   <insert_a_suppression_name_here>
   Memcheck:Leak
   fun:_Znwm
   fun:_ZN3ns36CreateINS_9EnumValueES1_EENS_3PtrIT_EET0_
   fun:_ZNK3ns39EnumValue4CopyEv
   fun:_ZN3ns36TypeId12AddAttributeESsSsRKNS_14AttributeValueENS_3PtrIKNS_17AttributeAccessorEEENS4_IKNS_16AttributeCheckerEEE
   fun:_ZN3ns38RedQueue9GetTypeIdEv
   fun:_ZN3ns326XRedQueueRegistrationClassC1Ev
   fun:_Z41__static_initialization_and_destruction_0ii
   fun:_GLOBAL__I_red_queue.cc
   obj:/home/tazaki/hgworks/ns-3-dce-thehajime/build/lib/libns3-dev-network-debug.so
   obj:/home/tazaki/hgworks/ns-3-dce-thehajime/build/lib/libns3-dev-network-debug.so
   fun:vdl_list_iterate
   fun:vdl_init_call
}
{
   <insert_a_suppression_name_here>
   Memcheck:Leak
   fun:_Znwm
   fun:_ZN3ns36CreateINS_12BooleanValueES1_EENS_3PtrIT_EET0_
   fun:_ZNK3ns312BooleanValue4CopyEv
   fun:_ZN3ns36TypeId12AddAttributeESsSsRKNS_14AttributeValueENS_3PtrIKNS_17AttributeAccessorEEENS4_IKNS_16AttributeCheckerEEE
   fun:_ZN3ns38RedQueue9GetTypeIdEv
   fun:_ZN3ns326XRedQueueRegistrationClassC1Ev
   fun:_Z41__static_initialization_and_destruction_0ii
   fun:_GLOBAL__I_red_queue.cc
   obj:/home/tazaki/hgworks/ns-3-dce-thehajime/build/lib/libns3-dev-network-debug.so
   obj:/home/tazaki/hgworks/ns-3-dce-thehajime/build/lib/libns3-dev-network-debug.so
   fun:vdl_list_iterate
   fun:vdl_init_call
}
{
   <insert_a_suppression_name_here>
   Memcheck:Leak
   fun:_Znwm
   fun:_ZN3ns36CreateINS_12BooleanValueES1_EENS_3PtrIT_EET0_
   fun:_ZNK3ns312BooleanValue4CopyEv
   fun:_ZN3ns36TypeId12AddAttributeESsSsRKNS_14AttributeValueENS_3PtrIKNS_17AttributeAccessorEEENS4_IKNS_16AttributeCheckerEEE
   fun:_ZN3ns310ErrorModel9GetTypeIdEv
   fun:_ZN3ns328XErrorModelRegistrationClassC1Ev
   fun:_Z41__static_initialization_and_destruction_0ii
   fun:_GLOBAL__I_error_model.cc
   obj:/home/tazaki/hgworks/ns-3-dce-thehajime/build/lib/libns3-dev-network-debug.so
   obj:/home/tazaki/hgworks/ns-3-dce-thehajime/build/lib/libns3-dev-network-debug.so
   fun:vdl_list_iterate
   fun:vdl_init_call
}
{
   <insert_a_suppression_name_here>
   Memcheck:Leak
   fun:_Znwm
   fun:_ZN3ns36CreateINS_9EnumValueES1_EENS_3PtrIT_EET0_
   fun:_ZNK3ns39EnumValue4CopyEv
   fun:_ZN3ns36TypeId12AddAttributeESsSsRKNS_14AttributeValueENS_3PtrIKNS_17AttributeAccessorEEENS4_IKNS_16AttributeCheckerEEE
   fun:_ZN3ns314RateErrorModel9GetTypeIdEv
   fun:_ZN3ns332XRateErrorModelRegistrationClassC1Ev
   fun:_Z41__static_initialization_and_destruction_0ii
   fun:_GLOBAL__I_error_model.cc
   obj:/home/tazaki/hgworks/ns-3-dce-thehajime/build/lib/libns3-dev-network-debug.so
   obj:/home/tazaki/hgworks/ns-3-dce-thehajime/build/lib/libns3-dev-network-debug.so
   fun:vdl_list_iterate
   fun:vdl_init_call
}
{
   <insert_a_suppression_name_here>
   Memcheck:Leak
   fun:_Znwm
   fun:_ZN3ns36CreateINS_9EnumValueES1_EENS_3PtrIT_EET0_
   fun:_ZNK3ns39EnumValue4CopyEv
   fun:_ZN3ns36TypeId12AddAttributeESsSsRKNS_14AttributeValueENS_3PtrIKNS_17AttributeAccessorEEENS4_IKNS_16AttributeCheckerEEE
   fun:_ZN3ns313DropTailQueue9GetTypeIdEv
   fun:_ZN3ns331XDropTailQueueRegistrationClassC1Ev
   fun:_Z41__static_initialization_and_destruction_0ii
   fun:_GLOBAL__I_drop_tail_queue.cc
   obj:/home/tazaki/hgworks/ns-3-dce-thehajime/build/lib/libns3-dev-network-debug.so
   obj:/home/tazaki/hgworks/ns-3-dce-thehajime/build/lib/libns3-dev-network-debug.so
   fun:vdl_list_iterate
   fun:vdl_init_call
}
{
   <insert_a_suppression_name_here>
   Memcheck:Leak
   fun:_Znwm
   fun:_ZN3ns36CreateINS_12BooleanValueES1_EENS_3PtrIT_EET0_
   fun:_ZNK3ns312BooleanValue4CopyEv
   fun:_ZN3ns36TypeId12AddAttributeESsSsRKNS_14AttributeValueENS_3PtrIKNS_17AttributeAccessorEEENS4_IKNS_16AttributeCheckerEEE
   fun:_ZN3ns315BridgeNetDevice9GetTypeIdEv
   fun:_ZN3ns333XBridgeNetDeviceRegistrationClassC1Ev
   fun:_Z41__static_initialization_and_destruction_0ii
   fun:_GLOBAL__I_bridge_net_device.cc
   obj:/home/tazaki/hgworks/ns-3-dce-thehajime/build/lib/libns3-dev-bridge-debug.so
   obj:/home/tazaki/hgworks/ns-3-dce-thehajime/build/lib/libns3-dev-bridge-debug.so
   fun:vdl_list_iterate
   fun:vdl_init_call
}
{
   <insert_a_suppression_name_here>
   Memcheck:Leak
   fun:_Znwm
   fun:_ZN3ns36CreateINS_8internal27AnObjectPtrContainerCheckerINS_16NscTcpSocketImplEEEEENS_3PtrIT_EEv
   fun:_ZN3ns329MakeObjectPtrContainerCheckerINS_16NscTcpSocketImplEEENS_3PtrIKNS_16AttributeCheckerEEEv
   fun:_ZN3ns323MakeObjectVectorCheckerINS_16NscTcpSocketImplEEENS_3PtrIKNS_16AttributeCheckerEEEv
   fun:_ZN3ns316NscTcpL4Protocol9GetTypeIdEv
   fun:_ZN3ns334XNscTcpL4ProtocolRegistrationClassC1Ev
   fun:_Z41__static_initialization_and_destruction_0ii
   fun:_GLOBAL__I_nsc_tcp_l4_protocol.cc
   obj:/home/tazaki/hgworks/ns-3-dce-thehajime/build/lib/libns3-dev-internet-debug.so
   obj:/home/tazaki/hgworks/ns-3-dce-thehajime/build/lib/libns3-dev-internet-debug.so
   fun:vdl_list_iterate
   fun:vdl_init_call
}
{
   <insert_a_suppression_name_here>
   Memcheck:Leak
   fun:_Znwm
   fun:_ZN3ns36CreateINS_12BooleanValueES1_EENS_3PtrIT_EET0_
   fun:_ZNK3ns312BooleanValue4CopyEv
   fun:_ZN3ns36TypeId12AddAttributeESsSsRKNS_14AttributeValueENS_3PtrIKNS_17AttributeAccessorEEENS4_IKNS_16AttributeCheckerEEE
   fun:_ZN3ns317Ipv4RawSocketImpl9GetTypeIdEv
   fun:_ZN3ns335XIpv4RawSocketImplRegistrationClassC1Ev
   fun:_Z41__static_initialization_and_destruction_0ii
   fun:_GLOBAL__I_ipv4_raw_socket_impl.cc
   obj:/home/tazaki/hgworks/ns-3-dce-thehajime/build/lib/libns3-dev-internet-debug.so
   obj:/home/tazaki/hgworks/ns-3-dce-thehajime/build/lib/libns3-dev-internet-debug.so
   fun:vdl_list_iterate
   fun:vdl_init_call
}
{
   <insert_a_suppression_name_here>
   Memcheck:Leak
   fun:_Znwm
   fun:_ZN3ns36CreateINS_8internal27AnObjectPtrContainerCheckerINS_8ArpCacheEEEEENS_3PtrIT_EEv
   fun:_ZN3ns329MakeObjectPtrContainerCheckerINS_8ArpCacheEEENS_3PtrIKNS_16AttributeCheckerEEEv
   fun:_ZN3ns323MakeObjectVectorCheckerINS_8ArpCacheEEENS_3PtrIKNS_16AttributeCheckerEEEv
   fun:_ZN3ns313ArpL3Protocol9GetTypeIdEv
   fun:_ZN3ns331XArpL3ProtocolRegistrationClassC1Ev
   fun:_Z41__static_initialization_and_destruction_0ii
   fun:_GLOBAL__I_arp_l3_protocol.cc
   obj:/home/tazaki/hgworks/ns-3-dce-thehajime/build/lib/libns3-dev-internet-debug.so
   obj:/home/tazaki/hgworks/ns-3-dce-thehajime/build/lib/libns3-dev-internet-debug.so
   fun:vdl_list_iterate
   fun:vdl_init_call
}
{
   <insert_a_suppression_name_here>
   Memcheck:Leak
   fun:_Znwm
   fun:_ZN3ns36CreateINS_8internal27AnObjectPtrContainerCheckerINS_13TcpSocketBaseEEEEENS_3PtrIT_EEv
   fun:_ZN3ns329MakeObjectPtrContainerCheckerINS_13TcpSocketBaseEEENS_3PtrIKNS_16AttributeCheckerEEEv
   fun:_ZN3ns323MakeObjectVectorCheckerINS_13TcpSocketBaseEEENS_3PtrIKNS_16AttributeCheckerEEEv
   fun:_ZN3ns313TcpL4Protocol9GetTypeIdEv
   fun:_ZN3ns331XTcpL4ProtocolRegistrationClassC1Ev
   fun:_Z41__static_initialization_and_destruction_0ii
   fun:_GLOBAL__I_tcp_l4_protocol.cc
   obj:/home/tazaki/hgworks/ns-3-dce-thehajime/build/lib/libns3-dev-internet-debug.so
   obj:/home/tazaki/hgworks/ns-3-dce-thehajime/build/lib/libns3-dev-internet-debug.so
   fun:vdl_list_iterate
   fun:vdl_init_call
}
{
   <insert_a_suppression_name_here>
   Memcheck:Leak
   fun:_Znwm
   fun:_ZN3ns36CreateINS_11TypeIdValueES1_EENS_3PtrIT_EET0_
   fun:_ZNK3ns311TypeIdValue4CopyEv
   fun:_ZN3ns36TypeId12AddAttributeESsSsRKNS_14AttributeValueENS_3PtrIKNS_17AttributeAccessorEEENS4_IKNS_16AttributeCheckerEEE
   fun:_ZN3ns313TcpL4Protocol9GetTypeIdEv
   fun:_ZN3ns331XTcpL4ProtocolRegistrationClassC1Ev
   fun:_Z41__static_initialization_and_destruction_0ii
   fun:_GLOBAL__I_tcp_l4_protocol.cc
   obj:/home/tazaki/hgworks/ns-3-dce-thehajime/build/lib/libns3-dev-internet-debug.so
   obj:/home/tazaki/hgworks/ns-3-dce-thehajime/build/lib/libns3-dev-internet-debug.so
   fun:vdl_list_iterate
   fun:vdl_init_call
}
{
   <insert_a_suppression_name_here>
   Memcheck:Leak
   fun:_Znwm
   fun:_ZN3ns36CreateINS_12BooleanValueES1_EENS_3PtrIT_EET0_
   fun:_ZNK3ns312BooleanValue4CopyEv
   fun:_ZN3ns36TypeId12AddAttributeESsSsRKNS_14AttributeValueENS_3PtrIKNS_17AttributeAccessorEEENS4_IKNS_16AttributeCheckerEEE
   fun:_ZN3ns39TcpSocket9GetTypeIdEv
   fun:_ZN3ns36TypeId9SetParentINS_9TcpSocketEEES0_v
   fun:_ZN3ns316NscTcpSocketImpl9GetTypeIdEv
   fun:_ZN3ns334XNscTcpSocketImplRegistrationClassC1Ev
   fun:_Z41__static_initialization_and_destruction_0ii
   fun:_GLOBAL__I_nsc_tcp_socket_impl.cc
   obj:/home/tazaki/hgworks/ns-3-dce-thehajime/build/lib/libns3-dev-internet-debug.so
   obj:/home/tazaki/hgworks/ns-3-dce-thehajime/build/lib/libns3-dev-internet-debug.so
}
{
   <insert_a_suppression_name_here>
   Memcheck:Leak
   fun:_Znwm
   fun:_ZN3ns36CreateINS_12BooleanValueES1_EENS_3PtrIT_EET0_
   fun:_ZNK3ns312BooleanValue4CopyEv
   fun:_ZN3ns36TypeId12AddAttributeESsSsRKNS_14AttributeValueENS_3PtrIKNS_17AttributeAccessorEEENS4_IKNS_16AttributeCheckerEEE
   fun:_ZN3ns317Ipv4GlobalRouting9GetTypeIdEv
   fun:_ZN3ns335XIpv4GlobalRoutingRegistrationClassC1Ev
   fun:_Z41__static_initialization_and_destruction_0ii
   fun:_GLOBAL__I_ipv4_global_routing.cc
   obj:/home/tazaki/hgworks/ns-3-dce-thehajime/build/lib/libns3-dev-internet-debug.so
   obj:/home/tazaki/hgworks/ns-3-dce-thehajime/build/lib/libns3-dev-internet-debug.so
   fun:vdl_list_iterate
   fun:vdl_init_call
}
{
   <insert_a_suppression_name_here>
   Memcheck:Leak
   fun:_Znwm
   fun:_ZN3ns36CreateINS_12BooleanValueES1_EENS_3PtrIT_EET0_
   fun:_ZNK3ns312BooleanValue4CopyEv
   fun:_ZN3ns36TypeId12AddAttributeESsSsRKNS_14AttributeValueENS_3PtrIKNS_17AttributeAccessorEEENS4_IKNS_16AttributeCheckerEEE
   fun:_ZN3ns34Ipv69GetTypeIdEv
   fun:_ZN3ns322XIpv6RegistrationClassC1Ev
   fun:_Z41__static_initialization_and_destruction_0ii
   fun:_GLOBAL__I_ipv6.cc
   obj:/home/tazaki/hgworks/ns-3-dce-thehajime/build/lib/libns3-dev-internet-debug.so
   obj:/home/tazaki/hgworks/ns-3-dce-thehajime/build/lib/libns3-dev-internet-debug.so
   fun:vdl_list_iterate
   fun:vdl_init_call
}
{
   <insert_a_suppression_name_here>
   Memcheck:Leak
   fun:_Znwm
   fun:_ZN3ns36CreateINS_12BooleanValueES1_EENS_3PtrIT_EET0_
   fun:_ZNK3ns312BooleanValue4CopyEv
   fun:_ZN3ns36TypeId12AddAttributeESsSsRKNS_14AttributeValueENS_3PtrIKNS_17AttributeAccessorEEENS4_IKNS_16AttributeCheckerEEE
   fun:_ZN3ns34Ipv49GetTypeIdEv
   fun:_ZN3ns322XIpv4RegistrationClassC1Ev
   fun:_Z41__static_initialization_and_destruction_0ii
   fun:_GLOBAL__I_ipv4.cc
   obj:/home/tazaki/hgworks/ns-3-dce-thehajime/build/lib/libns3-dev-internet-debug.so
   obj:/home/tazaki/hgworks/ns-3-dce-thehajime/build/lib/libns3-dev-internet-debug.so
   fun:vdl_list_iterate
   fun:vdl_init_call
}
{
   <insert_a_suppression_name_here>
   Memcheck:Leak
   fun:_Znwm
   fun:_ZN3ns36CreateINS_12BooleanValueES1_EENS_3PtrIT_EET0_
   fun:_ZNK3ns312BooleanValue4CopyEv
   fun:_ZN3ns36TypeId12AddAttributeESsSsRKNS_14AttributeValueENS_3PtrIKNS_17AttributeAccessorEEENS4_IKNS_16AttributeCheckerEEE
   fun:_ZN3ns39UdpSocket9GetTypeIdEv
   fun:_ZN3ns327XUdpSocketRegistrationClassC1Ev
   fun:_Z41__static_initialization_and_destruction_0ii
   fun:_GLOBAL__I_udp_socket.cc
   obj:/home/tazaki/hgworks/ns-3-dce-thehajime/build/lib/libns3-dev-internet-debug.so
   obj:/home/tazaki/hgworks/ns-3-dce-thehajime/build/lib/libns3-dev-internet-debug.so
   fun:vdl_list_iterate
   fun:vdl_init_call
}
{
   <insert_a_suppression_name_here>
   Memcheck:Leak
   fun:_Znwm
   fun:_ZN3ns36CreateINS_12BooleanValueES1_EENS_3PtrIT_EET0_
   fun:_ZNK3ns312BooleanValue4CopyEv
   fun:_ZN3ns36TypeId12AddAttributeESsSsRKNS_14AttributeValueENS_3PtrIKNS_17AttributeAccessorEEENS4_IKNS_16AttributeCheckerEEE
   fun:_ZN3ns310TcpNewReno9GetTypeIdEv
   fun:_ZN3ns328XTcpNewRenoRegistrationClassC1Ev
   fun:_Z41__static_initialization_and_destruction_0ii
   fun:_GLOBAL__I_tcp_newreno.cc
   obj:/home/tazaki/hgworks/ns-3-dce-thehajime/build/lib/libns3-dev-internet-debug.so
   obj:/home/tazaki/hgworks/ns-3-dce-thehajime/build/lib/libns3-dev-internet-debug.so
   fun:vdl_list_iterate
   fun:vdl_init_call
}
{
   <insert_a_suppression_name_here>
   Memcheck:Leak
   fun:_Znwm
   fun:_ZN3ns36CreateINS_12BooleanValueES1_EENS_3PtrIT_EET0_
   fun:_ZNK3ns312BooleanValue4CopyEv
   fun:_ZN3ns36TypeId12AddAttributeESsSsRKNS_14AttributeValueENS_3PtrIKNS_17AttributeAccessorEEENS4_IKNS_16AttributeCheckerEEE
   fun:_ZN3ns316Icmpv6L4Protocol9GetTypeIdEv
   fun:_ZN3ns334XIcmpv6L4ProtocolRegistrationClassC1Ev
   fun:_Z41__static_initialization_and_destruction_0ii
   fun:_GLOBAL__I_icmpv6_l4_protocol.cc
   obj:/home/tazaki/hgworks/ns-3-dce-thehajime/build/lib/libns3-dev-internet-debug.so
   obj:/home/tazaki/hgworks/ns-3-dce-thehajime/build/lib/libns3-dev-internet-debug.so
   fun:vdl_list_iterate
   fun:vdl_init_call
}
{
   <insert_a_suppression_name_here>
   Memcheck:Leak
   fun:_Znwm
   fun:_ZN3ns36CreateINS_8internal27AnObjectPtrContainerCheckerINS_10Ipv6OptionEEEEENS_3PtrIT_EEv
   fun:_ZN3ns329MakeObjectPtrContainerCheckerINS_10Ipv6OptionEEENS_3PtrIKNS_16AttributeCheckerEEEv
   fun:_ZN3ns323MakeObjectVectorCheckerINS_10Ipv6OptionEEENS_3PtrIKNS_16AttributeCheckerEEEv
   fun:_ZN3ns315Ipv6OptionDemux9GetTypeIdEv
   fun:_ZN3ns333XIpv6OptionDemuxRegistrationClassC1Ev
   fun:_Z41__static_initialization_and_destruction_0ii
   fun:_GLOBAL__I_ipv6_option_demux.cc
   obj:/home/tazaki/hgworks/ns-3-dce-thehajime/build/lib/libns3-dev-internet-debug.so
   obj:/home/tazaki/hgworks/ns-3-dce-thehajime/build/lib/libns3-dev-internet-debug.so
   fun:vdl_list_iterate
   fun:vdl_init_call
}
{
   <insert_a_suppression_name_here>
   Memcheck:Leak
   fun:_Znwm
   fun:_ZN3ns36CreateINS_8internal27AnObjectPtrContainerCheckerINS_13Ipv6ExtensionEEEEENS_3PtrIT_EEv
   fun:_ZN3ns329MakeObjectPtrContainerCheckerINS_13Ipv6ExtensionEEENS_3PtrIKNS_16AttributeCheckerEEEv
   fun:_ZN3ns323MakeObjectVectorCheckerINS_13Ipv6ExtensionEEENS_3PtrIKNS_16AttributeCheckerEEEv
   fun:_ZN3ns318Ipv6ExtensionDemux9GetTypeIdEv
   fun:_ZN3ns336XIpv6ExtensionDemuxRegistrationClassC1Ev
   fun:_Z41__static_initialization_and_destruction_0ii
   fun:_GLOBAL__I_ipv6_extension_demux.cc
   obj:/home/tazaki/hgworks/ns-3-dce-thehajime/build/lib/libns3-dev-internet-debug.so
   obj:/home/tazaki/hgworks/ns-3-dce-thehajime/build/lib/libns3-dev-internet-debug.so
   fun:vdl_list_iterate
   fun:vdl_init_call
}
{
   <insert_a_suppression_name_here>
   Memcheck:Leak
   fun:_Znwm
   fun:_ZN3ns36CreateINS_8internal27AnObjectPtrContainerCheckerINS_20Ipv6ExtensionRoutingEEEEENS_3PtrIT_EEv
   fun:_ZN3ns329MakeObjectPtrContainerCheckerINS_20Ipv6ExtensionRoutingEEENS_3PtrIKNS_16AttributeCheckerEEEv
   fun:_ZN3ns323MakeObjectVectorCheckerINS_20Ipv6ExtensionRoutingEEENS_3PtrIKNS_16AttributeCheckerEEEv
   fun:_ZN3ns325Ipv6ExtensionRoutingDemux9GetTypeIdEv
   fun:_ZN3ns343XIpv6ExtensionRoutingDemuxRegistrationClassC1Ev
   fun:_Z41__static_initialization_and_destruction_0ii
   fun:_GLOBAL__I_ipv6_extension.cc
   obj:/home/tazaki/hgworks/ns-3-dce-thehajime/build/lib/libns3-dev-internet-debug.so
   obj:/home/tazaki/hgworks/ns-3-dce-thehajime/build/lib/libns3-dev-internet-debug.so
   fun:vdl_list_iterate
   fun:vdl_init_call
}
{
   <insert_a_suppression_name_here>
   Memcheck:Leak
   fun:_Znwm
   fun:_ZN3ns36CreateINS_8internal27AnObjectPtrContainerCheckerINS_13Ipv6InterfaceEEEEENS_3PtrIT_EEv
   fun:_ZN3ns329MakeObjectPtrContainerCheckerINS_13Ipv6InterfaceEEENS_3PtrIKNS_16AttributeCheckerEEEv
   fun:_ZN3ns323MakeObjectVectorCheckerINS_13Ipv6InterfaceEEENS_3PtrIKNS_16AttributeCheckerEEEv
   fun:_ZN3ns314Ipv6L3Protocol9GetTypeIdEv
   fun:_ZN3ns332XIpv6L3ProtocolRegistrationClassC1Ev
   fun:_Z41__static_initialization_and_destruction_0ii
   fun:_GLOBAL__I_ipv6_l3_protocol.cc
   obj:/home/tazaki/hgworks/ns-3-dce-thehajime/build/lib/libns3-dev-internet-debug.so
   obj:/home/tazaki/hgworks/ns-3-dce-thehajime/build/lib/libns3-dev-internet-debug.so
   fun:vdl_list_iterate
   fun:vdl_init_call
}
{
   <insert_a_suppression_name_here>
   Memcheck:Leak
   fun:_Znwm
   fun:_ZN3ns36CreateINS_12BooleanValueES1_EENS_3PtrIT_EET0_
   fun:_ZNK3ns312BooleanValue4CopyEv
   fun:_ZN3ns36TypeId12AddAttributeESsSsRKNS_14AttributeValueENS_3PtrIKNS_17AttributeAccessorEEENS4_IKNS_16AttributeCheckerEEE
   fun:_ZN3ns314Ipv6L3Protocol9GetTypeIdEv
   fun:_ZN3ns332XIpv6L3ProtocolRegistrationClassC1Ev
   fun:_Z41__static_initialization_and_destruction_0ii
   fun:_GLOBAL__I_ipv6_l3_protocol.cc
   obj:/home/tazaki/hgworks/ns-3-dce-thehajime/build/lib/libns3-dev-internet-debug.so
   obj:/home/tazaki/hgworks/ns-3-dce-thehajime/build/lib/libns3-dev-internet-debug.so
   fun:vdl_list_iterate
   fun:vdl_init_call
}
{
   <insert_a_suppression_name_here>
   Memcheck:Leak
   fun:_Znwm
   fun:_ZN3ns36CreateINS_8internal27AnObjectPtrContainerCheckerINS_13UdpSocketImplEEEEENS_3PtrIT_EEv
   fun:_ZN3ns329MakeObjectPtrContainerCheckerINS_13UdpSocketImplEEENS_3PtrIKNS_16AttributeCheckerEEEv
   fun:_ZN3ns323MakeObjectVectorCheckerINS_13UdpSocketImplEEENS_3PtrIKNS_16AttributeCheckerEEEv
   fun:_ZN3ns313UdpL4Protocol9GetTypeIdEv
   fun:_ZN3ns331XUdpL4ProtocolRegistrationClassC1Ev
   fun:_Z41__static_initialization_and_destruction_0ii
   fun:_GLOBAL__I_udp_l4_protocol.cc
   obj:/home/tazaki/hgworks/ns-3-dce-thehajime/build/lib/libns3-dev-internet-debug.so
   obj:/home/tazaki/hgworks/ns-3-dce-thehajime/build/lib/libns3-dev-internet-debug.so
   fun:vdl_list_iterate
   fun:vdl_init_call
}
{
   <insert_a_suppression_name_here>
   Memcheck:Leak
   fun:_Znwm
   fun:_ZN3ns36CreateINS_8internal15APointerCheckerINS_8ArpCacheEEEEENS_3PtrIT_EEv
   fun:_ZN3ns318MakePointerCheckerINS_8ArpCacheEEENS_3PtrINS_16AttributeCheckerEEEv
   fun:_ZN3ns313Ipv4Interface9GetTypeIdEv
   fun:_ZN3ns331XIpv4InterfaceRegistrationClassC1Ev
   fun:_Z41__static_initialization_and_destruction_0ii
   fun:_GLOBAL__I_ipv4_interface.cc
   obj:/home/tazaki/hgworks/ns-3-dce-thehajime/build/lib/libns3-dev-internet-debug.so
   obj:/home/tazaki/hgworks/ns-3-dce-thehajime/build/lib/libns3-dev-internet-debug.so
   fun:vdl_list_iterate
   fun:vdl_init_call
   fun:dlopen_with_context
}
{
   <insert_a_suppression_name_here>
   Memcheck:Leak
   fun:_Znwm
   fun:_ZN3ns36CreateINS_9EnumValueES1_EENS_3PtrIT_EET0_
   fun:_ZNK3ns39EnumValue4CopyEv
   fun:_ZN3ns36TypeId12AddAttributeESsSsRKNS_14AttributeValueENS_3PtrIKNS_17AttributeAccessorEEENS4_IKNS_16AttributeCheckerEEE
   fun:_ZN3ns321RealtimeSimulatorImpl9GetTypeIdEv
   fun:_ZN3ns339XRealtimeSimulatorImplRegistrationClassC1Ev
   fun:_Z41__static_initialization_and_destruction_0ii
   fun:_GLOBAL__I_realtime_simulator_impl.cc
   obj:/home/tazaki/hgworks/ns-3-dce-thehajime/build/lib/libns3-dev-core-debug.so
   obj:/home/tazaki/hgworks/ns-3-dce-thehajime/build/lib/libns3-dev-core-debug.so
   fun:vdl_list_iterate
   fun:vdl_init_call
}
{
   <insert_a_suppression_name_here>
   Memcheck:Leak
   fun:_Znwm
   fun:_ZN3ns36CreateINS_12BooleanValueES1_EENS_3PtrIT_EET0_
   fun:_ZNK3ns312BooleanValue4CopyEv
   fun:_ZN3ns36TypeId12AddAttributeESsSsRKNS_14AttributeValueENS_3PtrIKNS_17AttributeAccessorEEENS4_IKNS_16AttributeCheckerEEE
   fun:_ZN3ns320RandomVariableStream9GetTypeIdEv
   fun:_ZN3ns338XRandomVariableStreamRegistrationClassC1Ev
   fun:_Z41__static_initialization_and_destruction_0ii
   fun:_GLOBAL__I_random_variable_stream.cc
   obj:/home/tazaki/hgworks/ns-3-dce-thehajime/build/lib/libns3-dev-core-debug.so
   obj:/home/tazaki/hgworks/ns-3-dce-thehajime/build/lib/libns3-dev-core-debug.so
   fun:vdl_list_iterate
   fun:vdl_init_call
}
{
   <insert_a_suppression_name_here>
   Memcheck:Leak
   fun:_Znwm
   fun:_ZN3ns36CreateINS_8internal15APointerCheckerINS_20RandomVariableStreamEEEEENS_3PtrIT_EEv
   fun:_ZN3ns318MakePointerCheckerINS_20RandomVariableStreamEEENS_3PtrINS_16AttributeCheckerEEEv
   fun:_ZN3ns324SequentialRandomVariable9GetTypeIdEv
   fun:_ZN3ns342XSequentialRandomVariableRegistrationClassC1Ev
   fun:_Z41__static_initialization_and_destruction_0ii
   fun:_GLOBAL__I_random_variable_stream.cc
   obj:/home/tazaki/hgworks/ns-3-dce-thehajime/build/lib/libns3-dev-core-debug.so
   obj:/home/tazaki/hgworks/ns-3-dce-thehajime/build/lib/libns3-dev-core-debug.so
   fun:vdl_list_iterate
   fun:vdl_init_call
   fun:dlopen_with_context
}
{
   <insert_a_suppression_name_here>
   Memcheck:Leak
   fun:_Znwm
   fun:_ZN9__gnu_cxx13new_allocatorIN3ns33PtrINS1_9NetDeviceEEEE8allocateEmPKv
   fun:_ZNSt12_Vector_baseIN3ns33PtrINS0_9NetDeviceEEESaIS3_EE11_M_allocateEm
   fun:_ZNSt6vectorIN3ns33PtrINS0_9NetDeviceEEESaIS3_EE20_M_allocate_and_copyIN9__gnu_cxx17__normal_iteratorIPKS3_S5_EEEEPS3_mT_SD_
   fun:_ZNSt6vectorIN3ns33PtrINS0_9NetDeviceEEESaIS3_EEaSERKS5_
   fun:_ZN3ns318NetDeviceContaineraSERKS0_
   fun:main
}
{
   <insert_a_suppression_name_here>
   Memcheck:Leak
   fun:_Znwm
   fun:_ZN3ns36CreateINS_9EnumValueES1_EENS_3PtrIT_EET0_
   fun:_ZNK3ns39EnumValue4CopyEv
   fun:_ZN3ns313ObjectFactory3SetESsRKNS_14AttributeValueE
   fun:_ZN3ns316DceManagerHelper23SetTaskManagerAttributeESsRKNS_14AttributeValueE
   fun:main
}
{
   <insert_a_suppression_name_here>
   Memcheck:Leak
   fun:malloc
   fun:_ZN3ns36ObjectC2Ev
   fun:_ZN3ns311ApplicationC2Ev
   fun:_ZN3ns314DceApplicationC1Ev
   fun:_ZN3ns312CreateObjectINS_14DceApplicationEEENS_3PtrIT_EEv
   fun:_ZN3ns320DceApplicationHelper7InstallENS_13NodeContainerE
   fun:_ZL5RunIpN3ns33PtrINS_4NodeEEENS_4TimeESs
   fun:main
}
{
   <insert_a_suppression_name_here>
   Memcheck:Leak
   fun:_Znwm
   fun:_ZN3ns36CreateINS_8internal27AnObjectPtrContainerCheckerINS_13Ipv4InterfaceEEEEENS_3PtrIT_EEv
   fun:_ZN3ns329MakeObjectPtrContainerCheckerINS_13Ipv4InterfaceEEENS_3PtrIKNS_16AttributeCheckerEEEv
   fun:_ZN3ns323MakeObjectVectorCheckerINS_13Ipv4InterfaceEEENS_3PtrIKNS_16AttributeCheckerEEEv
   fun:_ZN3ns314Ipv4L3Protocol9GetTypeIdEv
   fun:_ZN3ns332XIpv4L3ProtocolRegistrationClassC1Ev
   fun:_Z41__static_initialization_and_destruction_0ii
   fun:_GLOBAL__I_ipv4_l3_protocol.cc
   obj:/home/tazaki/hgworks/ns-3-dce-thehajime/build/lib/libns3-dev-internet-debug.so
   obj:/home/tazaki/hgworks/ns-3-dce-thehajime/build/lib/libns3-dev-internet-debug.so
   fun:vdl_list_iterate
   fun:vdl_init_call
}
{
   <insert_a_suppression_name_here>
   Memcheck:Leak
   fun:_Znwm
   fun:_ZN3ns36CreateINS_11TypeIdValueES1_EENS_3PtrIT_EET0_
   fun:_ZNK3ns311TypeIdValue4CopyEv
   fun:_ZNK3ns316AttributeChecker16CreateValidValueERKNS_14AttributeValueE
   fun:_ZN3ns311GlobalValueC1ESsSsRKNS_14AttributeValueENS_3PtrIKNS_16AttributeCheckerEEE
   fun:_Z41__static_initialization_and_destruction_0ii
   fun:_GLOBAL__I_simulator.cc
   obj:/home/tazaki/hgworks/ns-3-dce-thehajime/build/lib/libns3-dev-core-debug.so
   obj:/home/tazaki/hgworks/ns-3-dce-thehajime/build/lib/libns3-dev-core-debug.so
   fun:vdl_list_iterate
   fun:vdl_init_call
   fun:dlopen_with_context
}
{
   <insert_a_suppression_name_here>
   Memcheck:Leak
   fun:_Znwm
   fun:_ZN3ns36CreateINS_9EnumValueES1_EENS_3PtrIT_EET0_
   fun:_ZNK3ns39EnumValue4CopyEv
   fun:_ZN3ns36TypeId12AddAttributeESsSsjRKNS_14AttributeValueENS_3PtrIKNS_17AttributeAccessorEEENS4_IKNS_16AttributeCheckerEEE
   fun:_ZN3ns311TaskManager9GetTypeIdEv
   fun:_ZN3ns329XTaskManagerRegistrationClassC1Ev
   fun:_Z41__static_initialization_and_destruction_0ii
   fun:_GLOBAL__I_task_manager.cc
   obj:/home/tazaki/hgworks/ns-3-dce-thehajime/build/lib/libns3-dce.so
   obj:/home/tazaki/hgworks/ns-3-dce-thehajime/build/lib/libns3-dce.so
   fun:vdl_list_iterate
   fun:vdl_init_call
}
{
   <insert_a_suppression_name_here>
   Memcheck:Leak
   fun:_Znwm
   fun:_ZN3ns36CreateINS_12BooleanValueES1_EENS_3PtrIT_EET0_
   fun:_ZNK3ns312BooleanValue4CopyEv
   fun:_ZN3ns36TypeId12AddAttributeESsSsRKNS_14AttributeValueENS_3PtrIKNS_17AttributeAccessorEEENS4_IKNS_16AttributeCheckerEEE
   fun:_ZN3ns310DceManager9GetTypeIdEv
   fun:_ZN3ns328XDceManagerRegistrationClassC1Ev
   fun:_Z41__static_initialization_and_destruction_0ii
   fun:_GLOBAL__I_dce_manager.cc
   obj:/home/tazaki/hgworks/ns-3-dce-thehajime/build/lib/libns3-dce.so
   obj:/home/tazaki/hgworks/ns-3-dce-thehajime/build/lib/libns3-dce.so
   fun:vdl_list_iterate
   fun:vdl_init_call
}
{
   <insert_a_suppression_name_here>
   Memcheck:Leak
   fun:_Znwm
   fun:_ZN3ns36CreateINS_8internal15APointerCheckerINS_5QueueEEEEENS_3PtrIT_EEv
   fun:_ZN3ns318MakePointerCheckerINS_5QueueEEENS_3PtrINS_16AttributeCheckerEEEv
   fun:_ZN3ns321PointToPointNetDevice9GetTypeIdEv
   fun:_ZN3ns339XPointToPointNetDeviceRegistrationClassC1Ev
   fun:_Z41__static_initialization_and_destruction_0ii
   fun:_GLOBAL__I_point_to_point_net_device.cc
   obj:/home/tazaki/hgworks/ns-3-dce-thehajime/build/lib/libns3-dev-point-to-point-debug.so
   obj:/home/tazaki/hgworks/ns-3-dce-thehajime/build/lib/libns3-dev-point-to-point-debug.so
   fun:vdl_list_iterate
   fun:vdl_init_call
   fun:dlopen_with_context
}
{
   <insert_a_suppression_name_here>
   Memcheck:Leak
   fun:_Znwm
   fun:_ZN3ns36CreateINS_8internal15APointerCheckerINS_10ErrorModelEEEEENS_3PtrIT_EEv
   fun:_ZN3ns318MakePointerCheckerINS_10ErrorModelEEENS_3PtrINS_16AttributeCheckerEEEv
   fun:_ZN3ns321PointToPointNetDevice9GetTypeIdEv
   fun:_ZN3ns339XPointToPointNetDeviceRegistrationClassC1Ev
   fun:_Z41__static_initialization_and_destruction_0ii
   fun:_GLOBAL__I_point_to_point_net_device.cc
   obj:/home/tazaki/hgworks/ns-3-dce-thehajime/build/lib/libns3-dev-point-to-point-debug.so
   obj:/home/tazaki/hgworks/ns-3-dce-thehajime/build/lib/libns3-dev-point-to-point-debug.so
   fun:vdl_list_iterate
   fun:vdl_init_call
   fun:dlopen_with_context
}
{
   <insert_a_suppression_name_here>
   Memcheck:Leak
   fun:malloc
   fun:_ZN3ns36ObjectC2Ev
   fun:_ZN3ns312NodeListPrivC1Ev
   fun:_ZN3ns312CreateObjectINS_12NodeListPrivEEENS_3PtrIT_EEv
   fun:_ZN3ns312NodeListPriv5DoGetEv
   fun:_ZN3ns312NodeListPriv3GetEv
   fun:_ZN3ns38NodeList3AddENS_3PtrINS_4NodeEEE
   fun:_ZN3ns34Node9ConstructEv
   fun:_ZN3ns34NodeC1Ev
   fun:_ZN3ns312CreateObjectINS_4NodeEEENS_3PtrIT_EEv
   fun:_ZN3ns313NodeContainer6CreateEj
   fun:main
}
{
   <insert_a_suppression_name_here>
   Memcheck:Leak
   fun:malloc
   fun:_ZN3ns36ObjectC2Ev
   fun:_ZN3ns313SimulatorImplC2Ev
   fun:_ZN3ns320DefaultSimulatorImplC1Ev
   fun:_ZZN3ns36TypeId14AddConstructorINS_20DefaultSimulatorImplEEES0_vEN5Maker6CreateEv
   fun:_ZN3ns319FunctorCallbackImplIPFPNS_10ObjectBaseEvES2_NS_5emptyES5_S5_S5_S5_S5_S5_S5_S5_EclEv
   fun:_ZNK3ns38CallbackIPNS_10ObjectBaseENS_5emptyES3_S3_S3_S3_S3_S3_S3_S3_EclEv
   fun:_ZNK3ns313ObjectFactory6CreateEv
   fun:_ZNK3ns313ObjectFactory6CreateINS_13SimulatorImplEEENS_3PtrIT_EEv
   fun:_ZN3ns3L7GetImplEv
   fun:_ZN3ns39Simulator17DoScheduleDestroyEPNS_9EventImplE
   fun:_ZN3ns39Simulator15ScheduleDestroyEPFvvE
}
{
   <insert_a_suppression_name_here>
   Memcheck:Leak
   fun:malloc
   fun:_ZN3ns36ObjectC2Ev
   fun:_ZN3ns39SchedulerC2Ev
   fun:_ZN3ns312MapSchedulerC1Ev
   fun:_ZZN3ns36TypeId14AddConstructorINS_12MapSchedulerEEES0_vEN5Maker6CreateEv
   fun:_ZN3ns319FunctorCallbackImplIPFPNS_10ObjectBaseEvES2_NS_5emptyES5_S5_S5_S5_S5_S5_S5_S5_EclEv
   fun:_ZNK3ns38CallbackIPNS_10ObjectBaseENS_5emptyES3_S3_S3_S3_S3_S3_S3_S3_EclEv
   fun:_ZNK3ns313ObjectFactory6CreateEv
   fun:_ZNK3ns313ObjectFactory6CreateINS_9SchedulerEEENS_3PtrIT_EEv
   fun:_ZN3ns320DefaultSimulatorImpl12SetSchedulerENS_13ObjectFactoryE
   fun:_ZN3ns3L7GetImplEv
   fun:_ZN3ns39Simulator17DoScheduleDestroyEPNS_9EventImplE
}
{
   <insert_a_suppression_name_here>
   Memcheck:Leak
   fun:_Znwm
   fun:_ZN9__gnu_cxx13new_allocatorIN3ns33PtrINS1_4NodeEEEE8allocateEmPKv
   fun:_ZNSt12_Vector_baseIN3ns33PtrINS0_4NodeEEESaIS3_EE11_M_allocateEm
   fun:_ZNSt6vectorIN3ns33PtrINS0_4NodeEEESaIS3_EE13_M_insert_auxEN9__gnu_cxx17__normal_iteratorIPS3_S5_EERKS3_
   fun:_ZNSt6vectorIN3ns33PtrINS0_4NodeEEESaIS3_EE9push_backERKS3_
   fun:_ZN3ns312NodeListPriv3AddENS_3PtrINS_4NodeEEE
   fun:_ZN3ns38NodeList3AddENS_3PtrINS_4NodeEEE
   fun:_ZN3ns34Node9ConstructEv
   fun:_ZN3ns34NodeC1Ev
   fun:_ZN3ns312CreateObjectINS_4NodeEEENS_3PtrIT_EEv
   fun:_ZN3ns313NodeContainer6CreateEj
   fun:main
}
{
   <insert_a_suppression_name_here>
   Memcheck:Leak
   fun:_Znwm
   fun:_ZN9__gnu_cxx13new_allocatorIN3ns33PtrINS1_4NodeEEEE8allocateEmPKv
   fun:_ZNSt12_Vector_baseIN3ns33PtrINS0_4NodeEEESaIS3_EE11_M_allocateEm
   fun:_ZNSt6vectorIN3ns33PtrINS0_4NodeEEESaIS3_EE13_M_insert_auxEN9__gnu_cxx17__normal_iteratorIPS3_S5_EERKS3_
   fun:_ZNSt6vectorIN3ns33PtrINS0_4NodeEEESaIS3_EE9push_backERKS3_
   fun:_ZN3ns313NodeContainer6CreateEj
   fun:main
}
{
   <insert_a_suppression_name_here>
   Memcheck:Leak
   fun:malloc
   fun:_ZN3ns36ObjectC2Ev
   fun:_ZN3ns37ChannelC2Ev
   fun:_ZN3ns319PointToPointChannelC1Ev
   fun:_ZZN3ns36TypeId14AddConstructorINS_19PointToPointChannelEEES0_vEN5Maker6CreateEv
   fun:_ZN3ns319FunctorCallbackImplIPFPNS_10ObjectBaseEvES2_NS_5emptyES5_S5_S5_S5_S5_S5_S5_S5_EclEv
   fun:_ZNK3ns38CallbackIPNS_10ObjectBaseENS_5emptyES3_S3_S3_S3_S3_S3_S3_S3_EclEv
   fun:_ZNK3ns313ObjectFactory6CreateEv
   fun:_ZNK3ns313ObjectFactory6CreateINS_19PointToPointChannelEEENS_3PtrIT_EEv
   fun:_ZN3ns318PointToPointHelper7InstallENS_3PtrINS_4NodeEEES3_
   fun:_ZN3ns318PointToPointHelper7InstallENS_13NodeContainerE
   fun:main
}
{
   <insert_a_suppression_name_here>
   Memcheck:Leak
   fun:malloc
   fun:_ZN3ns36ObjectC2Ev
   fun:_ZN3ns315ChannelListPrivC1Ev
   fun:_ZN3ns312CreateObjectINS_15ChannelListPrivEEENS_3PtrIT_EEv
   fun:_ZN3ns315ChannelListPriv5DoGetEv
   fun:_ZN3ns315ChannelListPriv3GetEv
   fun:_ZN3ns311ChannelList3AddENS_3PtrINS_7ChannelEEE
   fun:_ZN3ns37ChannelC2Ev
   fun:_ZN3ns319PointToPointChannelC1Ev
   fun:_ZZN3ns36TypeId14AddConstructorINS_19PointToPointChannelEEES0_vEN5Maker6CreateEv
   fun:_ZN3ns319FunctorCallbackImplIPFPNS_10ObjectBaseEvES2_NS_5emptyES5_S5_S5_S5_S5_S5_S5_S5_EclEv
   fun:_ZNK3ns38CallbackIPNS_10ObjectBaseENS_5emptyES3_S3_S3_S3_S3_S3_S3_S3_EclEv
}
{
   <insert_a_suppression_name_here>
   Memcheck:Leak
   fun:_Znwm
   fun:_ZN9__gnu_cxx13new_allocatorIN3ns33PtrINS1_6ObjectEEEE8allocateEmPKv
   fun:_ZNSt12_Vector_baseIN3ns33PtrINS0_6ObjectEEESaIS3_EE11_M_allocateEm
   fun:_ZNSt6vectorIN3ns33PtrINS0_6ObjectEEESaIS3_EE13_M_insert_auxEN9__gnu_cxx17__normal_iteratorIPS3_S5_EERKS3_
   fun:_ZNSt6vectorIN3ns33PtrINS0_6ObjectEEESaIS3_EE9push_backERKS3_
   fun:_ZN3ns310ConfigImpl27RegisterRootNamespaceObjectENS_3PtrINS_6ObjectEEE
   fun:_ZN3ns36Config27RegisterRootNamespaceObjectENS_3PtrINS_6ObjectEEE
   fun:_ZN3ns315ChannelListPriv5DoGetEv
   fun:_ZN3ns315ChannelListPriv3GetEv
   fun:_ZN3ns311ChannelList3AddENS_3PtrINS_7ChannelEEE
   fun:_ZN3ns37ChannelC2Ev
   fun:_ZN3ns319PointToPointChannelC1Ev
}
{
   <insert_a_suppression_name_here>
   Memcheck:Leak
   fun:malloc
   fun:_ZN3ns36ObjectC2Ev
   fun:_ZN3ns316DceManagerHelperC1Ev
   fun:main
}
{
   <insert_a_suppression_name_here>
   Memcheck:Leak
   fun:malloc
   fun:_ZN3ns36ObjectC2Ev
   fun:_ZN3ns311ApplicationC2Ev
   fun:_ZN3ns314DceApplicationC1Ev
   fun:_ZN3ns312CreateObjectINS_14DceApplicationEEENS_3PtrIT_EEv
   fun:_ZN3ns320DceApplicationHelper7InstallENS_13NodeContainerE
   fun:_ZL5RunIpN3ns33PtrINS_4NodeEEENS_4TimeESs
   fun:_ZL10AddAddressN3ns33PtrINS_4NodeEEENS_4TimeEPKcS5_
   fun:main
}
{
   <insert_a_suppression_name_here>
   Memcheck:Leak
   fun:realloc
   fun:zrealloc
   fun:vector_ensure
   fun:vector_set
   fun:cmd_make_descvec
   fun:install_element
   fun:zebra_init
   fun:main
}
{
   <insert_a_suppression_name_here>
   Memcheck:Leak
   fun:realloc
   fun:zrealloc
   fun:vector_ensure
   fun:vector_set
   fun:cmd_make_descvec
   fun:install_element
   fun:route_map_init_vty
   fun:zebra_route_map_init
   fun:zebra_init
   fun:main
}
{
   <insert_a_suppression_name_here>
   Memcheck:Leak
   fun:calloc
   fun:zcalloc
   fun:vector_init
   fun:cmd_make_descvec
   fun:install_element
   fun:zebra_route_map_init
   fun:zebra_init
   fun:main
}
{
   <insert_a_suppression_name_here>
   Memcheck:Leak
   fun:calloc
   fun:zcalloc
   fun:vector_init
   fun:install_node
   fun:zebra_if_init
   fun:main
}
{
   <insert_a_suppression_name_here>
   Memcheck:Leak
   fun:realloc
   fun:zrealloc
   fun:vector_ensure
   fun:vector_set
   fun:cmd_make_descvec
   fun:install_element
   fun:zebra_if_init
   fun:main
}
{
   <insert_a_suppression_name_here>
   Memcheck:Leak
   fun:calloc
   fun:zcalloc
   fun:cmd_make_descvec
   fun:install_element
   fun:zebra_if_init
   fun:main
}
{
   <insert_a_suppression_name_here>
   Memcheck:Leak
   fun:calloc
   fun:zcalloc
   fun:vector_init
   fun:cmd_make_descvec
   fun:install_element
   fun:zebra_debug_init
   fun:main
}
{
   <insert_a_suppression_name_here>
   Memcheck:Leak
   fun:realloc
   fun:zrealloc
   fun:vector_ensure
   fun:vector_set
   fun:cmd_make_descvec
   fun:install_element
   fun:zebra_debug_init
   fun:main
}
{
   <insert_a_suppression_name_here>
   Memcheck:Leak
   fun:realloc
   fun:zrealloc
   fun:vector_ensure
   fun:vector_set
   fun:cmd_make_descvec
   fun:install_element
   fun:router_id_init
   fun:main
}
{
   <insert_a_suppression_name_here>
   Memcheck:Leak
   fun:calloc
   fun:zcalloc
   fun:vector_init
   fun:cmd_make_descvec
   fun:install_element
   fun:zebra_vty_init
   fun:main
}
{
   <insert_a_suppression_name_here>
   Memcheck:Leak
   fun:realloc
   fun:zrealloc
   fun:vector_ensure
   fun:vector_set
   fun:cmd_make_descvec
   fun:install_element
   fun:zebra_vty_init
   fun:main
}
{
   <insert_a_suppression_name_here>
   Memcheck:Leak
   fun:calloc
   fun:zcalloc
   fun:vector_init
   fun:cmd_make_descvec
   fun:install_element
   fun:access_list_init_ipv4
   fun:access_list_init
   fun:main
}
{
   <insert_a_suppression_name_here>
   Memcheck:Leak
   fun:realloc
   fun:zrealloc
   fun:vector_ensure
   fun:vector_set
   fun:cmd_make_descvec
   fun:install_element
   fun:access_list_init_ipv4
   fun:access_list_init
   fun:main
}
{
   <insert_a_suppression_name_here>
   Memcheck:Leak
   fun:calloc
   fun:zcalloc
   fun:vector_init
   fun:cmd_make_descvec
   fun:install_element
   fun:access_list_init_ipv6
   fun:access_list_init
   fun:main
}
{
   <insert_a_suppression_name_here>
   Memcheck:Leak
   fun:realloc
   fun:zrealloc
   fun:vector_ensure
   fun:vector_set
   fun:cmd_make_descvec
   fun:install_element
   fun:access_list_init_ipv6
   fun:access_list_init
   fun:main
}
{
   <insert_a_suppression_name_here>
   Memcheck:Leak
   fun:calloc
   fun:zcalloc
   fun:vector_init
   fun:cmd_make_descvec
   fun:install_element
   fun:prefix_list_init_ipv4
   fun:prefix_list_init
   fun:main
}
{
   <insert_a_suppression_name_here>
   Memcheck:Leak
   fun:realloc
   fun:zrealloc
   fun:vector_ensure
   fun:vector_set
   fun:cmd_make_descvec
   fun:install_element
   fun:prefix_list_init_ipv4
   fun:prefix_list_init
   fun:main
}
{
   <insert_a_suppression_name_here>
   Memcheck:Leak
   fun:calloc
   fun:zcalloc
   fun:vector_init
   fun:cmd_make_descvec
   fun:install_element
   fun:prefix_list_init_ipv6
   fun:prefix_list_init
   fun:main
}
{
   <insert_a_suppression_name_here>
   Memcheck:Leak
   fun:realloc
   fun:zrealloc
   fun:vector_ensure
   fun:vector_set
   fun:cmd_make_descvec
   fun:install_element
   fun:prefix_list_init_ipv6
   fun:prefix_list_init
   fun:main
}
{
   <insert_a_suppression_name_here>
   Memcheck:Leak
   fun:calloc
   fun:zcalloc
   fun:vector_init
   fun:cmd_make_descvec
   fun:install_element
   fun:rtadv_init
   fun:main
}
{
   <insert_a_suppression_name_here>
   Memcheck:Leak
   fun:calloc
   fun:zcalloc
   fun:cmd_make_descvec
   fun:install_element
   fun:cmd_init
   fun:main
}
{
   <insert_a_suppression_name_here>
   Memcheck:Leak
   fun:calloc
   fun:zcalloc
   fun:cmd_make_descvec
   fun:install_element
   fun:install_default
   fun:cmd_init
   fun:main
}
{
   <insert_a_suppression_name_here>
   Memcheck:Leak
   fun:realloc
   fun:zrealloc
   fun:vector_ensure
   fun:vector_set
   fun:cmd_make_descvec
   fun:install_element
   fun:cmd_init
   fun:main
}
{
   <insert_a_suppression_name_here>
   Memcheck:Leak
   fun:calloc
   fun:zcalloc
   fun:cmd_make_descvec
   fun:install_element
   fun:vty_init
   fun:main
}
{
   <insert_a_suppression_name_here>
   Memcheck:Leak
   fun:calloc
   fun:zcalloc
   fun:vector_init
   fun:cmd_make_descvec
   fun:install_element
   fun:memory_init
   fun:main
}
{
   <insert_a_suppression_name_here>
   Memcheck:Leak
   fun:malloc
   fun:_ZN3ns36ObjectC2Ev
   fun:_ZN3ns36UnixFdC2Ev
   fun:_ZN3ns314UnixFileFdBaseC2Ei
   fun:_ZN3ns310UnixFileFdC1Ei
   fun:dce_open
   fun:dce_fopen
   fun:_Z11dce_openlogPKcii
   fun:openlog
   fun:openzlog
   fun:main
}
{
   <insert_a_suppression_name_here>
   Memcheck:Leak
   fun:calloc
   fun:zcalloc
   fun:vector_init
   fun:cmd_init
   fun:main
}
{
   <insert_a_suppression_name_here>
   Memcheck:Leak
   fun:realloc
   fun:zrealloc
   fun:vector_ensure
   fun:vector_set
   fun:cmd_make_descvec
   fun:install_element
   fun:install_default
   fun:cmd_init
   fun:main
}
{
   <insert_a_suppression_name_here>
   Memcheck:Leak
   fun:calloc
   fun:zcalloc
   fun:vector_init
   fun:install_node
   fun:vty_init
   fun:main
}
{
   <insert_a_suppression_name_here>
   Memcheck:Leak
   fun:realloc
   fun:zrealloc
   fun:vector_ensure
   fun:vector_set
   fun:cmd_make_descvec
   fun:install_element
   fun:vty_init
   fun:main
}
{
   <insert_a_suppression_name_here>
   Memcheck:Leak
   fun:realloc
   fun:zrealloc
   fun:vector_ensure
   fun:vector_set
   fun:cmd_make_descvec
   fun:install_element
   fun:memory_init
   fun:main
}
{
   <insert_a_suppression_name_here>
   Memcheck:Leak
   fun:calloc
   fun:zcalloc
   fun:vector_init
   fun:cmd_make_descvec
   fun:install_element
   fun:zebra_init
   fun:main
}
{
   <insert_a_suppression_name_here>
   Memcheck:Leak
   fun:calloc
   fun:zcalloc
   fun:vector_init
   fun:install_node
   fun:route_map_init_vty
   fun:zebra_route_map_init
   fun:zebra_init
   fun:main
}
{
   <insert_a_suppression_name_here>
   Memcheck:Leak
   fun:calloc
   fun:zcalloc
   fun:cmd_make_descvec
   fun:install_element
   fun:route_map_init_vty
   fun:zebra_route_map_init
   fun:zebra_init
   fun:main
}
{
   <insert_a_suppression_name_here>
   Memcheck:Leak
   fun:calloc
   fun:zcalloc
   fun:vector_init
   fun:cmd_make_descvec
   fun:install_element
   fun:router_id_init
   fun:main
}
{
   <insert_a_suppression_name_here>
   Memcheck:Leak
   fun:realloc
   fun:zrealloc
   fun:vector_ensure
   fun:vector_set
   fun:cmd_make_descvec
   fun:install_element
   fun:rtadv_init
   fun:main
}
{
   <insert_a_suppression_name_here>
   Memcheck:Leak
   fun:calloc
   fun:zcalloc
   fun:vector_init
   fun:cmd_make_descvec
   fun:install_element
   fun:irdp_init
   fun:main
}
{
   <insert_a_suppression_name_here>
   Memcheck:Leak
   fun:malloc
   fun:_ZN3ns36ObjectC2Ev
   fun:_ZN3ns36UnixFdC2Ev
   fun:_ZN3ns313LocalSocketFdC2Ev
   fun:_ZN3ns319LocalStreamSocketFdC1ENS_3PtrINS_20LocalSocketFdFactoryEEE
   fun:_ZN3ns320LocalSocketFdFactory12CreateSocketEiii
   fun:dce_socket
   fun:socket
   fun:zebra_serv_un
   fun:zebra_zserv_socket_init
   fun:main
}
{
   <insert_a_suppression_name_here>
   Memcheck:Leak
   fun:malloc
   fun:_ZN3ns36ObjectC2Ev
   fun:_ZN3ns36UnixFdC2Ev
   fun:_ZN3ns314UnixFileFdBaseC2Ei
   fun:_ZN3ns314TermUnixFileFdC1Ei
   fun:_ZN3ns310DceManager21PrepareDoStartProcessEPNS_6ThreadE
   fun:_ZN3ns310DceManager14DoStartProcessEPv
   fun:_ZN3ns311TaskManager10TrampolineEPv
   fun:_ZN3ns320UcontextFiberManager10TrampolineEiiii
   obj:/lib/libc-2.11.1.so
   obj:*
   obj:*
}
{
   <insert_a_suppression_name_here>
   Memcheck:Leak
   fun:calloc
   fun:zcalloc
   fun:vector_init
   fun:install_node
   fun:bgp_vty_init
   fun:bgp_init
   fun:main
}
{
   <insert_a_suppression_name_here>
   Memcheck:Leak
   fun:realloc
   fun:zrealloc
   fun:vector_ensure
   fun:vector_set
   fun:cmd_make_descvec
   fun:install_element
   fun:bgp_vty_init
   fun:bgp_init
   fun:main
}
{
   <insert_a_suppression_name_here>
   Memcheck:Leak
   fun:calloc
   fun:zcalloc
   fun:cmd_make_descvec
   fun:install_element
   fun:bgp_vty_init
   fun:bgp_init
   fun:main
}
{
   <insert_a_suppression_name_here>
   Memcheck:Leak
   fun:calloc
   fun:zcalloc
   fun:vector_init
   fun:cmd_make_descvec
   fun:install_element
   fun:community_list_vty
   fun:bgp_vty_init
   fun:bgp_init
   fun:main
}
{
   <insert_a_suppression_name_here>
   Memcheck:Leak
   fun:realloc
   fun:zrealloc
   fun:vector_ensure
   fun:vector_set
   fun:cmd_make_descvec
   fun:install_element
   fun:community_list_vty
   fun:bgp_vty_init
   fun:bgp_init
   fun:main
}
{
   <insert_a_suppression_name_here>
   Memcheck:Leak
   fun:calloc
   fun:zcalloc
   fun:vector_init
   fun:cmd_make_descvec
   fun:install_element
   fun:bgp_debug_init
   fun:bgp_init
   fun:main
}
{
   <insert_a_suppression_name_here>
   Memcheck:Leak
   fun:realloc
   fun:zrealloc
   fun:vector_ensure
   fun:vector_set
   fun:cmd_make_descvec
   fun:install_element
   fun:bgp_debug_init
   fun:bgp_init
   fun:main
}
{
   <insert_a_suppression_name_here>
   Memcheck:Leak
   fun:calloc
   fun:zcalloc
   fun:vector_init
   fun:cmd_make_descvec
   fun:install_element
   fun:bgp_dump_init
   fun:bgp_init
   fun:main
}
{
   <insert_a_suppression_name_here>
   Memcheck:Leak
   fun:realloc
   fun:zrealloc
   fun:vector_ensure
   fun:vector_set
   fun:cmd_make_descvec
   fun:install_element
   fun:bgp_route_init
   fun:bgp_init
   fun:main
}
{
   <insert_a_suppression_name_here>
   Memcheck:Leak
   fun:calloc
   fun:zcalloc
   fun:vector_init
   fun:route_map_init
   fun:bgp_route_map_init
   fun:bgp_init
   fun:main
}
{
   <insert_a_suppression_name_here>
   Memcheck:Leak
   fun:calloc
   fun:zcalloc
   fun:vector_init
   fun:install_node
   fun:route_map_init_vty
   fun:bgp_route_map_init
   fun:bgp_init
   fun:main
}
{
   <insert_a_suppression_name_here>
   Memcheck:Leak
   fun:realloc
   fun:zrealloc
   fun:vector_ensure
   fun:vector_set
   fun:cmd_make_descvec
   fun:install_element
   fun:route_map_init_vty
   fun:bgp_route_map_init
   fun:bgp_init
   fun:main
}
{
   <insert_a_suppression_name_here>
   Memcheck:Leak
   fun:calloc
   fun:zcalloc
   fun:cmd_make_descvec
   fun:install_element
   fun:route_map_init_vty
   fun:bgp_route_map_init
   fun:bgp_init
   fun:main
}
{
   <insert_a_suppression_name_here>
   Memcheck:Leak
   fun:calloc
   fun:zcalloc
   fun:vector_init
   fun:cmd_make_descvec
   fun:install_element
   fun:bgp_route_map_init
   fun:bgp_init
   fun:main
}
{
   <insert_a_suppression_name_here>
   Memcheck:Leak
   fun:realloc
   fun:zrealloc
   fun:vector_ensure
   fun:vector_set
   fun:cmd_make_descvec
   fun:install_element
   fun:bgp_route_map_init
   fun:bgp_init
   fun:main
}
{
   <insert_a_suppression_name_here>
   Memcheck:Leak
   fun:calloc
   fun:zcalloc
   fun:vector_init
   fun:cmd_make_descvec
   fun:install_element
   fun:bgp_scan_init
   fun:bgp_init
   fun:main
}
{
   <insert_a_suppression_name_here>
   Memcheck:Leak
   fun:calloc
   fun:zcalloc
   fun:vector_init
   fun:cmd_make_descvec
   fun:install_element
   fun:bgp_mplsvpn_init
   fun:bgp_init
   fun:main
}
{
   <insert_a_suppression_name_here>
   Memcheck:Leak
   fun:calloc
   fun:zcalloc
   fun:vector_init
   fun:cmd_make_descvec
   fun:install_element
   fun:access_list_init_ipv4
   fun:access_list_init
   fun:bgp_init
   fun:main
}
{
   <insert_a_suppression_name_here>
   Memcheck:Leak
   fun:realloc
   fun:zrealloc
   fun:vector_ensure
   fun:vector_set
   fun:cmd_make_descvec
   fun:install_element
   fun:access_list_init_ipv4
   fun:access_list_init
   fun:bgp_init
   fun:main
}
{
   <insert_a_suppression_name_here>
   Memcheck:Leak
   fun:calloc
   fun:zcalloc
   fun:vector_init
   fun:cmd_make_descvec
   fun:install_element
   fun:access_list_init_ipv6
   fun:access_list_init
   fun:bgp_init
   fun:main
}
{
   <insert_a_suppression_name_here>
   Memcheck:Leak
   fun:realloc
   fun:zrealloc
   fun:vector_ensure
   fun:vector_set
   fun:cmd_make_descvec
   fun:install_element
   fun:access_list_init_ipv6
   fun:access_list_init
   fun:bgp_init
   fun:main
}
{
   <insert_a_suppression_name_here>
   Memcheck:Leak
   fun:calloc
   fun:zcalloc
   fun:vector_init
   fun:cmd_make_descvec
   fun:install_element
   fun:bgp_filter_init
   fun:bgp_init
   fun:main
}
{
   <insert_a_suppression_name_here>
   Memcheck:Leak
   fun:realloc
   fun:zrealloc
   fun:vector_ensure
   fun:vector_set
   fun:cmd_make_descvec
   fun:install_element
   fun:bgp_filter_init
   fun:bgp_init
   fun:main
}
{
   <insert_a_suppression_name_here>
   Memcheck:Leak
   fun:calloc
   fun:zcalloc
   fun:vector_init
   fun:cmd_make_descvec
   fun:install_element
   fun:prefix_list_init_ipv4
   fun:prefix_list_init
   fun:bgp_init
   fun:main
}
{
   <insert_a_suppression_name_here>
   Memcheck:Leak
   fun:realloc
   fun:zrealloc
   fun:vector_ensure
   fun:vector_set
   fun:cmd_make_descvec
   fun:install_element
   fun:prefix_list_init_ipv4
   fun:prefix_list_init
   fun:bgp_init
   fun:main
}
{
   <insert_a_suppression_name_here>
   Memcheck:Leak
   fun:calloc
   fun:zcalloc
   fun:vector_init
   fun:cmd_make_descvec
   fun:install_element
   fun:prefix_list_init_ipv6
   fun:prefix_list_init
   fun:bgp_init
   fun:main
}
{
   <insert_a_suppression_name_here>
   Memcheck:Leak
   fun:realloc
   fun:zrealloc
   fun:vector_ensure
   fun:vector_set
   fun:cmd_make_descvec
   fun:install_element
   fun:prefix_list_init_ipv6
   fun:prefix_list_init
   fun:bgp_init
   fun:main
}
{
   <insert_a_suppression_name_here>
   Memcheck:Leak
   fun:malloc
   fun:__nss_lookup_function
   fun:__nss_lookup
   fun:getservbyname_r@@GLIBC_2.2.5
   fun:getservbyname
   fun:getservbyname
   fun:peer_new
   fun:bgp_create
   fun:bgp_get
   fun:router_bgp
   fun:cmd_execute_command_strict
   fun:config_from_file
}
{
   <insert_a_suppression_name_here>
   Memcheck:Leak
   fun:malloc
   fun:_ZN3ns36ObjectC2Ev
   fun:_ZN3ns36UnixFdC2Ev
   fun:_ZN3ns313LocalSocketFdC2Ev
   fun:_ZN3ns319LocalStreamSocketFdC1ENS_3PtrINS_20LocalSocketFdFactoryEEE
   fun:_ZN3ns320LocalSocketFdFactory12CreateSocketEiii
   fun:dce_socket
   fun:socket
   fun:zclient_socket_un
   fun:zclient_start
   fun:zclient_connect
   fun:thread_call
}
{
   <insert_a_suppression_name_here>
   Memcheck:Leak
   fun:malloc
   fun:_ZN3ns36ObjectC2Ev
   fun:_ZN3ns36UnixFdC2Ev
   fun:_ZN3ns313LocalSocketFdC2Ev
   fun:_ZN3ns319LocalStreamSocketFdC1ENS_3PtrINS_20LocalSocketFdFactoryEEE
   fun:_ZN3ns320LocalSocketFdFactory12CreateSocketEiii
   fun:dce_socket
   fun:socket
   fun:zclient_socket_un
   fun:zlookup_connect
   fun:thread_call
   fun:main
}
{
   <insert_a_suppression_name_here>
   Memcheck:Leak
   fun:malloc
   fun:_ZN3ns36ObjectC2Ev
   fun:_ZN3ns36UnixFdC2Ev
   fun:_ZN3ns313LinuxSocketFdC1ENS_3PtrINS_20LinuxSocketFdFactoryEEEP9SimSocket
   fun:_ZN3ns320LinuxSocketFdFactory12CreateSocketEiii
   fun:dce_socket
   fun:socket
   fun:sockunion_socket
   fun:bgp_connect
   fun:bgp_start
   fun:bgp_event
   fun:bgp_start_timer
}
{
   <insert_a_suppression_name_here>
   Memcheck:Leak
   fun:malloc
   fun:_ZN3ns36ObjectC2Ev
   fun:_ZN3ns36UnixFdC2Ev
   fun:_ZN3ns313LinuxSocketFdC1ENS_3PtrINS_20LinuxSocketFdFactoryEEEP9SimSocket
   fun:_ZN3ns320LinuxSocketFdFactory6AcceptEP9SimSocketP8sockaddrPj
   fun:_ZN3ns313LinuxSocketFd6AcceptEP8sockaddrPj
   fun:dce_accept
   fun:accept
   fun:sockunion_accept
   fun:bgp_accept
   fun:thread_call
   fun:main
}
{
   <insert_a_suppression_name_here>
   Memcheck:Leak
   fun:malloc
   fun:zmalloc
   fun:cmd_make_descvec
   fun:install_element
   fun:zebra_debug_init
   fun:main
}
{
   <insert_a_suppression_name_here>
   Memcheck:Leak
   fun:malloc
   fun:zmalloc
   fun:cmd_make_descvec
   fun:install_element
   fun:bgp_scan_init
   fun:bgp_init
   fun:main
}
{
   <insert_a_suppression_name_here>
   Memcheck:Leak
   fun:malloc
   fun:zmalloc
   fun:cmd_make_descvec
   fun:install_element
   fun:bgp_dump_init
   fun:bgp_init
   fun:main
}
{
   <insert_a_suppression_name_here>
   Memcheck:Leak
   fun:malloc
   fun:zmalloc
   fun:cmd_desc_str
   fun:cmd_make_descvec
   fun:install_element
   fun:cmd_init
   fun:main
}
{
   <insert_a_suppression_name_here>
   Memcheck:Leak
   fun:malloc
   fun:zmalloc
   fun:cmd_make_descvec
   fun:install_element
   fun:prefix_list_init_ipv4
   fun:prefix_list_init
   fun:main
}
{
   <insert_a_suppression_name_here>
   Memcheck:Leak
   fun:malloc
   fun:zmalloc
   fun:cmd_make_descvec
   fun:install_element
   fun:access_list_init_ipv4
   fun:access_list_init
   fun:main
}
{
   <insert_a_suppression_name_here>
   Memcheck:Leak
   fun:malloc
   fun:zmalloc
   fun:cmd_make_descvec
   fun:install_element
   fun:rtadv_init
   fun:main
}
{
   <insert_a_suppression_name_here>
   Memcheck:Leak
   fun:malloc
   fun:zmalloc
   fun:cmd_desc_str
   fun:cmd_make_descvec
   fun:install_element
   fun:vty_init
   fun:main
}
{
   <insert_a_suppression_name_here>
   Memcheck:Leak
   fun:malloc
   fun:zmalloc
   fun:cmd_make_descvec
   fun:install_element
   fun:access_list_init_ipv6
   fun:access_list_init
   fun:main
}
{
   <insert_a_suppression_name_here>
   Memcheck:Leak
   fun:malloc
   fun:zmalloc
   fun:cmd_make_descvec
   fun:install_element
   fun:prefix_list_init_ipv6
   fun:prefix_list_init
   fun:main
}
{
   <insert_a_suppression_name_here>
   Memcheck:Leak
   fun:malloc
   fun:zmalloc
   fun:cmd_make_descvec
   fun:install_element
   fun:bgp_mplsvpn_init
   fun:bgp_init
   fun:main
}
{
   <insert_a_suppression_name_here>
   Memcheck:Leak
   fun:_Znwm
   fun:_ZN3ns325DoMakeTraceSourceAccessorINS_15SimpleNetDeviceENS_14TracedCallbackINS_3PtrIKNS_6PacketEEENS_5emptyES7_S7_S7_S7_S7_S7_EEEENS3_IKNS_19TraceSourceAccessorEEEMT_T0_
   fun:_ZN3ns323MakeTraceSourceAccessorIMNS_15SimpleNetDeviceENS_14TracedCallbackINS_3PtrIKNS_6PacketEEENS_5emptyES7_S7_S7_S7_S7_S7_EEEENS3_IKNS_19TraceSourceAccessorEEET_
   fun:_ZN3ns315SimpleNetDevice9GetTypeIdEv
   fun:_ZN3ns333XSimpleNetDeviceRegistrationClassC1Ev
   fun:_Z41__static_initialization_and_destruction_0ii
   fun:_GLOBAL__I_simple_net_device.cc
   obj:/home/tazaki/hgworks/ns-3-dce-thehajime/build/lib/libns3-dev-network-debug.so
   obj:/home/tazaki/hgworks/ns-3-dce-thehajime/build/lib/libns3-dev-network-debug.so
   fun:vdl_list_iterate
   fun:vdl_init_call
   fun:dlopen_with_context
}
{
   <insert_a_suppression_name_here>
   Memcheck:Leak
   fun:_Znwm
   fun:_ZN3ns323DoMakeAccessorHelperOneINS_12PointerValueENS_15SimpleNetDeviceENS_3PtrINS_10ErrorModelEEEEENS3_IKNS_17AttributeAccessorEEEMT0_T1_
   fun:_ZN3ns318MakeAccessorHelperINS_12PointerValueEMNS_15SimpleNetDeviceENS_3PtrINS_10ErrorModelEEEEENS3_IKNS_17AttributeAccessorEEET0_
   fun:_ZN3ns319MakePointerAccessorIMNS_15SimpleNetDeviceENS_3PtrINS_10ErrorModelEEEEENS2_IKNS_17AttributeAccessorEEET_
   fun:_ZN3ns315SimpleNetDevice9GetTypeIdEv
   fun:_ZN3ns333XSimpleNetDeviceRegistrationClassC1Ev
   fun:_Z41__static_initialization_and_destruction_0ii
   fun:_GLOBAL__I_simple_net_device.cc
   obj:/home/tazaki/hgworks/ns-3-dce-thehajime/build/lib/libns3-dev-network-debug.so
   obj:/home/tazaki/hgworks/ns-3-dce-thehajime/build/lib/libns3-dev-network-debug.so
   fun:vdl_list_iterate
   fun:vdl_init_call
}
{
   <insert_a_suppression_name_here>
   Memcheck:Leak
   fun:_Znwm
   fun:_ZN3ns323DoMakeAccessorHelperOneINS_9TimeValueENS_8RedQueueENS_4TimeEEENS_3PtrIKNS_17AttributeAccessorEEEMT0_T1_
   fun:_ZN3ns318MakeAccessorHelperINS_9TimeValueEMNS_8RedQueueENS_4TimeEEENS_3PtrIKNS_17AttributeAccessorEEET0_
   fun:_ZN3ns316MakeTimeAccessorIMNS_8RedQueueENS_4TimeEEENS_3PtrIKNS_17AttributeAccessorEEET_
   fun:_ZN3ns38RedQueue9GetTypeIdEv
   fun:_ZN3ns326XRedQueueRegistrationClassC1Ev
   fun:_Z41__static_initialization_and_destruction_0ii
   fun:_GLOBAL__I_red_queue.cc
   obj:/home/tazaki/hgworks/ns-3-dce-thehajime/build/lib/libns3-dev-network-debug.so
   obj:/home/tazaki/hgworks/ns-3-dce-thehajime/build/lib/libns3-dev-network-debug.so
   fun:vdl_list_iterate
   fun:vdl_init_call
}
{
   <insert_a_suppression_name_here>
   Memcheck:Leak
   fun:_Znwm
   fun:_ZN3ns323DoMakeAccessorHelperOneINS_13DataRateValueENS_8RedQueueENS_8DataRateEEENS_3PtrIKNS_17AttributeAccessorEEEMT0_T1_
   fun:_ZN3ns318MakeAccessorHelperINS_13DataRateValueEMNS_8RedQueueENS_8DataRateEEENS_3PtrIKNS_17AttributeAccessorEEET0_
   fun:_ZN3ns320MakeDataRateAccessorIMNS_8RedQueueENS_8DataRateEEENS_3PtrIKNS_17AttributeAccessorEEET_
   fun:_ZN3ns38RedQueue9GetTypeIdEv
   fun:_ZN3ns326XRedQueueRegistrationClassC1Ev
   fun:_Z41__static_initialization_and_destruction_0ii
   fun:_GLOBAL__I_red_queue.cc
   obj:/home/tazaki/hgworks/ns-3-dce-thehajime/build/lib/libns3-dev-network-debug.so
   obj:/home/tazaki/hgworks/ns-3-dce-thehajime/build/lib/libns3-dev-network-debug.so
   fun:vdl_list_iterate
   fun:vdl_init_call
}
{
   <insert_a_suppression_name_here>
   Memcheck:Leak
   fun:_Znwm
   fun:_ZN3ns36CreateINS_19FunctorCallbackImplIPFPNS_10ObjectBaseEvES3_NS_5emptyES6_S6_S6_S6_S6_S6_S6_S6_EES5_EENS_3PtrIT_EET0_
   fun:_ZN3ns38CallbackIPNS_10ObjectBaseENS_5emptyES3_S3_S3_S3_S3_S3_S3_S3_EC1IPFS2_vEEERKT_bb
   fun:_ZN3ns312MakeCallbackIPNS_10ObjectBaseEEENS_8CallbackIT_NS_5emptyES5_S5_S5_S5_S5_S5_S5_S5_EEPFS4_vE
   fun:_ZN3ns36TypeId14AddConstructorINS_15SimpleNetDeviceEEES0_v
   fun:_ZN3ns315SimpleNetDevice9GetTypeIdEv
   fun:_ZN3ns333XSimpleNetDeviceRegistrationClassC1Ev
   fun:_Z41__static_initialization_and_destruction_0ii
   fun:_GLOBAL__I_simple_net_device.cc
   obj:/home/tazaki/hgworks/ns-3-dce-thehajime/build/lib/libns3-dev-network-debug.so
   obj:/home/tazaki/hgworks/ns-3-dce-thehajime/build/lib/libns3-dev-network-debug.so
   fun:vdl_list_iterate
}
{
   <insert_a_suppression_name_here>
   Memcheck:Leak
   fun:_Znwm
   fun:_ZN3ns36CreateINS_12PointerValueES1_EENS_3PtrIT_EET0_
   fun:_ZNK3ns312PointerValue4CopyEv
   fun:_ZN3ns36TypeId12AddAttributeESsSsRKNS_14AttributeValueENS_3PtrIKNS_17AttributeAccessorEEENS4_IKNS_16AttributeCheckerEEE
   fun:_ZN3ns315SimpleNetDevice9GetTypeIdEv
   fun:_ZN3ns333XSimpleNetDeviceRegistrationClassC1Ev
   fun:_Z41__static_initialization_and_destruction_0ii
   fun:_GLOBAL__I_simple_net_device.cc
   obj:/home/tazaki/hgworks/ns-3-dce-thehajime/build/lib/libns3-dev-network-debug.so
   obj:/home/tazaki/hgworks/ns-3-dce-thehajime/build/lib/libns3-dev-network-debug.so
   fun:vdl_list_iterate
   fun:vdl_init_call
}
{
   <insert_a_suppression_name_here>
   Memcheck:Leak
   fun:_Znwm
   fun:_ZN3ns323DoMakeAccessorHelperOneINS_13UintegerValueENS_7ChannelEjEENS_3PtrIKNS_17AttributeAccessorEEEMT0_T1_
   fun:_ZN3ns318MakeAccessorHelperINS_13UintegerValueEMNS_7ChannelEjEENS_3PtrIKNS_17AttributeAccessorEEET0_
   fun:_ZN3ns320MakeUintegerAccessorIMNS_7ChannelEjEENS_3PtrIKNS_17AttributeAccessorEEET_
   fun:_ZN3ns37Channel9GetTypeIdEv
   fun:_ZN3ns36TypeId9SetParentINS_7ChannelEEES0_v
   fun:_ZN3ns313SimpleChannel9GetTypeIdEv
   fun:_ZN3ns331XSimpleChannelRegistrationClassC1Ev
   fun:_Z41__static_initialization_and_destruction_0ii
   fun:_GLOBAL__I_simple_channel.cc
   obj:/home/tazaki/hgworks/ns-3-dce-thehajime/build/lib/libns3-dev-network-debug.so
   obj:/home/tazaki/hgworks/ns-3-dce-thehajime/build/lib/libns3-dev-network-debug.so
}
{
   <insert_a_suppression_name_here>
   Memcheck:Leak
   fun:_Znwm
   fun:_ZN3ns36CreateINS_13UintegerValueES1_EENS_3PtrIT_EET0_
   fun:_ZNK3ns313UintegerValue4CopyEv
   fun:_ZN3ns36TypeId12AddAttributeESsSsjRKNS_14AttributeValueENS_3PtrIKNS_17AttributeAccessorEEENS4_IKNS_16AttributeCheckerEEE
   fun:_ZN3ns37Channel9GetTypeIdEv
   fun:_ZN3ns36TypeId9SetParentINS_7ChannelEEES0_v
   fun:_ZN3ns313SimpleChannel9GetTypeIdEv
   fun:_ZN3ns331XSimpleChannelRegistrationClassC1Ev
   fun:_Z41__static_initialization_and_destruction_0ii
   fun:_GLOBAL__I_simple_channel.cc
   obj:/home/tazaki/hgworks/ns-3-dce-thehajime/build/lib/libns3-dev-network-debug.so
   obj:/home/tazaki/hgworks/ns-3-dce-thehajime/build/lib/libns3-dev-network-debug.so
}
{
   <insert_a_suppression_name_here>
   Memcheck:Leak
   fun:_Znwm
   fun:_ZN3ns36CreateINS_19FunctorCallbackImplIPFPNS_10ObjectBaseEvES3_NS_5emptyES6_S6_S6_S6_S6_S6_S6_S6_EES5_EENS_3PtrIT_EET0_
   fun:_ZN3ns38CallbackIPNS_10ObjectBaseENS_5emptyES3_S3_S3_S3_S3_S3_S3_S3_EC1IPFS2_vEEERKT_bb
   fun:_ZN3ns312MakeCallbackIPNS_10ObjectBaseEEENS_8CallbackIT_NS_5emptyES5_S5_S5_S5_S5_S5_S5_S5_EEPFS4_vE
   fun:_ZN3ns36TypeId14AddConstructorINS_13SimpleChannelEEES0_v
   fun:_ZN3ns313SimpleChannel9GetTypeIdEv
   fun:_ZN3ns331XSimpleChannelRegistrationClassC1Ev
   fun:_Z41__static_initialization_and_destruction_0ii
   fun:_GLOBAL__I_simple_channel.cc
   obj:/home/tazaki/hgworks/ns-3-dce-thehajime/build/lib/libns3-dev-network-debug.so
   obj:/home/tazaki/hgworks/ns-3-dce-thehajime/build/lib/libns3-dev-network-debug.so
   fun:vdl_list_iterate
}
{
   <insert_a_suppression_name_here>
   Memcheck:Leak
   fun:_Znwm
   fun:_ZN3ns324MakeObjectVectorAccessorINS_12NodeListPrivESt6vectorINS_3PtrINS_4NodeEEESaIS5_EEEENS3_IKNS_17AttributeAccessorEEEMT_T0_
   fun:_ZN3ns312NodeListPriv9GetTypeIdEv
   fun:_ZN3ns330XNodeListPrivRegistrationClassC1Ev
   fun:_Z41__static_initialization_and_destruction_0ii
   fun:_GLOBAL__I_node_list.cc
   obj:/home/tazaki/hgworks/ns-3-dce-thehajime/build/lib/libns3-dev-network-debug.so
   obj:/home/tazaki/hgworks/ns-3-dce-thehajime/build/lib/libns3-dev-network-debug.so
   fun:vdl_list_iterate
   fun:vdl_init_call
   fun:dlopen_with_context
   fun:vdl_dlmopen
}
{
   <insert_a_suppression_name_here>
   Memcheck:Leak
   fun:_Znwm
   fun:_ZN3ns323DoMakeAccessorHelperOneINS_13UintegerValueENS_4NodeEjEENS_3PtrIKNS_17AttributeAccessorEEEMT0_T1_
   fun:_ZN3ns318MakeAccessorHelperINS_13UintegerValueEMNS_4NodeEjEENS_3PtrIKNS_17AttributeAccessorEEET0_
   fun:_ZN3ns320MakeUintegerAccessorIMNS_4NodeEjEENS_3PtrIKNS_17AttributeAccessorEEET_
   fun:_ZN3ns34Node9GetTypeIdEv
   fun:_ZN3ns322XNodeRegistrationClassC1Ev
   fun:_Z41__static_initialization_and_destruction_0ii
   fun:_GLOBAL__I_node.cc
   obj:/home/tazaki/hgworks/ns-3-dce-thehajime/build/lib/libns3-dev-network-debug.so
   obj:/home/tazaki/hgworks/ns-3-dce-thehajime/build/lib/libns3-dev-network-debug.so
   fun:vdl_list_iterate
   fun:vdl_init_call
}
{
   <insert_a_suppression_name_here>
   Memcheck:Leak
   fun:_Znwm
   fun:_ZN3ns324MakeObjectVectorAccessorINS_4NodeESt6vectorINS_3PtrINS_11ApplicationEEESaIS5_EEEENS3_IKNS_17AttributeAccessorEEEMT_T0_
   fun:_ZN3ns34Node9GetTypeIdEv
   fun:_ZN3ns322XNodeRegistrationClassC1Ev
   fun:_Z41__static_initialization_and_destruction_0ii
   fun:_GLOBAL__I_node.cc
   obj:/home/tazaki/hgworks/ns-3-dce-thehajime/build/lib/libns3-dev-network-debug.so
   obj:/home/tazaki/hgworks/ns-3-dce-thehajime/build/lib/libns3-dev-network-debug.so
   fun:vdl_list_iterate
   fun:vdl_init_call
   fun:dlopen_with_context
   fun:vdl_dlmopen
}
{
   <insert_a_suppression_name_here>
   Memcheck:Leak
   fun:_Znwm
   fun:_ZN3ns324MakeObjectVectorAccessorINS_4NodeESt6vectorINS_3PtrINS_9NetDeviceEEESaIS5_EEEENS3_IKNS_17AttributeAccessorEEEMT_T0_
   fun:_ZN3ns34Node9GetTypeIdEv
   fun:_ZN3ns322XNodeRegistrationClassC1Ev
   fun:_Z41__static_initialization_and_destruction_0ii
   fun:_GLOBAL__I_node.cc
   obj:/home/tazaki/hgworks/ns-3-dce-thehajime/build/lib/libns3-dev-network-debug.so
   obj:/home/tazaki/hgworks/ns-3-dce-thehajime/build/lib/libns3-dev-network-debug.so
   fun:vdl_list_iterate
   fun:vdl_init_call
   fun:dlopen_with_context
   fun:vdl_dlmopen
}
{
   <insert_a_suppression_name_here>
   Memcheck:Leak
   fun:_Znwm
   fun:_ZN3ns36CreateINS_19FunctorCallbackImplIPFPNS_10ObjectBaseEvES3_NS_5emptyES6_S6_S6_S6_S6_S6_S6_S6_EES5_EENS_3PtrIT_EET0_
   fun:_ZN3ns38CallbackIPNS_10ObjectBaseENS_5emptyES3_S3_S3_S3_S3_S3_S3_S3_EC1IPFS2_vEEERKT_bb
   fun:_ZN3ns312MakeCallbackIPNS_10ObjectBaseEEENS_8CallbackIT_NS_5emptyES5_S5_S5_S5_S5_S5_S5_S5_EEPFS4_vE
   fun:_ZN3ns36TypeId14AddConstructorINS_4NodeEEES0_v
   fun:_ZN3ns34Node9GetTypeIdEv
   fun:_ZN3ns322XNodeRegistrationClassC1Ev
   fun:_Z41__static_initialization_and_destruction_0ii
   fun:_GLOBAL__I_node.cc
   obj:/home/tazaki/hgworks/ns-3-dce-thehajime/build/lib/libns3-dev-network-debug.so
   obj:/home/tazaki/hgworks/ns-3-dce-thehajime/build/lib/libns3-dev-network-debug.so
   fun:vdl_list_iterate
}
{
   <insert_a_suppression_name_here>
   Memcheck:Leak
   fun:_Znwm
   fun:_ZN3ns36CreateINS_13UintegerValueES1_EENS_3PtrIT_EET0_
   fun:_ZNK3ns313UintegerValue4CopyEv
   fun:_ZN3ns36TypeId12AddAttributeESsSsjRKNS_14AttributeValueENS_3PtrIKNS_17AttributeAccessorEEENS4_IKNS_16AttributeCheckerEEE
   fun:_ZN3ns34Node9GetTypeIdEv
   fun:_ZN3ns322XNodeRegistrationClassC1Ev
   fun:_Z41__static_initialization_and_destruction_0ii
   fun:_GLOBAL__I_node.cc
   obj:/home/tazaki/hgworks/ns-3-dce-thehajime/build/lib/libns3-dev-network-debug.so
   obj:/home/tazaki/hgworks/ns-3-dce-thehajime/build/lib/libns3-dev-network-debug.so
   fun:vdl_list_iterate
   fun:vdl_init_call
}
{
   <insert_a_suppression_name_here>
   Memcheck:Leak
   fun:_Znwm
   fun:_ZN3ns324MakeObjectVectorAccessorINS_15ChannelListPrivESt6vectorINS_3PtrINS_7ChannelEEESaIS5_EEEENS3_IKNS_17AttributeAccessorEEEMT_T0_
   fun:_ZN3ns315ChannelListPriv9GetTypeIdEv
   fun:_ZN3ns333XChannelListPrivRegistrationClassC1Ev
   fun:_Z41__static_initialization_and_destruction_0ii
   fun:_GLOBAL__I_channel_list.cc
   obj:/home/tazaki/hgworks/ns-3-dce-thehajime/build/lib/libns3-dev-network-debug.so
   obj:/home/tazaki/hgworks/ns-3-dce-thehajime/build/lib/libns3-dev-network-debug.so
   fun:vdl_list_iterate
   fun:vdl_init_call
   fun:dlopen_with_context
   fun:vdl_dlmopen
}
{
   <insert_a_suppression_name_here>
   Memcheck:Leak
   fun:_Znwm
   fun:_ZN3ns323DoMakeAccessorHelperOneINS_12BooleanValueENS_8RedQueueEbEENS_3PtrIKNS_17AttributeAccessorEEEMT0_T1_
   fun:_ZN3ns318MakeAccessorHelperINS_12BooleanValueEMNS_8RedQueueEbEENS_3PtrIKNS_17AttributeAccessorEEET0_
   fun:_ZN3ns319MakeBooleanAccessorIMNS_8RedQueueEbEENS_3PtrIKNS_17AttributeAccessorEEET_
   fun:_ZN3ns38RedQueue9GetTypeIdEv
   fun:_ZN3ns326XRedQueueRegistrationClassC1Ev
   fun:_Z41__static_initialization_and_destruction_0ii
   fun:_GLOBAL__I_red_queue.cc
   obj:/home/tazaki/hgworks/ns-3-dce-thehajime/build/lib/libns3-dev-network-debug.so
   obj:/home/tazaki/hgworks/ns-3-dce-thehajime/build/lib/libns3-dev-network-debug.so
   fun:vdl_list_iterate
   fun:vdl_init_call
}
{
   <insert_a_suppression_name_here>
   Memcheck:Leak
   fun:_Znwm
   fun:_ZN3ns323DoMakeAccessorHelperOneINS_11DoubleValueENS_8RedQueueEdEENS_3PtrIKNS_17AttributeAccessorEEEMT0_T1_
   fun:_ZN3ns318MakeAccessorHelperINS_11DoubleValueEMNS_8RedQueueEdEENS_3PtrIKNS_17AttributeAccessorEEET0_
   fun:_ZN3ns318MakeDoubleAccessorIMNS_8RedQueueEdEENS_3PtrIKNS_17AttributeAccessorEEET_
   fun:_ZN3ns38RedQueue9GetTypeIdEv
   fun:_ZN3ns326XRedQueueRegistrationClassC1Ev
   fun:_Z41__static_initialization_and_destruction_0ii
   fun:_GLOBAL__I_red_queue.cc
   obj:/home/tazaki/hgworks/ns-3-dce-thehajime/build/lib/libns3-dev-network-debug.so
   obj:/home/tazaki/hgworks/ns-3-dce-thehajime/build/lib/libns3-dev-network-debug.so
   fun:vdl_list_iterate
   fun:vdl_init_call
}
{
   <insert_a_suppression_name_here>
   Memcheck:Leak
   fun:_Znwm
   fun:_ZN3ns323DoMakeAccessorHelperOneINS_13UintegerValueENS_8RedQueueEjEENS_3PtrIKNS_17AttributeAccessorEEEMT0_T1_
   fun:_ZN3ns318MakeAccessorHelperINS_13UintegerValueEMNS_8RedQueueEjEENS_3PtrIKNS_17AttributeAccessorEEET0_
   fun:_ZN3ns320MakeUintegerAccessorIMNS_8RedQueueEjEENS_3PtrIKNS_17AttributeAccessorEEET_
   fun:_ZN3ns38RedQueue9GetTypeIdEv
   fun:_ZN3ns326XRedQueueRegistrationClassC1Ev
   fun:_Z41__static_initialization_and_destruction_0ii
   fun:_GLOBAL__I_red_queue.cc
   obj:/home/tazaki/hgworks/ns-3-dce-thehajime/build/lib/libns3-dev-network-debug.so
   obj:/home/tazaki/hgworks/ns-3-dce-thehajime/build/lib/libns3-dev-network-debug.so
   fun:vdl_list_iterate
   fun:vdl_init_call
}
{
   <insert_a_suppression_name_here>
   Memcheck:Leak
   fun:_Znwm
   fun:_ZN3ns325DoMakeTraceSourceAccessorINS_5QueueENS_14TracedCallbackINS_3PtrIKNS_6PacketEEENS_5emptyES7_S7_S7_S7_S7_S7_EEEENS3_IKNS_19TraceSourceAccessorEEEMT_T0_
   fun:_ZN3ns323MakeTraceSourceAccessorIMNS_5QueueENS_14TracedCallbackINS_3PtrIKNS_6PacketEEENS_5emptyES7_S7_S7_S7_S7_S7_EEEENS3_IKNS_19TraceSourceAccessorEEET_
   fun:_ZN3ns35Queue9GetTypeIdEv
   fun:_ZN3ns36TypeId9SetParentINS_5QueueEEES0_v
   fun:_ZN3ns38RedQueue9GetTypeIdEv
   fun:_ZN3ns326XRedQueueRegistrationClassC1Ev
   fun:_Z41__static_initialization_and_destruction_0ii
   fun:_GLOBAL__I_red_queue.cc
   obj:/home/tazaki/hgworks/ns-3-dce-thehajime/build/lib/libns3-dev-network-debug.so
   obj:/home/tazaki/hgworks/ns-3-dce-thehajime/build/lib/libns3-dev-network-debug.so
   fun:vdl_list_iterate
}
{
   <insert_a_suppression_name_here>
   Memcheck:Leak
   fun:_Znwm
   fun:_ZN3ns36CreateINS_19FunctorCallbackImplIPFPNS_10ObjectBaseEvES3_NS_5emptyES6_S6_S6_S6_S6_S6_S6_S6_EES5_EENS_3PtrIT_EET0_
   fun:_ZN3ns38CallbackIPNS_10ObjectBaseENS_5emptyES3_S3_S3_S3_S3_S3_S3_S3_EC1IPFS2_vEEERKT_bb
   fun:_ZN3ns312MakeCallbackIPNS_10ObjectBaseEEENS_8CallbackIT_NS_5emptyES5_S5_S5_S5_S5_S5_S5_S5_EEPFS4_vE
   fun:_ZN3ns36TypeId14AddConstructorINS_8RedQueueEEES0_v
   fun:_ZN3ns38RedQueue9GetTypeIdEv
   fun:_ZN3ns326XRedQueueRegistrationClassC1Ev
   fun:_Z41__static_initialization_and_destruction_0ii
   fun:_GLOBAL__I_red_queue.cc
   obj:/home/tazaki/hgworks/ns-3-dce-thehajime/build/lib/libns3-dev-network-debug.so
   obj:/home/tazaki/hgworks/ns-3-dce-thehajime/build/lib/libns3-dev-network-debug.so
   fun:vdl_list_iterate
}
{
   <insert_a_suppression_name_here>
   Memcheck:Leak
   fun:_Znwm
   fun:_ZN3ns36CreateINS_13UintegerValueES1_EENS_3PtrIT_EET0_
   fun:_ZNK3ns313UintegerValue4CopyEv
   fun:_ZN3ns36TypeId12AddAttributeESsSsRKNS_14AttributeValueENS_3PtrIKNS_17AttributeAccessorEEENS4_IKNS_16AttributeCheckerEEE
   fun:_ZN3ns38RedQueue9GetTypeIdEv
   fun:_ZN3ns326XRedQueueRegistrationClassC1Ev
   fun:_Z41__static_initialization_and_destruction_0ii
   fun:_GLOBAL__I_red_queue.cc
   obj:/home/tazaki/hgworks/ns-3-dce-thehajime/build/lib/libns3-dev-network-debug.so
   obj:/home/tazaki/hgworks/ns-3-dce-thehajime/build/lib/libns3-dev-network-debug.so
   fun:vdl_list_iterate
   fun:vdl_init_call
}
{
   <insert_a_suppression_name_here>
   Memcheck:Leak
   fun:_Znwm
   fun:_ZN3ns36CreateINS_11DoubleValueES1_EENS_3PtrIT_EET0_
   fun:_ZNK3ns311DoubleValue4CopyEv
   fun:_ZN3ns36TypeId12AddAttributeESsSsRKNS_14AttributeValueENS_3PtrIKNS_17AttributeAccessorEEENS4_IKNS_16AttributeCheckerEEE
   fun:_ZN3ns38RedQueue9GetTypeIdEv
   fun:_ZN3ns326XRedQueueRegistrationClassC1Ev
   fun:_Z41__static_initialization_and_destruction_0ii
   fun:_GLOBAL__I_red_queue.cc
   obj:/home/tazaki/hgworks/ns-3-dce-thehajime/build/lib/libns3-dev-network-debug.so
   obj:/home/tazaki/hgworks/ns-3-dce-thehajime/build/lib/libns3-dev-network-debug.so
   fun:vdl_list_iterate
   fun:vdl_init_call
}
{
   <insert_a_suppression_name_here>
   Memcheck:Leak
   fun:_Znwm
   fun:_ZN3ns36CreateINS_13DataRateValueES1_EENS_3PtrIT_EET0_
   fun:_ZNK3ns313DataRateValue4CopyEv
   fun:_ZN3ns36TypeId12AddAttributeESsSsRKNS_14AttributeValueENS_3PtrIKNS_17AttributeAccessorEEENS4_IKNS_16AttributeCheckerEEE
   fun:_ZN3ns38RedQueue9GetTypeIdEv
   fun:_ZN3ns326XRedQueueRegistrationClassC1Ev
   fun:_Z41__static_initialization_and_destruction_0ii
   fun:_GLOBAL__I_red_queue.cc
   obj:/home/tazaki/hgworks/ns-3-dce-thehajime/build/lib/libns3-dev-network-debug.so
   obj:/home/tazaki/hgworks/ns-3-dce-thehajime/build/lib/libns3-dev-network-debug.so
   fun:vdl_list_iterate
   fun:vdl_init_call
}
{
   <insert_a_suppression_name_here>
   Memcheck:Leak
   fun:_Znwm
   fun:_ZN3ns36CreateINS_9TimeValueES1_EENS_3PtrIT_EET0_
   fun:_ZNK3ns39TimeValue4CopyEv
   fun:_ZN3ns36TypeId12AddAttributeESsSsRKNS_14AttributeValueENS_3PtrIKNS_17AttributeAccessorEEENS4_IKNS_16AttributeCheckerEEE
   fun:_ZN3ns38RedQueue9GetTypeIdEv
   fun:_ZN3ns326XRedQueueRegistrationClassC1Ev
   fun:_Z41__static_initialization_and_destruction_0ii
   fun:_GLOBAL__I_red_queue.cc
   obj:/home/tazaki/hgworks/ns-3-dce-thehajime/build/lib/libns3-dev-network-debug.so
   obj:/home/tazaki/hgworks/ns-3-dce-thehajime/build/lib/libns3-dev-network-debug.so
   fun:vdl_list_iterate
   fun:vdl_init_call
}
{
   <insert_a_suppression_name_here>
   Memcheck:Leak
   fun:_Znwm
   fun:_ZN3ns36CreateINS_19FunctorCallbackImplIPFPNS_10ObjectBaseEvES3_NS_5emptyES6_S6_S6_S6_S6_S6_S6_S6_EES5_EENS_3PtrIT_EET0_
   fun:_ZN3ns38CallbackIPNS_10ObjectBaseENS_5emptyES3_S3_S3_S3_S3_S3_S3_S3_EC1IPFS2_vEEERKT_bb
   fun:_ZN3ns312MakeCallbackIPNS_10ObjectBaseEEENS_8CallbackIT_NS_5emptyES5_S5_S5_S5_S5_S5_S5_S5_EEPFS4_vE
   fun:_ZN3ns36TypeId14AddConstructorINS_14RadiotapHeaderEEES0_v
   fun:_ZN3ns314RadiotapHeader9GetTypeIdEv
   fun:_ZN3ns332XRadiotapHeaderRegistrationClassC1Ev
   fun:_Z41__static_initialization_and_destruction_0ii
   fun:_GLOBAL__I_radiotap_header.cc
   obj:/home/tazaki/hgworks/ns-3-dce-thehajime/build/lib/libns3-dev-network-debug.so
   obj:/home/tazaki/hgworks/ns-3-dce-thehajime/build/lib/libns3-dev-network-debug.so
   fun:vdl_list_iterate
}
{
   <insert_a_suppression_name_here>
   Memcheck:Leak
   fun:_Znwm
   fun:_ZN3ns323DoMakeAccessorHelperOneINS_13UintegerValueENS_15PcapFileWrapperEjEENS_3PtrIKNS_17AttributeAccessorEEEMT0_T1_
   fun:_ZN3ns318MakeAccessorHelperINS_13UintegerValueEMNS_15PcapFileWrapperEjEENS_3PtrIKNS_17AttributeAccessorEEET0_
   fun:_ZN3ns320MakeUintegerAccessorIMNS_15PcapFileWrapperEjEENS_3PtrIKNS_17AttributeAccessorEEET_
   fun:_ZN3ns315PcapFileWrapper9GetTypeIdEv
   fun:_ZN3ns333XPcapFileWrapperRegistrationClassC1Ev
   fun:_Z41__static_initialization_and_destruction_0ii
   fun:_GLOBAL__I_pcap_file_wrapper.cc
   obj:/home/tazaki/hgworks/ns-3-dce-thehajime/build/lib/libns3-dev-network-debug.so
   obj:/home/tazaki/hgworks/ns-3-dce-thehajime/build/lib/libns3-dev-network-debug.so
   fun:vdl_list_iterate
   fun:vdl_init_call
}
{
   <insert_a_suppression_name_here>
   Memcheck:Leak
   fun:_Znwm
   fun:_ZN3ns36CreateINS_19FunctorCallbackImplIPFPNS_10ObjectBaseEvES3_NS_5emptyES6_S6_S6_S6_S6_S6_S6_S6_EES5_EENS_3PtrIT_EET0_
   fun:_ZN3ns38CallbackIPNS_10ObjectBaseENS_5emptyES3_S3_S3_S3_S3_S3_S3_S3_EC1IPFS2_vEEERKT_bb
   fun:_ZN3ns312MakeCallbackIPNS_10ObjectBaseEEENS_8CallbackIT_NS_5emptyES5_S5_S5_S5_S5_S5_S5_S5_EEPFS4_vE
   fun:_ZN3ns36TypeId14AddConstructorINS_15PcapFileWrapperEEES0_v
   fun:_ZN3ns315PcapFileWrapper9GetTypeIdEv
   fun:_ZN3ns333XPcapFileWrapperRegistrationClassC1Ev
   fun:_Z41__static_initialization_and_destruction_0ii
   fun:_GLOBAL__I_pcap_file_wrapper.cc
   obj:/home/tazaki/hgworks/ns-3-dce-thehajime/build/lib/libns3-dev-network-debug.so
   obj:/home/tazaki/hgworks/ns-3-dce-thehajime/build/lib/libns3-dev-network-debug.so
   fun:vdl_list_iterate
}
{
   <insert_a_suppression_name_here>
   Memcheck:Leak
   fun:_Znwm
   fun:_ZN3ns36CreateINS_13UintegerValueES1_EENS_3PtrIT_EET0_
   fun:_ZNK3ns313UintegerValue4CopyEv
   fun:_ZN3ns36TypeId12AddAttributeESsSsRKNS_14AttributeValueENS_3PtrIKNS_17AttributeAccessorEEENS4_IKNS_16AttributeCheckerEEE
   fun:_ZN3ns315PcapFileWrapper9GetTypeIdEv
   fun:_ZN3ns333XPcapFileWrapperRegistrationClassC1Ev
   fun:_Z41__static_initialization_and_destruction_0ii
   fun:_GLOBAL__I_pcap_file_wrapper.cc
   obj:/home/tazaki/hgworks/ns-3-dce-thehajime/build/lib/libns3-dev-network-debug.so
   obj:/home/tazaki/hgworks/ns-3-dce-thehajime/build/lib/libns3-dev-network-debug.so
   fun:vdl_list_iterate
   fun:vdl_init_call
}
{
   <insert_a_suppression_name_here>
   Memcheck:Leak
   fun:_Znwm
   fun:_ZN3ns323DoMakeAccessorHelperOneINS_13UintegerValueENS_12PacketSocketEjEENS_3PtrIKNS_17AttributeAccessorEEEMT0_T1_
   fun:_ZN3ns318MakeAccessorHelperINS_13UintegerValueEMNS_12PacketSocketEjEENS_3PtrIKNS_17AttributeAccessorEEET0_
   fun:_ZN3ns320MakeUintegerAccessorIMNS_12PacketSocketEjEENS_3PtrIKNS_17AttributeAccessorEEET_
   fun:_ZN3ns312PacketSocket9GetTypeIdEv
   fun:_ZN3ns330XPacketSocketRegistrationClassC1Ev
   fun:_Z41__static_initialization_and_destruction_0ii
   fun:_GLOBAL__I_packet_socket.cc
   obj:/home/tazaki/hgworks/ns-3-dce-thehajime/build/lib/libns3-dev-network-debug.so
   obj:/home/tazaki/hgworks/ns-3-dce-thehajime/build/lib/libns3-dev-network-debug.so
   fun:vdl_list_iterate
   fun:vdl_init_call
}
{
   <insert_a_suppression_name_here>
   Memcheck:Leak
   fun:_Znwm
   fun:_ZN3ns325DoMakeTraceSourceAccessorINS_12PacketSocketENS_14TracedCallbackINS_3PtrIKNS_6PacketEEENS_5emptyES7_S7_S7_S7_S7_S7_EEEENS3_IKNS_19TraceSourceAccessorEEEMT_T0_
   fun:_ZN3ns323MakeTraceSourceAccessorIMNS_12PacketSocketENS_14TracedCallbackINS_3PtrIKNS_6PacketEEENS_5emptyES7_S7_S7_S7_S7_S7_EEEENS3_IKNS_19TraceSourceAccessorEEET_
   fun:_ZN3ns312PacketSocket9GetTypeIdEv
   fun:_ZN3ns330XPacketSocketRegistrationClassC1Ev
   fun:_Z41__static_initialization_and_destruction_0ii
   fun:_GLOBAL__I_packet_socket.cc
   obj:/home/tazaki/hgworks/ns-3-dce-thehajime/build/lib/libns3-dev-network-debug.so
   obj:/home/tazaki/hgworks/ns-3-dce-thehajime/build/lib/libns3-dev-network-debug.so
   fun:vdl_list_iterate
   fun:vdl_init_call
   fun:dlopen_with_context
}
{
   <insert_a_suppression_name_here>
   Memcheck:Leak
   fun:_Znwm
   fun:_ZN3ns36CreateINS_19FunctorCallbackImplIPFPNS_10ObjectBaseEvES3_NS_5emptyES6_S6_S6_S6_S6_S6_S6_S6_EES5_EENS_3PtrIT_EET0_
   fun:_ZN3ns38CallbackIPNS_10ObjectBaseENS_5emptyES3_S3_S3_S3_S3_S3_S3_S3_EC1IPFS2_vEEERKT_bb
   fun:_ZN3ns312MakeCallbackIPNS_10ObjectBaseEEENS_8CallbackIT_NS_5emptyES5_S5_S5_S5_S5_S5_S5_S5_EEPFS4_vE
   fun:_ZN3ns36TypeId14AddConstructorINS_12PacketSocketEEES0_v
   fun:_ZN3ns312PacketSocket9GetTypeIdEv
   fun:_ZN3ns330XPacketSocketRegistrationClassC1Ev
   fun:_Z41__static_initialization_and_destruction_0ii
   fun:_GLOBAL__I_packet_socket.cc
   obj:/home/tazaki/hgworks/ns-3-dce-thehajime/build/lib/libns3-dev-network-debug.so
   obj:/home/tazaki/hgworks/ns-3-dce-thehajime/build/lib/libns3-dev-network-debug.so
   fun:vdl_list_iterate
}
{
   <insert_a_suppression_name_here>
   Memcheck:Leak
   fun:_Znwm
   fun:_ZN3ns36CreateINS_13UintegerValueES1_EENS_3PtrIT_EET0_
   fun:_ZNK3ns313UintegerValue4CopyEv
   fun:_ZN3ns36TypeId12AddAttributeESsSsRKNS_14AttributeValueENS_3PtrIKNS_17AttributeAccessorEEENS4_IKNS_16AttributeCheckerEEE
   fun:_ZN3ns312PacketSocket9GetTypeIdEv
   fun:_ZN3ns330XPacketSocketRegistrationClassC1Ev
   fun:_Z41__static_initialization_and_destruction_0ii
   fun:_GLOBAL__I_packet_socket.cc
   obj:/home/tazaki/hgworks/ns-3-dce-thehajime/build/lib/libns3-dev-network-debug.so
   obj:/home/tazaki/hgworks/ns-3-dce-thehajime/build/lib/libns3-dev-network-debug.so
   fun:vdl_list_iterate
   fun:vdl_init_call
}
{
   <insert_a_suppression_name_here>
   Memcheck:Leak
   fun:_Znwm
   fun:_ZN3ns36CreateINS_19FunctorCallbackImplIPFPNS_10ObjectBaseEvES3_NS_5emptyES6_S6_S6_S6_S6_S6_S6_S6_EES5_EENS_3PtrIT_EET0_
   fun:_ZN3ns38CallbackIPNS_10ObjectBaseENS_5emptyES3_S3_S3_S3_S3_S3_S3_S3_EC1IPFS2_vEEERKT_bb
   fun:_ZN3ns312MakeCallbackIPNS_10ObjectBaseEEENS_8CallbackIT_NS_5emptyES5_S5_S5_S5_S5_S5_S5_S5_EEPFS4_vE
   fun:_ZN3ns36TypeId14AddConstructorINS_15PacketSocketTagEEES0_v
   fun:_ZN3ns315PacketSocketTag9GetTypeIdEv
   fun:_ZN3ns333XPacketSocketTagRegistrationClassC1Ev
   fun:_Z41__static_initialization_and_destruction_0ii
   fun:_GLOBAL__I_packet_socket.cc
   obj:/home/tazaki/hgworks/ns-3-dce-thehajime/build/lib/libns3-dev-network-debug.so
   obj:/home/tazaki/hgworks/ns-3-dce-thehajime/build/lib/libns3-dev-network-debug.so
   fun:vdl_list_iterate
}
{
   <insert_a_suppression_name_here>
   Memcheck:Leak
   fun:_Znwm
   fun:_ZN3ns36CreateINS_19FunctorCallbackImplIPFPNS_10ObjectBaseEvES3_NS_5emptyES6_S6_S6_S6_S6_S6_S6_S6_EES5_EENS_3PtrIT_EET0_
   fun:_ZN3ns38CallbackIPNS_10ObjectBaseENS_5emptyES3_S3_S3_S3_S3_S3_S3_S3_EC1IPFS2_vEEERKT_bb
   fun:_ZN3ns312MakeCallbackIPNS_10ObjectBaseEEENS_8CallbackIT_NS_5emptyES5_S5_S5_S5_S5_S5_S5_S5_EEPFS4_vE
   fun:_ZN3ns36TypeId14AddConstructorINS_13DeviceNameTagEEES0_v
   fun:_ZN3ns313DeviceNameTag9GetTypeIdEv
   fun:_ZN3ns331XDeviceNameTagRegistrationClassC1Ev
   fun:_Z41__static_initialization_and_destruction_0ii
   fun:_GLOBAL__I_packet_socket.cc
   obj:/home/tazaki/hgworks/ns-3-dce-thehajime/build/lib/libns3-dev-network-debug.so
   obj:/home/tazaki/hgworks/ns-3-dce-thehajime/build/lib/libns3-dev-network-debug.so
   fun:vdl_list_iterate
}
{
   <insert_a_suppression_name_here>
   Memcheck:Leak
   fun:_Znwm
   fun:_ZN3ns36CreateINS_19FunctorCallbackImplIPFPNS_10ObjectBaseEvES3_NS_5emptyES6_S6_S6_S6_S6_S6_S6_S6_EES5_EENS_3PtrIT_EET0_
   fun:_ZN3ns38CallbackIPNS_10ObjectBaseENS_5emptyES3_S3_S3_S3_S3_S3_S3_S3_EC1IPFS2_vEEERKT_bb
   fun:_ZN3ns312MakeCallbackIPNS_10ObjectBaseEEENS_8CallbackIT_NS_5emptyES5_S5_S5_S5_S5_S5_S5_S5_EEPFS4_vE
   fun:_ZN3ns36TypeId14AddConstructorINS_11PacketBurstEEES0_v
   fun:_ZN3ns311PacketBurst9GetTypeIdEv
   fun:_ZN3ns329XPacketBurstRegistrationClassC1Ev
   fun:_Z41__static_initialization_and_destruction_0ii
   fun:_GLOBAL__I_packet_burst.cc
   obj:/home/tazaki/hgworks/ns-3-dce-thehajime/build/lib/libns3-dev-network-debug.so
   obj:/home/tazaki/hgworks/ns-3-dce-thehajime/build/lib/libns3-dev-network-debug.so
   fun:vdl_list_iterate
}
{
   <insert_a_suppression_name_here>
   Memcheck:Leak
   fun:_Znwm
   fun:_ZN3ns36CreateINS_19FunctorCallbackImplIPFPNS_10ObjectBaseEvES3_NS_5emptyES6_S6_S6_S6_S6_S6_S6_S6_EES5_EENS_3PtrIT_EET0_
   fun:_ZN3ns38CallbackIPNS_10ObjectBaseENS_5emptyES3_S3_S3_S3_S3_S3_S3_S3_EC1IPFS2_vEEERKT_bb
   fun:_ZN3ns312MakeCallbackIPNS_10ObjectBaseEEENS_8CallbackIT_NS_5emptyES5_S5_S5_S5_S5_S5_S5_S5_EEPFS4_vE
   fun:_ZN3ns36TypeId14AddConstructorINS_9PbbPacketEEES0_v
   fun:_ZN3ns39PbbPacket9GetTypeIdEv
   fun:_ZN3ns327XPbbPacketRegistrationClassC1Ev
   fun:_Z41__static_initialization_and_destruction_0ii
   fun:_GLOBAL__I_packetbb.cc
   obj:/home/tazaki/hgworks/ns-3-dce-thehajime/build/lib/libns3-dev-network-debug.so
   obj:/home/tazaki/hgworks/ns-3-dce-thehajime/build/lib/libns3-dev-network-debug.so
   fun:vdl_list_iterate
}
{
   <insert_a_suppression_name_here>
   Memcheck:Leak
   fun:_Znwm
   fun:_ZN3ns36CreateINS_19FunctorCallbackImplIPFPNS_10ObjectBaseEvES3_NS_5emptyES6_S6_S6_S6_S6_S6_S6_S6_EES5_EENS_3PtrIT_EET0_
   fun:_ZN3ns38CallbackIPNS_10ObjectBaseENS_5emptyES3_S3_S3_S3_S3_S3_S3_S3_EC1IPFS2_vEEERKT_bb
   fun:_ZN3ns312MakeCallbackIPNS_10ObjectBaseEEENS_8CallbackIT_NS_5emptyES5_S5_S5_S5_S5_S5_S5_S5_EEPFS4_vE
   fun:_ZN3ns36TypeId14AddConstructorINS_13LlcSnapHeaderEEES0_v
   fun:_ZN3ns313LlcSnapHeader9GetTypeIdEv
   fun:_ZN3ns331XLlcSnapHeaderRegistrationClassC1Ev
   fun:_Z41__static_initialization_and_destruction_0ii
   fun:_GLOBAL__I_llc_snap_header.cc
   obj:/home/tazaki/hgworks/ns-3-dce-thehajime/build/lib/libns3-dev-network-debug.so
   obj:/home/tazaki/hgworks/ns-3-dce-thehajime/build/lib/libns3-dev-network-debug.so
   fun:vdl_list_iterate
}
{
   <insert_a_suppression_name_here>
   Memcheck:Leak
   fun:_Znwm
   fun:_ZN3ns36CreateINS_19FunctorCallbackImplIPFPNS_10ObjectBaseEvES3_NS_5emptyES6_S6_S6_S6_S6_S6_S6_S6_EES5_EENS_3PtrIT_EET0_
   fun:_ZN3ns38CallbackIPNS_10ObjectBaseENS_5emptyES3_S3_S3_S3_S3_S3_S3_S3_EC1IPFS2_vEEERKT_bb
   fun:_ZN3ns312MakeCallbackIPNS_10ObjectBaseEEENS_8CallbackIT_NS_5emptyES5_S5_S5_S5_S5_S5_S5_S5_EEPFS4_vE
   fun:_ZN3ns36TypeId14AddConstructorINS_9FlowIdTagEEES0_v
   fun:_ZN3ns39FlowIdTag9GetTypeIdEv
   fun:_ZN3ns327XFlowIdTagRegistrationClassC1Ev
   fun:_Z41__static_initialization_and_destruction_0ii
   fun:_GLOBAL__I_flow_id_tag.cc
   obj:/home/tazaki/hgworks/ns-3-dce-thehajime/build/lib/libns3-dev-network-debug.so
   obj:/home/tazaki/hgworks/ns-3-dce-thehajime/build/lib/libns3-dev-network-debug.so
   fun:vdl_list_iterate
}
{
   <insert_a_suppression_name_here>
   Memcheck:Leak
   fun:_Znwm
   fun:_ZN3ns36CreateINS_19FunctorCallbackImplIPFPNS_10ObjectBaseEvES3_NS_5emptyES6_S6_S6_S6_S6_S6_S6_S6_EES5_EENS_3PtrIT_EET0_
   fun:_ZN3ns38CallbackIPNS_10ObjectBaseENS_5emptyES3_S3_S3_S3_S3_S3_S3_S3_EC1IPFS2_vEEERKT_bb
   fun:_ZN3ns312MakeCallbackIPNS_10ObjectBaseEEENS_8CallbackIT_NS_5emptyES5_S5_S5_S5_S5_S5_S5_S5_EEPFS4_vE
   fun:_ZN3ns36TypeId14AddConstructorINS_15EthernetTrailerEEES0_v
   fun:_ZN3ns315EthernetTrailer9GetTypeIdEv
   fun:_ZN3ns333XEthernetTrailerRegistrationClassC1Ev
   fun:_Z41__static_initialization_and_destruction_0ii
   fun:_GLOBAL__I_ethernet_trailer.cc
   obj:/home/tazaki/hgworks/ns-3-dce-thehajime/build/lib/libns3-dev-network-debug.so
   obj:/home/tazaki/hgworks/ns-3-dce-thehajime/build/lib/libns3-dev-network-debug.so
   fun:vdl_list_iterate
}
{
   <insert_a_suppression_name_here>
   Memcheck:Leak
   fun:_Znwm
   fun:_ZN3ns36CreateINS_19FunctorCallbackImplIPFPNS_10ObjectBaseEvES3_NS_5emptyES6_S6_S6_S6_S6_S6_S6_S6_EES5_EENS_3PtrIT_EET0_
   fun:_ZN3ns38CallbackIPNS_10ObjectBaseENS_5emptyES3_S3_S3_S3_S3_S3_S3_S3_EC1IPFS2_vEEERKT_bb
   fun:_ZN3ns312MakeCallbackIPNS_10ObjectBaseEEENS_8CallbackIT_NS_5emptyES5_S5_S5_S5_S5_S5_S5_S5_EEPFS4_vE
   fun:_ZN3ns36TypeId14AddConstructorINS_14EthernetHeaderEEES0_v
   fun:_ZN3ns314EthernetHeader9GetTypeIdEv
   fun:_ZN3ns332XEthernetHeaderRegistrationClassC1Ev
   fun:_Z41__static_initialization_and_destruction_0ii
   fun:_GLOBAL__I_ethernet_header.cc
   obj:/home/tazaki/hgworks/ns-3-dce-thehajime/build/lib/libns3-dev-network-debug.so
   obj:/home/tazaki/hgworks/ns-3-dce-thehajime/build/lib/libns3-dev-network-debug.so
   fun:vdl_list_iterate
}
{
   <insert_a_suppression_name_here>
   Memcheck:Leak
   fun:_Znwm
   fun:_ZN3ns323DoMakeAccessorHelperOneINS_12BooleanValueENS_10ErrorModelEbEENS_3PtrIKNS_17AttributeAccessorEEEMT0_T1_
   fun:_ZN3ns318MakeAccessorHelperINS_12BooleanValueEMNS_10ErrorModelEbEENS_3PtrIKNS_17AttributeAccessorEEET0_
   fun:_ZN3ns319MakeBooleanAccessorIMNS_10ErrorModelEbEENS_3PtrIKNS_17AttributeAccessorEEET_
   fun:_ZN3ns310ErrorModel9GetTypeIdEv
   fun:_ZN3ns328XErrorModelRegistrationClassC1Ev
   fun:_Z41__static_initialization_and_destruction_0ii
   fun:_GLOBAL__I_error_model.cc
   obj:/home/tazaki/hgworks/ns-3-dce-thehajime/build/lib/libns3-dev-network-debug.so
   obj:/home/tazaki/hgworks/ns-3-dce-thehajime/build/lib/libns3-dev-network-debug.so
   fun:vdl_list_iterate
   fun:vdl_init_call
}
{
   <insert_a_suppression_name_here>
   Memcheck:Leak
   fun:_Znwm
   fun:_ZN3ns323DoMakeAccessorHelperOneINS_19RandomVariableValueENS_14RateErrorModelENS_14RandomVariableEEENS_3PtrIKNS_17AttributeAccessorEEEMT0_T1_
   fun:_ZN3ns318MakeAccessorHelperINS_19RandomVariableValueEMNS_14RateErrorModelENS_14RandomVariableEEENS_3PtrIKNS_17AttributeAccessorEEET0_
   fun:_ZN3ns326MakeRandomVariableAccessorIMNS_14RateErrorModelENS_14RandomVariableEEENS_3PtrIKNS_17AttributeAccessorEEET_
   fun:_ZN3ns314RateErrorModel9GetTypeIdEv
   fun:_ZN3ns332XRateErrorModelRegistrationClassC1Ev
   fun:_Z41__static_initialization_and_destruction_0ii
   fun:_GLOBAL__I_error_model.cc
   obj:/home/tazaki/hgworks/ns-3-dce-thehajime/build/lib/libns3-dev-network-debug.so
   obj:/home/tazaki/hgworks/ns-3-dce-thehajime/build/lib/libns3-dev-network-debug.so
   fun:vdl_list_iterate
   fun:vdl_init_call
}
{
   <insert_a_suppression_name_here>
   Memcheck:Leak
   fun:_Znwm
   fun:_ZN3ns323DoMakeAccessorHelperOneINS_11DoubleValueENS_14RateErrorModelEdEENS_3PtrIKNS_17AttributeAccessorEEEMT0_T1_
   fun:_ZN3ns318MakeAccessorHelperINS_11DoubleValueEMNS_14RateErrorModelEdEENS_3PtrIKNS_17AttributeAccessorEEET0_
   fun:_ZN3ns318MakeDoubleAccessorIMNS_14RateErrorModelEdEENS_3PtrIKNS_17AttributeAccessorEEET_
   fun:_ZN3ns314RateErrorModel9GetTypeIdEv
   fun:_ZN3ns332XRateErrorModelRegistrationClassC1Ev
   fun:_Z41__static_initialization_and_destruction_0ii
   fun:_GLOBAL__I_error_model.cc
   obj:/home/tazaki/hgworks/ns-3-dce-thehajime/build/lib/libns3-dev-network-debug.so
   obj:/home/tazaki/hgworks/ns-3-dce-thehajime/build/lib/libns3-dev-network-debug.so
   fun:vdl_list_iterate
   fun:vdl_init_call
}
{
   <insert_a_suppression_name_here>
   Memcheck:Leak
   fun:_Znwm
   fun:_ZN3ns323DoMakeAccessorHelperOneINS_9EnumValueENS_14RateErrorModelENS2_9ErrorUnitEEENS_3PtrIKNS_17AttributeAccessorEEEMT0_T1_
   fun:_ZN3ns318MakeAccessorHelperINS_9EnumValueEMNS_14RateErrorModelENS2_9ErrorUnitEEENS_3PtrIKNS_17AttributeAccessorEEET0_
   fun:_ZN3ns316MakeEnumAccessorIMNS_14RateErrorModelENS1_9ErrorUnitEEENS_3PtrIKNS_17AttributeAccessorEEET_
   fun:_ZN3ns314RateErrorModel9GetTypeIdEv
   fun:_ZN3ns332XRateErrorModelRegistrationClassC1Ev
   fun:_Z41__static_initialization_and_destruction_0ii
   fun:_GLOBAL__I_error_model.cc
   obj:/home/tazaki/hgworks/ns-3-dce-thehajime/build/lib/libns3-dev-network-debug.so
   obj:/home/tazaki/hgworks/ns-3-dce-thehajime/build/lib/libns3-dev-network-debug.so
   fun:vdl_list_iterate
   fun:vdl_init_call
}
{
   <insert_a_suppression_name_here>
   Memcheck:Leak
   fun:_Znwm
   fun:_ZN3ns36CreateINS_19FunctorCallbackImplIPFPNS_10ObjectBaseEvES3_NS_5emptyES6_S6_S6_S6_S6_S6_S6_S6_EES5_EENS_3PtrIT_EET0_
   fun:_ZN3ns38CallbackIPNS_10ObjectBaseENS_5emptyES3_S3_S3_S3_S3_S3_S3_S3_EC1IPFS2_vEEERKT_bb
   fun:_ZN3ns312MakeCallbackIPNS_10ObjectBaseEEENS_8CallbackIT_NS_5emptyES5_S5_S5_S5_S5_S5_S5_S5_EEPFS4_vE
   fun:_ZN3ns36TypeId14AddConstructorINS_14RateErrorModelEEES0_v
   fun:_ZN3ns314RateErrorModel9GetTypeIdEv
   fun:_ZN3ns332XRateErrorModelRegistrationClassC1Ev
   fun:_Z41__static_initialization_and_destruction_0ii
   fun:_GLOBAL__I_error_model.cc
   obj:/home/tazaki/hgworks/ns-3-dce-thehajime/build/lib/libns3-dev-network-debug.so
   obj:/home/tazaki/hgworks/ns-3-dce-thehajime/build/lib/libns3-dev-network-debug.so
   fun:vdl_list_iterate
}
{
   <insert_a_suppression_name_here>
   Memcheck:Leak
   fun:_Znwm
   fun:_ZN3ns36CreateINS_11DoubleValueES1_EENS_3PtrIT_EET0_
   fun:_ZNK3ns311DoubleValue4CopyEv
   fun:_ZN3ns36TypeId12AddAttributeESsSsRKNS_14AttributeValueENS_3PtrIKNS_17AttributeAccessorEEENS4_IKNS_16AttributeCheckerEEE
   fun:_ZN3ns314RateErrorModel9GetTypeIdEv
   fun:_ZN3ns332XRateErrorModelRegistrationClassC1Ev
   fun:_Z41__static_initialization_and_destruction_0ii
   fun:_GLOBAL__I_error_model.cc
   obj:/home/tazaki/hgworks/ns-3-dce-thehajime/build/lib/libns3-dev-network-debug.so
   obj:/home/tazaki/hgworks/ns-3-dce-thehajime/build/lib/libns3-dev-network-debug.so
   fun:vdl_list_iterate
   fun:vdl_init_call
}
{
   <insert_a_suppression_name_here>
   Memcheck:Leak
   fun:_Znwm
   fun:_ZN3ns36CreateINS_19RandomVariableValueES1_EENS_3PtrIT_EET0_
   fun:_ZNK3ns319RandomVariableValue4CopyEv
   fun:_ZN3ns36TypeId12AddAttributeESsSsRKNS_14AttributeValueENS_3PtrIKNS_17AttributeAccessorEEENS4_IKNS_16AttributeCheckerEEE
   fun:_ZN3ns314RateErrorModel9GetTypeIdEv
   fun:_ZN3ns332XRateErrorModelRegistrationClassC1Ev
   fun:_Z41__static_initialization_and_destruction_0ii
   fun:_GLOBAL__I_error_model.cc
   obj:/home/tazaki/hgworks/ns-3-dce-thehajime/build/lib/libns3-dev-network-debug.so
   obj:/home/tazaki/hgworks/ns-3-dce-thehajime/build/lib/libns3-dev-network-debug.so
   fun:vdl_list_iterate
   fun:vdl_init_call
}
{
   <insert_a_suppression_name_here>
   Memcheck:Leak
   fun:_Znwm
   fun:_ZN3ns36CreateINS_19FunctorCallbackImplIPFPNS_10ObjectBaseEvES3_NS_5emptyES6_S6_S6_S6_S6_S6_S6_S6_EES5_EENS_3PtrIT_EET0_
   fun:_ZN3ns38CallbackIPNS_10ObjectBaseENS_5emptyES3_S3_S3_S3_S3_S3_S3_S3_EC1IPFS2_vEEERKT_bb
   fun:_ZN3ns312MakeCallbackIPNS_10ObjectBaseEEENS_8CallbackIT_NS_5emptyES5_S5_S5_S5_S5_S5_S5_S5_EEPFS4_vE
   fun:_ZN3ns36TypeId14AddConstructorINS_14ListErrorModelEEES0_v
   fun:_ZN3ns314ListErrorModel9GetTypeIdEv
   fun:_ZN3ns332XListErrorModelRegistrationClassC1Ev
   fun:_Z41__static_initialization_and_destruction_0ii
   fun:_GLOBAL__I_error_model.cc
   obj:/home/tazaki/hgworks/ns-3-dce-thehajime/build/lib/libns3-dev-network-debug.so
   obj:/home/tazaki/hgworks/ns-3-dce-thehajime/build/lib/libns3-dev-network-debug.so
   fun:vdl_list_iterate
}
{
   <insert_a_suppression_name_here>
   Memcheck:Leak
   fun:_Znwm
   fun:_ZN3ns36CreateINS_19FunctorCallbackImplIPFPNS_10ObjectBaseEvES3_NS_5emptyES6_S6_S6_S6_S6_S6_S6_S6_EES5_EENS_3PtrIT_EET0_
   fun:_ZN3ns38CallbackIPNS_10ObjectBaseENS_5emptyES3_S3_S3_S3_S3_S3_S3_S3_EC1IPFS2_vEEERKT_bb
   fun:_ZN3ns312MakeCallbackIPNS_10ObjectBaseEEENS_8CallbackIT_NS_5emptyES5_S5_S5_S5_S5_S5_S5_S5_EEPFS4_vE
   fun:_ZN3ns36TypeId14AddConstructorINS_21ReceiveListErrorModelEEES0_v
   fun:_ZN3ns321ReceiveListErrorModel9GetTypeIdEv
   fun:_ZN3ns339XReceiveListErrorModelRegistrationClassC1Ev
   fun:_Z41__static_initialization_and_destruction_0ii
   fun:_GLOBAL__I_error_model.cc
   obj:/home/tazaki/hgworks/ns-3-dce-thehajime/build/lib/libns3-dev-network-debug.so
   obj:/home/tazaki/hgworks/ns-3-dce-thehajime/build/lib/libns3-dev-network-debug.so
   fun:vdl_list_iterate
}
{
   <insert_a_suppression_name_here>
   Memcheck:Leak
   fun:_Znwm
   fun:_ZN3ns323DoMakeAccessorHelperOneINS_13UintegerValueENS_13DropTailQueueEjEENS_3PtrIKNS_17AttributeAccessorEEEMT0_T1_
   fun:_ZN3ns318MakeAccessorHelperINS_13UintegerValueEMNS_13DropTailQueueEjEENS_3PtrIKNS_17AttributeAccessorEEET0_
   fun:_ZN3ns320MakeUintegerAccessorIMNS_13DropTailQueueEjEENS_3PtrIKNS_17AttributeAccessorEEET_
   fun:_ZN3ns313DropTailQueue9GetTypeIdEv
   fun:_ZN3ns331XDropTailQueueRegistrationClassC1Ev
   fun:_Z41__static_initialization_and_destruction_0ii
   fun:_GLOBAL__I_drop_tail_queue.cc
   obj:/home/tazaki/hgworks/ns-3-dce-thehajime/build/lib/libns3-dev-network-debug.so
   obj:/home/tazaki/hgworks/ns-3-dce-thehajime/build/lib/libns3-dev-network-debug.so
   fun:vdl_list_iterate
   fun:vdl_init_call
}
{
   <insert_a_suppression_name_here>
   Memcheck:Leak
   fun:_Znwm
   fun:_ZN3ns36CreateINS_19FunctorCallbackImplIPFPNS_10ObjectBaseEvES3_NS_5emptyES6_S6_S6_S6_S6_S6_S6_S6_EES5_EENS_3PtrIT_EET0_
   fun:_ZN3ns38CallbackIPNS_10ObjectBaseENS_5emptyES3_S3_S3_S3_S3_S3_S3_S3_EC1IPFS2_vEEERKT_bb
   fun:_ZN3ns312MakeCallbackIPNS_10ObjectBaseEEENS_8CallbackIT_NS_5emptyES5_S5_S5_S5_S5_S5_S5_S5_EEPFS4_vE
   fun:_ZN3ns36TypeId14AddConstructorINS_13DropTailQueueEEES0_v
   fun:_ZN3ns313DropTailQueue9GetTypeIdEv
   fun:_ZN3ns331XDropTailQueueRegistrationClassC1Ev
   fun:_Z41__static_initialization_and_destruction_0ii
   fun:_GLOBAL__I_drop_tail_queue.cc
   obj:/home/tazaki/hgworks/ns-3-dce-thehajime/build/lib/libns3-dev-network-debug.so
   obj:/home/tazaki/hgworks/ns-3-dce-thehajime/build/lib/libns3-dev-network-debug.so
   fun:vdl_list_iterate
}
{
   <insert_a_suppression_name_here>
   Memcheck:Leak
   fun:_Znwm
   fun:_ZN3ns36CreateINS_13UintegerValueES1_EENS_3PtrIT_EET0_
   fun:_ZNK3ns313UintegerValue4CopyEv
   fun:_ZN3ns36TypeId12AddAttributeESsSsRKNS_14AttributeValueENS_3PtrIKNS_17AttributeAccessorEEENS4_IKNS_16AttributeCheckerEEE
   fun:_ZN3ns313DropTailQueue9GetTypeIdEv
   fun:_ZN3ns331XDropTailQueueRegistrationClassC1Ev
   fun:_Z41__static_initialization_and_destruction_0ii
   fun:_GLOBAL__I_drop_tail_queue.cc
   obj:/home/tazaki/hgworks/ns-3-dce-thehajime/build/lib/libns3-dev-network-debug.so
   obj:/home/tazaki/hgworks/ns-3-dce-thehajime/build/lib/libns3-dev-network-debug.so
   fun:vdl_list_iterate
   fun:vdl_init_call
}
{
   <insert_a_suppression_name_here>
   Memcheck:Leak
   fun:_Znwm
   fun:_ZN3ns36CreateINS_19FunctorCallbackImplIPFPNS_10ObjectBaseEvES3_NS_5emptyES6_S6_S6_S6_S6_S6_S6_S6_EES5_EENS_3PtrIT_EET0_
   fun:_ZN3ns38CallbackIPNS_10ObjectBaseENS_5emptyES3_S3_S3_S3_S3_S3_S3_S3_EC1IPFS2_vEEERKT_bb
   fun:_ZN3ns312MakeCallbackIPNS_10ObjectBaseEEENS_8CallbackIT_NS_5emptyES5_S5_S5_S5_S5_S5_S5_S5_EEPFS4_vE
   fun:_ZN3ns36TypeId14AddConstructorINS_16SocketAddressTagEEES0_v
   fun:_ZN3ns316SocketAddressTag9GetTypeIdEv
   fun:_ZN3ns334XSocketAddressTagRegistrationClassC1Ev
   fun:_Z41__static_initialization_and_destruction_0ii
   fun:_GLOBAL__I_socket.cc
   obj:/home/tazaki/hgworks/ns-3-dce-thehajime/build/lib/libns3-dev-network-debug.so
   obj:/home/tazaki/hgworks/ns-3-dce-thehajime/build/lib/libns3-dev-network-debug.so
   fun:vdl_list_iterate
}
{
   <insert_a_suppression_name_here>
   Memcheck:Leak
   fun:_Znwm
   fun:_ZN3ns36CreateINS_19FunctorCallbackImplIPFPNS_10ObjectBaseEvES3_NS_5emptyES6_S6_S6_S6_S6_S6_S6_S6_EES5_EENS_3PtrIT_EET0_
   fun:_ZN3ns38CallbackIPNS_10ObjectBaseENS_5emptyES3_S3_S3_S3_S3_S3_S3_S3_EC1IPFS2_vEEERKT_bb
   fun:_ZN3ns312MakeCallbackIPNS_10ObjectBaseEEENS_8CallbackIT_NS_5emptyES5_S5_S5_S5_S5_S5_S5_S5_EEPFS4_vE
   fun:_ZN3ns36TypeId14AddConstructorINS_14SocketIpTtlTagEEES0_v
   fun:_ZN3ns314SocketIpTtlTag9GetTypeIdEv
   fun:_ZN3ns332XSocketIpTtlTagRegistrationClassC1Ev
   fun:_Z41__static_initialization_and_destruction_0ii
   fun:_GLOBAL__I_socket.cc
   obj:/home/tazaki/hgworks/ns-3-dce-thehajime/build/lib/libns3-dev-network-debug.so
   obj:/home/tazaki/hgworks/ns-3-dce-thehajime/build/lib/libns3-dev-network-debug.so
   fun:vdl_list_iterate
}
{
   <insert_a_suppression_name_here>
   Memcheck:Leak
   fun:_Znwm
   fun:_ZN3ns36CreateINS_19FunctorCallbackImplIPFPNS_10ObjectBaseEvES3_NS_5emptyES6_S6_S6_S6_S6_S6_S6_S6_EES5_EENS_3PtrIT_EET0_
   fun:_ZN3ns38CallbackIPNS_10ObjectBaseENS_5emptyES3_S3_S3_S3_S3_S3_S3_S3_EC1IPFS2_vEEERKT_bb
   fun:_ZN3ns312MakeCallbackIPNS_10ObjectBaseEEENS_8CallbackIT_NS_5emptyES5_S5_S5_S5_S5_S5_S5_S5_EEPFS4_vE
   fun:_ZN3ns36TypeId14AddConstructorINS_24SocketSetDontFragmentTagEEES0_v
   fun:_ZN3ns324SocketSetDontFragmentTag9GetTypeIdEv
   fun:_ZN3ns342XSocketSetDontFragmentTagRegistrationClassC1Ev
   fun:_Z41__static_initialization_and_destruction_0ii
   fun:_GLOBAL__I_socket.cc
   obj:/home/tazaki/hgworks/ns-3-dce-thehajime/build/lib/libns3-dev-network-debug.so
   obj:/home/tazaki/hgworks/ns-3-dce-thehajime/build/lib/libns3-dev-network-debug.so
   fun:vdl_list_iterate
}
{
   <insert_a_suppression_name_here>
   Memcheck:Leak
   fun:_Znwm
   fun:_ZN3ns323DoMakeAccessorHelperOneINS_9TimeValueENS_11ApplicationENS_4TimeEEENS_3PtrIKNS_17AttributeAccessorEEEMT0_T1_
   fun:_ZN3ns318MakeAccessorHelperINS_9TimeValueEMNS_11ApplicationENS_4TimeEEENS_3PtrIKNS_17AttributeAccessorEEET0_
   fun:_ZN3ns316MakeTimeAccessorIMNS_11ApplicationENS_4TimeEEENS_3PtrIKNS_17AttributeAccessorEEET_
   fun:_ZN3ns311Application9GetTypeIdEv
   fun:_ZN3ns329XApplicationRegistrationClassC1Ev
   fun:_Z41__static_initialization_and_destruction_0ii
   fun:_GLOBAL__I_application.cc
   obj:/home/tazaki/hgworks/ns-3-dce-thehajime/build/lib/libns3-dev-network-debug.so
   obj:/home/tazaki/hgworks/ns-3-dce-thehajime/build/lib/libns3-dev-network-debug.so
   fun:vdl_list_iterate
   fun:vdl_init_call
}
{
   <insert_a_suppression_name_here>
   Memcheck:Leak
   fun:_Znwm
   fun:_ZN3ns36CreateINS_9TimeValueES1_EENS_3PtrIT_EET0_
   fun:_ZNK3ns39TimeValue4CopyEv
   fun:_ZN3ns36TypeId12AddAttributeESsSsRKNS_14AttributeValueENS_3PtrIKNS_17AttributeAccessorEEENS4_IKNS_16AttributeCheckerEEE
   fun:_ZN3ns311Application9GetTypeIdEv
   fun:_ZN3ns329XApplicationRegistrationClassC1Ev
   fun:_Z41__static_initialization_and_destruction_0ii
   fun:_GLOBAL__I_application.cc
   obj:/home/tazaki/hgworks/ns-3-dce-thehajime/build/lib/libns3-dev-network-debug.so
   obj:/home/tazaki/hgworks/ns-3-dce-thehajime/build/lib/libns3-dev-network-debug.so
   fun:vdl_list_iterate
   fun:vdl_init_call
}
{
   <insert_a_suppression_name_here>
   Memcheck:Leak
   fun:_Znwm
   fun:_ZN3ns36CreateINS_19FunctorCallbackImplIPFPNS_10ObjectBaseEvES3_NS_5emptyES6_S6_S6_S6_S6_S6_S6_S6_EES5_EENS_3PtrIT_EET0_
   fun:_ZN3ns38CallbackIPNS_10ObjectBaseENS_5emptyES3_S3_S3_S3_S3_S3_S3_S3_EC1IPFS2_vEEERKT_bb
   fun:_ZN3ns312MakeCallbackIPNS_10ObjectBaseEEENS_8CallbackIT_NS_5emptyES5_S5_S5_S5_S5_S5_S5_S5_EEPFS4_vE
   fun:_ZN3ns36TypeId14AddConstructorINS_24DistributedSimulatorImplEEES0_v
   fun:_ZN3ns324DistributedSimulatorImpl9GetTypeIdEv
   fun:_ZN3ns342XDistributedSimulatorImplRegistrationClassC1Ev
   fun:_Z41__static_initialization_and_destruction_0ii
   fun:_GLOBAL__I_distributed_simulator_impl.cc
   obj:/home/tazaki/hgworks/ns-3-dce-thehajime/build/lib/libns3-dev-mpi-debug.so
   obj:/home/tazaki/hgworks/ns-3-dce-thehajime/build/lib/libns3-dev-mpi-debug.so
   fun:vdl_list_iterate
}
{
   <insert_a_suppression_name_here>
   Memcheck:Leak
   fun:_Znwm
   fun:_ZN3ns36CreateINS_19FunctorCallbackImplIPFPNS_10ObjectBaseEvES3_NS_5emptyES6_S6_S6_S6_S6_S6_S6_S6_EES5_EENS_3PtrIT_EET0_
   fun:_ZN3ns38CallbackIPNS_10ObjectBaseENS_5emptyES3_S3_S3_S3_S3_S3_S3_S3_EC1IPFS2_vEEERKT_bb
   fun:_ZN3ns312MakeCallbackIPNS_10ObjectBaseEEENS_8CallbackIT_NS_5emptyES5_S5_S5_S5_S5_S5_S5_S5_EEPFS4_vE
   fun:_ZN3ns36TypeId14AddConstructorINS_13BridgeChannelEEES0_v
   fun:_ZN3ns313BridgeChannel9GetTypeIdEv
   fun:_ZN3ns331XBridgeChannelRegistrationClassC1Ev
   fun:_Z41__static_initialization_and_destruction_0ii
   fun:_GLOBAL__I_bridge_channel.cc
   obj:/home/tazaki/hgworks/ns-3-dce-thehajime/build/lib/libns3-dev-bridge-debug.so
   obj:/home/tazaki/hgworks/ns-3-dce-thehajime/build/lib/libns3-dev-bridge-debug.so
   fun:vdl_list_iterate
}
{
   <insert_a_suppression_name_here>
   Memcheck:Leak
   fun:_Znwm
   fun:_ZN3ns323DoMakeAccessorHelperOneINS_9TimeValueENS_15BridgeNetDeviceENS_4TimeEEENS_3PtrIKNS_17AttributeAccessorEEEMT0_T1_
   fun:_ZN3ns318MakeAccessorHelperINS_9TimeValueEMNS_15BridgeNetDeviceENS_4TimeEEENS_3PtrIKNS_17AttributeAccessorEEET0_
   fun:_ZN3ns316MakeTimeAccessorIMNS_15BridgeNetDeviceENS_4TimeEEENS_3PtrIKNS_17AttributeAccessorEEET_
   fun:_ZN3ns315BridgeNetDevice9GetTypeIdEv
   fun:_ZN3ns333XBridgeNetDeviceRegistrationClassC1Ev
   fun:_Z41__static_initialization_and_destruction_0ii
   fun:_GLOBAL__I_bridge_net_device.cc
   obj:/home/tazaki/hgworks/ns-3-dce-thehajime/build/lib/libns3-dev-bridge-debug.so
   obj:/home/tazaki/hgworks/ns-3-dce-thehajime/build/lib/libns3-dev-bridge-debug.so
   fun:vdl_list_iterate
   fun:vdl_init_call
}
{
   <insert_a_suppression_name_here>
   Memcheck:Leak
   fun:_Znwm
   fun:_ZN3ns323DoMakeAccessorHelperOneINS_12BooleanValueENS_15BridgeNetDeviceEbEENS_3PtrIKNS_17AttributeAccessorEEEMT0_T1_
   fun:_ZN3ns318MakeAccessorHelperINS_12BooleanValueEMNS_15BridgeNetDeviceEbEENS_3PtrIKNS_17AttributeAccessorEEET0_
   fun:_ZN3ns319MakeBooleanAccessorIMNS_15BridgeNetDeviceEbEENS_3PtrIKNS_17AttributeAccessorEEET_
   fun:_ZN3ns315BridgeNetDevice9GetTypeIdEv
   fun:_ZN3ns333XBridgeNetDeviceRegistrationClassC1Ev
   fun:_Z41__static_initialization_and_destruction_0ii
   fun:_GLOBAL__I_bridge_net_device.cc
   obj:/home/tazaki/hgworks/ns-3-dce-thehajime/build/lib/libns3-dev-bridge-debug.so
   obj:/home/tazaki/hgworks/ns-3-dce-thehajime/build/lib/libns3-dev-bridge-debug.so
   fun:vdl_list_iterate
   fun:vdl_init_call
}
{
   <insert_a_suppression_name_here>
   Memcheck:Leak
   fun:_Znwm
   fun:_ZN3ns36CreateINS_19FunctorCallbackImplIPFPNS_10ObjectBaseEvES3_NS_5emptyES6_S6_S6_S6_S6_S6_S6_S6_EES5_EENS_3PtrIT_EET0_
   fun:_ZN3ns38CallbackIPNS_10ObjectBaseENS_5emptyES3_S3_S3_S3_S3_S3_S3_S3_EC1IPFS2_vEEERKT_bb
   fun:_ZN3ns312MakeCallbackIPNS_10ObjectBaseEEENS_8CallbackIT_NS_5emptyES5_S5_S5_S5_S5_S5_S5_S5_EEPFS4_vE
   fun:_ZN3ns36TypeId14AddConstructorINS_15BridgeNetDeviceEEES0_v
   fun:_ZN3ns315BridgeNetDevice9GetTypeIdEv
   fun:_ZN3ns333XBridgeNetDeviceRegistrationClassC1Ev
   fun:_Z41__static_initialization_and_destruction_0ii
   fun:_GLOBAL__I_bridge_net_device.cc
   obj:/home/tazaki/hgworks/ns-3-dce-thehajime/build/lib/libns3-dev-bridge-debug.so
   obj:/home/tazaki/hgworks/ns-3-dce-thehajime/build/lib/libns3-dev-bridge-debug.so
   fun:vdl_list_iterate
}
{
   <insert_a_suppression_name_here>
   Memcheck:Leak
   fun:_Znwm
   fun:_ZN3ns36CreateINS_13UintegerValueES1_EENS_3PtrIT_EET0_
   fun:_ZNK3ns313UintegerValue4CopyEv
   fun:_ZN3ns36TypeId12AddAttributeESsSsRKNS_14AttributeValueENS_3PtrIKNS_17AttributeAccessorEEENS4_IKNS_16AttributeCheckerEEE
   fun:_ZN3ns315BridgeNetDevice9GetTypeIdEv
   fun:_ZN3ns333XBridgeNetDeviceRegistrationClassC1Ev
   fun:_Z41__static_initialization_and_destruction_0ii
   fun:_GLOBAL__I_bridge_net_device.cc
   obj:/home/tazaki/hgworks/ns-3-dce-thehajime/build/lib/libns3-dev-bridge-debug.so
   obj:/home/tazaki/hgworks/ns-3-dce-thehajime/build/lib/libns3-dev-bridge-debug.so
   fun:vdl_list_iterate
   fun:vdl_init_call
}
{
   <insert_a_suppression_name_here>
   Memcheck:Leak
   fun:_Znwm
   fun:_ZN3ns36CreateINS_9TimeValueES1_EENS_3PtrIT_EET0_
   fun:_ZNK3ns39TimeValue4CopyEv
   fun:_ZN3ns36TypeId12AddAttributeESsSsRKNS_14AttributeValueENS_3PtrIKNS_17AttributeAccessorEEENS4_IKNS_16AttributeCheckerEEE
   fun:_ZN3ns315BridgeNetDevice9GetTypeIdEv
   fun:_ZN3ns333XBridgeNetDeviceRegistrationClassC1Ev
   fun:_Z41__static_initialization_and_destruction_0ii
   fun:_GLOBAL__I_bridge_net_device.cc
   obj:/home/tazaki/hgworks/ns-3-dce-thehajime/build/lib/libns3-dev-bridge-debug.so
   obj:/home/tazaki/hgworks/ns-3-dce-thehajime/build/lib/libns3-dev-bridge-debug.so
   fun:vdl_list_iterate
   fun:vdl_init_call
}
{
   <insert_a_suppression_name_here>
   Memcheck:Leak
   fun:_Znwm
   fun:_ZN3ns324MakeObjectVectorAccessorINS_16NscTcpL4ProtocolESt6vectorINS_3PtrINS_16NscTcpSocketImplEEESaIS5_EEEENS3_IKNS_17AttributeAccessorEEEMT_T0_
   fun:_ZN3ns316NscTcpL4Protocol9GetTypeIdEv
   fun:_ZN3ns334XNscTcpL4ProtocolRegistrationClassC1Ev
   fun:_Z41__static_initialization_and_destruction_0ii
   fun:_GLOBAL__I_nsc_tcp_l4_protocol.cc
   obj:/home/tazaki/hgworks/ns-3-dce-thehajime/build/lib/libns3-dev-internet-debug.so
   obj:/home/tazaki/hgworks/ns-3-dce-thehajime/build/lib/libns3-dev-internet-debug.so
   fun:vdl_list_iterate
   fun:vdl_init_call
   fun:dlopen_with_context
   fun:vdl_dlmopen
}
{
   <insert_a_suppression_name_here>
   Memcheck:Leak
   fun:_Znwm
   fun:_ZN3ns36CreateINS_13UintegerValueES1_EENS_3PtrIT_EET0_
   fun:_ZNK3ns313UintegerValue4CopyEv
   fun:_ZN3ns36TypeId12AddAttributeESsSsRKNS_14AttributeValueENS_3PtrIKNS_17AttributeAccessorEEENS4_IKNS_16AttributeCheckerEEE
   fun:_ZN3ns312IpL4Protocol9GetTypeIdEv
   fun:_ZN3ns36TypeId9SetParentINS_12IpL4ProtocolEEES0_v
   fun:_ZN3ns316NscTcpL4Protocol9GetTypeIdEv
   fun:_ZN3ns334XNscTcpL4ProtocolRegistrationClassC1Ev
   fun:_Z41__static_initialization_and_destruction_0ii
   fun:_GLOBAL__I_nsc_tcp_l4_protocol.cc
   obj:/home/tazaki/hgworks/ns-3-dce-thehajime/build/lib/libns3-dev-internet-debug.so
   obj:/home/tazaki/hgworks/ns-3-dce-thehajime/build/lib/libns3-dev-internet-debug.so
}
{
   <insert_a_suppression_name_here>
   Memcheck:Leak
   fun:_Znwm
   fun:_ZN3ns36CreateINS_19FunctorCallbackImplIPFPNS_10ObjectBaseEvES3_NS_5emptyES6_S6_S6_S6_S6_S6_S6_S6_EES5_EENS_3PtrIT_EET0_
   fun:_ZN3ns38CallbackIPNS_10ObjectBaseENS_5emptyES3_S3_S3_S3_S3_S3_S3_S3_EC1IPFS2_vEEERKT_bb
   fun:_ZN3ns312MakeCallbackIPNS_10ObjectBaseEEENS_8CallbackIT_NS_5emptyES5_S5_S5_S5_S5_S5_S5_S5_EEPFS4_vE
   fun:_ZN3ns36TypeId14AddConstructorINS_16NscTcpL4ProtocolEEES0_v
   fun:_ZN3ns316NscTcpL4Protocol9GetTypeIdEv
   fun:_ZN3ns334XNscTcpL4ProtocolRegistrationClassC1Ev
   fun:_Z41__static_initialization_and_destruction_0ii
   fun:_GLOBAL__I_nsc_tcp_l4_protocol.cc
   obj:/home/tazaki/hgworks/ns-3-dce-thehajime/build/lib/libns3-dev-internet-debug.so
   obj:/home/tazaki/hgworks/ns-3-dce-thehajime/build/lib/libns3-dev-internet-debug.so
   fun:vdl_list_iterate
}
{
   <insert_a_suppression_name_here>
   Memcheck:Leak
   fun:_Znwm
   fun:_ZN3ns36CreateINS_11StringValueES1_EENS_3PtrIT_EET0_
   fun:_ZNK3ns311StringValue4CopyEv
   fun:_ZN3ns36TypeId12AddAttributeESsSsjRKNS_14AttributeValueENS_3PtrIKNS_17AttributeAccessorEEENS4_IKNS_16AttributeCheckerEEE
   fun:_ZN3ns316NscTcpL4Protocol9GetTypeIdEv
   fun:_ZN3ns334XNscTcpL4ProtocolRegistrationClassC1Ev
   fun:_Z41__static_initialization_and_destruction_0ii
   fun:_GLOBAL__I_nsc_tcp_l4_protocol.cc
   obj:/home/tazaki/hgworks/ns-3-dce-thehajime/build/lib/libns3-dev-internet-debug.so
   obj:/home/tazaki/hgworks/ns-3-dce-thehajime/build/lib/libns3-dev-internet-debug.so
   fun:vdl_list_iterate
   fun:vdl_init_call
}
{
   <insert_a_suppression_name_here>
   Memcheck:Leak
   fun:_Znwm
   fun:_ZN3ns325DoMakeTraceSourceAccessorINS_16NscTcpSocketImplENS_11TracedValueIjEEEENS_3PtrIKNS_19TraceSourceAccessorEEEMT_T0_
   fun:_ZN3ns323MakeTraceSourceAccessorIMNS_16NscTcpSocketImplENS_11TracedValueIjEEEENS_3PtrIKNS_19TraceSourceAccessorEEET_
   fun:_ZN3ns316NscTcpSocketImpl9GetTypeIdEv
   fun:_ZN3ns334XNscTcpSocketImplRegistrationClassC1Ev
   fun:_Z41__static_initialization_and_destruction_0ii
   fun:_GLOBAL__I_nsc_tcp_socket_impl.cc
   obj:/home/tazaki/hgworks/ns-3-dce-thehajime/build/lib/libns3-dev-internet-debug.so
   obj:/home/tazaki/hgworks/ns-3-dce-thehajime/build/lib/libns3-dev-internet-debug.so
   fun:vdl_list_iterate
   fun:vdl_init_call
   fun:dlopen_with_context
}
{
   <insert_a_suppression_name_here>
   Memcheck:Leak
   fun:_Znwm
   fun:_ZN3ns36CreateINS_13UintegerValueES1_EENS_3PtrIT_EET0_
   fun:_ZNK3ns313UintegerValue4CopyEv
   fun:_ZN3ns36TypeId12AddAttributeESsSsRKNS_14AttributeValueENS_3PtrIKNS_17AttributeAccessorEEENS4_IKNS_16AttributeCheckerEEE
   fun:_ZN3ns310NdiscCache9GetTypeIdEv
   fun:_ZN3ns328XNdiscCacheRegistrationClassC1Ev
   fun:_Z41__static_initialization_and_destruction_0ii
   fun:_GLOBAL__I_ndisc_cache.cc
   obj:/home/tazaki/hgworks/ns-3-dce-thehajime/build/lib/libns3-dev-internet-debug.so
   obj:/home/tazaki/hgworks/ns-3-dce-thehajime/build/lib/libns3-dev-internet-debug.so
   fun:vdl_list_iterate
   fun:vdl_init_call
}
{
   <insert_a_suppression_name_here>
   Memcheck:Leak
   fun:_Znwm
   fun:_ZN3ns36CreateINS_19FunctorCallbackImplIPFPNS_10ObjectBaseEvES3_NS_5emptyES6_S6_S6_S6_S6_S6_S6_S6_EES5_EENS_3PtrIT_EET0_
   fun:_ZN3ns38CallbackIPNS_10ObjectBaseENS_5emptyES3_S3_S3_S3_S3_S3_S3_S3_EC1IPFS2_vEEERKT_bb
   fun:_ZN3ns312MakeCallbackIPNS_10ObjectBaseEEENS_8CallbackIT_NS_5emptyES5_S5_S5_S5_S5_S5_S5_S5_EEPFS4_vE
   fun:_ZN3ns36TypeId14AddConstructorINS_16Icmpv4L4ProtocolEEES0_v
   fun:_ZN3ns316Icmpv4L4Protocol9GetTypeIdEv
   fun:_ZN3ns334XIcmpv4L4ProtocolRegistrationClassC1Ev
   fun:_Z41__static_initialization_and_destruction_0ii
   fun:_GLOBAL__I_icmpv4_l4_protocol.cc
   obj:/home/tazaki/hgworks/ns-3-dce-thehajime/build/lib/libns3-dev-internet-debug.so
   obj:/home/tazaki/hgworks/ns-3-dce-thehajime/build/lib/libns3-dev-internet-debug.so
   fun:vdl_list_iterate
}
{
   <insert_a_suppression_name_here>
   Memcheck:Leak
   fun:_Znwm
   fun:_ZN3ns36CreateINS_13UintegerValueES1_EENS_3PtrIT_EET0_
   fun:_ZNK3ns313UintegerValue4CopyEv
   fun:_ZN3ns36TypeId12AddAttributeESsSsRKNS_14AttributeValueENS_3PtrIKNS_17AttributeAccessorEEENS4_IKNS_16AttributeCheckerEEE
   fun:_ZN3ns317Ipv4RawSocketImpl9GetTypeIdEv
   fun:_ZN3ns335XIpv4RawSocketImplRegistrationClassC1Ev
   fun:_Z41__static_initialization_and_destruction_0ii
   fun:_GLOBAL__I_ipv4_raw_socket_impl.cc
   obj:/home/tazaki/hgworks/ns-3-dce-thehajime/build/lib/libns3-dev-internet-debug.so
   obj:/home/tazaki/hgworks/ns-3-dce-thehajime/build/lib/libns3-dev-internet-debug.so
   fun:vdl_list_iterate
   fun:vdl_init_call
}
{
   <insert_a_suppression_name_here>
   Memcheck:Leak
   fun:_Znwm
   fun:_ZN3ns323DoMakeAccessorHelperOneINS_9TimeValueENS_12RttEstimatorENS_4TimeEEENS_3PtrIKNS_17AttributeAccessorEEEMT0_T1_
   fun:_ZN3ns318MakeAccessorHelperINS_9TimeValueEMNS_12RttEstimatorENS_4TimeEEENS_3PtrIKNS_17AttributeAccessorEEET0_
   fun:_ZN3ns316MakeTimeAccessorIMNS_12RttEstimatorENS_4TimeEEENS_3PtrIKNS_17AttributeAccessorEEET_
   fun:_ZN3ns312RttEstimator9GetTypeIdEv
   fun:_ZN3ns330XRttEstimatorRegistrationClassC1Ev
   fun:_Z41__static_initialization_and_destruction_0ii
   fun:_GLOBAL__I_rtt_estimator.cc
   obj:/home/tazaki/hgworks/ns-3-dce-thehajime/build/lib/libns3-dev-internet-debug.so
   obj:/home/tazaki/hgworks/ns-3-dce-thehajime/build/lib/libns3-dev-internet-debug.so
   fun:vdl_list_iterate
   fun:vdl_init_call
}
{
   <insert_a_suppression_name_here>
   Memcheck:Leak
   fun:_Znwm
   fun:_ZN3ns323DoMakeAccessorHelperOneINS_13UintegerValueENS_12RttEstimatorEtEENS_3PtrIKNS_17AttributeAccessorEEEMT0_T1_
   fun:_ZN3ns318MakeAccessorHelperINS_13UintegerValueEMNS_12RttEstimatorEtEENS_3PtrIKNS_17AttributeAccessorEEET0_
   fun:_ZN3ns320MakeUintegerAccessorIMNS_12RttEstimatorEtEENS_3PtrIKNS_17AttributeAccessorEEET_
   fun:_ZN3ns312RttEstimator9GetTypeIdEv
   fun:_ZN3ns330XRttEstimatorRegistrationClassC1Ev
   fun:_Z41__static_initialization_and_destruction_0ii
   fun:_GLOBAL__I_rtt_estimator.cc
   obj:/home/tazaki/hgworks/ns-3-dce-thehajime/build/lib/libns3-dev-internet-debug.so
   obj:/home/tazaki/hgworks/ns-3-dce-thehajime/build/lib/libns3-dev-internet-debug.so
   fun:vdl_list_iterate
   fun:vdl_init_call
}
{
   <insert_a_suppression_name_here>
   Memcheck:Leak
   fun:_Znwm
   fun:_ZN3ns36CreateINS_13UintegerValueES1_EENS_3PtrIT_EET0_
   fun:_ZNK3ns313UintegerValue4CopyEv
   fun:_ZN3ns36TypeId12AddAttributeESsSsRKNS_14AttributeValueENS_3PtrIKNS_17AttributeAccessorEEENS4_IKNS_16AttributeCheckerEEE
   fun:_ZN3ns312RttEstimator9GetTypeIdEv
   fun:_ZN3ns330XRttEstimatorRegistrationClassC1Ev
   fun:_Z41__static_initialization_and_destruction_0ii
   fun:_GLOBAL__I_rtt_estimator.cc
   obj:/home/tazaki/hgworks/ns-3-dce-thehajime/build/lib/libns3-dev-internet-debug.so
   obj:/home/tazaki/hgworks/ns-3-dce-thehajime/build/lib/libns3-dev-internet-debug.so
   fun:vdl_list_iterate
   fun:vdl_init_call
}
{
   <insert_a_suppression_name_here>
   Memcheck:Leak
   fun:_Znwm
   fun:_ZN3ns36CreateINS_9TimeValueES1_EENS_3PtrIT_EET0_
   fun:_ZNK3ns39TimeValue4CopyEv
   fun:_ZN3ns36TypeId12AddAttributeESsSsRKNS_14AttributeValueENS_3PtrIKNS_17AttributeAccessorEEENS4_IKNS_16AttributeCheckerEEE
   fun:_ZN3ns312RttEstimator9GetTypeIdEv
   fun:_ZN3ns330XRttEstimatorRegistrationClassC1Ev
   fun:_Z41__static_initialization_and_destruction_0ii
   fun:_GLOBAL__I_rtt_estimator.cc
   obj:/home/tazaki/hgworks/ns-3-dce-thehajime/build/lib/libns3-dev-internet-debug.so
   obj:/home/tazaki/hgworks/ns-3-dce-thehajime/build/lib/libns3-dev-internet-debug.so
   fun:vdl_list_iterate
   fun:vdl_init_call
}
{
   <insert_a_suppression_name_here>
   Memcheck:Leak
   fun:_Znwm
   fun:_ZN3ns323DoMakeAccessorHelperOneINS_11DoubleValueENS_16RttMeanDeviationEdEENS_3PtrIKNS_17AttributeAccessorEEEMT0_T1_
   fun:_ZN3ns318MakeAccessorHelperINS_11DoubleValueEMNS_16RttMeanDeviationEdEENS_3PtrIKNS_17AttributeAccessorEEET0_
   fun:_ZN3ns318MakeDoubleAccessorIMNS_16RttMeanDeviationEdEENS_3PtrIKNS_17AttributeAccessorEEET_
   fun:_ZN3ns316RttMeanDeviation9GetTypeIdEv
   fun:_ZN3ns334XRttMeanDeviationRegistrationClassC1Ev
   fun:_Z41__static_initialization_and_destruction_0ii
   fun:_GLOBAL__I_rtt_estimator.cc
   obj:/home/tazaki/hgworks/ns-3-dce-thehajime/build/lib/libns3-dev-internet-debug.so
   obj:/home/tazaki/hgworks/ns-3-dce-thehajime/build/lib/libns3-dev-internet-debug.so
   fun:vdl_list_iterate
   fun:vdl_init_call
}
{
   <insert_a_suppression_name_here>
   Memcheck:Leak
   fun:_Znwm
   fun:_ZN3ns36CreateINS_19FunctorCallbackImplIPFPNS_10ObjectBaseEvES3_NS_5emptyES6_S6_S6_S6_S6_S6_S6_S6_EES5_EENS_3PtrIT_EET0_
   fun:_ZN3ns38CallbackIPNS_10ObjectBaseENS_5emptyES3_S3_S3_S3_S3_S3_S3_S3_EC1IPFS2_vEEERKT_bb
   fun:_ZN3ns312MakeCallbackIPNS_10ObjectBaseEEENS_8CallbackIT_NS_5emptyES5_S5_S5_S5_S5_S5_S5_S5_EEPFS4_vE
   fun:_ZN3ns36TypeId14AddConstructorINS_16RttMeanDeviationEEES0_v
   fun:_ZN3ns316RttMeanDeviation9GetTypeIdEv
   fun:_ZN3ns334XRttMeanDeviationRegistrationClassC1Ev
   fun:_Z41__static_initialization_and_destruction_0ii
   fun:_GLOBAL__I_rtt_estimator.cc
   obj:/home/tazaki/hgworks/ns-3-dce-thehajime/build/lib/libns3-dev-internet-debug.so
   obj:/home/tazaki/hgworks/ns-3-dce-thehajime/build/lib/libns3-dev-internet-debug.so
   fun:vdl_list_iterate
}
{
   <insert_a_suppression_name_here>
   Memcheck:Leak
   fun:_Znwm
   fun:_ZN3ns36CreateINS_11DoubleValueES1_EENS_3PtrIT_EET0_
   fun:_ZNK3ns311DoubleValue4CopyEv
   fun:_ZN3ns36TypeId12AddAttributeESsSsRKNS_14AttributeValueENS_3PtrIKNS_17AttributeAccessorEEENS4_IKNS_16AttributeCheckerEEE
   fun:_ZN3ns316RttMeanDeviation9GetTypeIdEv
   fun:_ZN3ns334XRttMeanDeviationRegistrationClassC1Ev
   fun:_Z41__static_initialization_and_destruction_0ii
   fun:_GLOBAL__I_rtt_estimator.cc
   obj:/home/tazaki/hgworks/ns-3-dce-thehajime/build/lib/libns3-dev-internet-debug.so
   obj:/home/tazaki/hgworks/ns-3-dce-thehajime/build/lib/libns3-dev-internet-debug.so
   fun:vdl_list_iterate
   fun:vdl_init_call
}
{
   <insert_a_suppression_name_here>
   Memcheck:Leak
   fun:_Znwm
   fun:_ZN3ns323DoMakeAccessorHelperOneINS_13CallbackValueENS_13UdpSocketImplENS_8CallbackIvNS_11Ipv6AddressEhhhjNS_5emptyES5_S5_S5_EEEENS_3PtrIKNS_17AttributeAccessorEEEMT0_T1_
   fun:_ZN3ns318MakeAccessorHelperINS_13CallbackValueEMNS_13UdpSocketImplENS_8CallbackIvNS_11Ipv6AddressEhhhjNS_5emptyES5_S5_S5_EEEENS_3PtrIKNS_17AttributeAccessorEEET0_
   fun:_ZN3ns320MakeCallbackAccessorIMNS_13UdpSocketImplENS_8CallbackIvNS_11Ipv6AddressEhhhjNS_5emptyES4_S4_S4_EEEENS_3PtrIKNS_17AttributeAccessorEEET_
   fun:_ZN3ns313UdpSocketImpl9GetTypeIdEv
   fun:_ZN3ns331XUdpSocketImplRegistrationClassC1Ev
   fun:_Z41__static_initialization_and_destruction_0ii
   fun:_GLOBAL__I_udp_socket_impl.cc
   obj:/home/tazaki/hgworks/ns-3-dce-thehajime/build/lib/libns3-dev-internet-debug.so
   obj:/home/tazaki/hgworks/ns-3-dce-thehajime/build/lib/libns3-dev-internet-debug.so
   fun:vdl_list_iterate
   fun:vdl_init_call
}
{
   <insert_a_suppression_name_here>
   Memcheck:Leak
   fun:_Znwm
   fun:_ZN3ns323DoMakeAccessorHelperOneINS_13CallbackValueENS_13UdpSocketImplENS_8CallbackIvNS_11Ipv4AddressEhhhjNS_5emptyES5_S5_S5_EEEENS_3PtrIKNS_17AttributeAccessorEEEMT0_T1_
   fun:_ZN3ns318MakeAccessorHelperINS_13CallbackValueEMNS_13UdpSocketImplENS_8CallbackIvNS_11Ipv4AddressEhhhjNS_5emptyES5_S5_S5_EEEENS_3PtrIKNS_17AttributeAccessorEEET0_
   fun:_ZN3ns320MakeCallbackAccessorIMNS_13UdpSocketImplENS_8CallbackIvNS_11Ipv4AddressEhhhjNS_5emptyES4_S4_S4_EEEENS_3PtrIKNS_17AttributeAccessorEEET_
   fun:_ZN3ns313UdpSocketImpl9GetTypeIdEv
   fun:_ZN3ns331XUdpSocketImplRegistrationClassC1Ev
   fun:_Z41__static_initialization_and_destruction_0ii
   fun:_GLOBAL__I_udp_socket_impl.cc
   obj:/home/tazaki/hgworks/ns-3-dce-thehajime/build/lib/libns3-dev-internet-debug.so
   obj:/home/tazaki/hgworks/ns-3-dce-thehajime/build/lib/libns3-dev-internet-debug.so
   fun:vdl_list_iterate
   fun:vdl_init_call
}
{
   <insert_a_suppression_name_here>
   Memcheck:Leak
   fun:_Znwm
   fun:_ZN3ns325DoMakeTraceSourceAccessorINS_13UdpSocketImplENS_14TracedCallbackINS_3PtrIKNS_6PacketEEENS_5emptyES7_S7_S7_S7_S7_S7_EEEENS3_IKNS_19TraceSourceAccessorEEEMT_T0_
   fun:_ZN3ns323MakeTraceSourceAccessorIMNS_13UdpSocketImplENS_14TracedCallbackINS_3PtrIKNS_6PacketEEENS_5emptyES7_S7_S7_S7_S7_S7_EEEENS3_IKNS_19TraceSourceAccessorEEET_
   fun:_ZN3ns313UdpSocketImpl9GetTypeIdEv
   fun:_ZN3ns331XUdpSocketImplRegistrationClassC1Ev
   fun:_Z41__static_initialization_and_destruction_0ii
   fun:_GLOBAL__I_udp_socket_impl.cc
   obj:/home/tazaki/hgworks/ns-3-dce-thehajime/build/lib/libns3-dev-internet-debug.so
   obj:/home/tazaki/hgworks/ns-3-dce-thehajime/build/lib/libns3-dev-internet-debug.so
   fun:vdl_list_iterate
   fun:vdl_init_call
   fun:dlopen_with_context
}
{
   <insert_a_suppression_name_here>
   Memcheck:Leak
   fun:_Znwm
   fun:_ZN3ns36CreateINS_19FunctorCallbackImplIPFPNS_10ObjectBaseEvES3_NS_5emptyES6_S6_S6_S6_S6_S6_S6_S6_EES5_EENS_3PtrIT_EET0_
   fun:_ZN3ns38CallbackIPNS_10ObjectBaseENS_5emptyES3_S3_S3_S3_S3_S3_S3_S3_EC1IPFS2_vEEERKT_bb
   fun:_ZN3ns312MakeCallbackIPNS_10ObjectBaseEEENS_8CallbackIT_NS_5emptyES5_S5_S5_S5_S5_S5_S5_S5_EEPFS4_vE
   fun:_ZN3ns36TypeId14AddConstructorINS_13UdpSocketImplEEES0_v
   fun:_ZN3ns313UdpSocketImpl9GetTypeIdEv
   fun:_ZN3ns331XUdpSocketImplRegistrationClassC1Ev
   fun:_Z41__static_initialization_and_destruction_0ii
   fun:_GLOBAL__I_udp_socket_impl.cc
   obj:/home/tazaki/hgworks/ns-3-dce-thehajime/build/lib/libns3-dev-internet-debug.so
   obj:/home/tazaki/hgworks/ns-3-dce-thehajime/build/lib/libns3-dev-internet-debug.so
   fun:vdl_list_iterate
}
{
   <insert_a_suppression_name_here>
   Memcheck:Leak
   fun:_Znwm
   fun:_ZN3ns36CreateINS_13CallbackValueENS_12CallbackBaseEEENS_3PtrIT_EET0_
   fun:_ZNK3ns313CallbackValue4CopyEv
   fun:_ZN3ns36TypeId12AddAttributeESsSsRKNS_14AttributeValueENS_3PtrIKNS_17AttributeAccessorEEENS4_IKNS_16AttributeCheckerEEE
   fun:_ZN3ns313UdpSocketImpl9GetTypeIdEv
   fun:_ZN3ns331XUdpSocketImplRegistrationClassC1Ev
   fun:_Z41__static_initialization_and_destruction_0ii
   fun:_GLOBAL__I_udp_socket_impl.cc
   obj:/home/tazaki/hgworks/ns-3-dce-thehajime/build/lib/libns3-dev-internet-debug.so
   obj:/home/tazaki/hgworks/ns-3-dce-thehajime/build/lib/libns3-dev-internet-debug.so
   fun:vdl_list_iterate
   fun:vdl_init_call
}
{
   <insert_a_suppression_name_here>
   Memcheck:Leak
   fun:_Znwm
   fun:_ZN3ns325DoMakeTraceSourceAccessorINS_13ArpL3ProtocolENS_14TracedCallbackINS_3PtrIKNS_6PacketEEENS_5emptyES7_S7_S7_S7_S7_S7_EEEENS3_IKNS_19TraceSourceAccessorEEEMT_T0_
   fun:_ZN3ns323MakeTraceSourceAccessorIMNS_13ArpL3ProtocolENS_14TracedCallbackINS_3PtrIKNS_6PacketEEENS_5emptyES7_S7_S7_S7_S7_S7_EEEENS3_IKNS_19TraceSourceAccessorEEET_
   fun:_ZN3ns313ArpL3Protocol9GetTypeIdEv
   fun:_ZN3ns331XArpL3ProtocolRegistrationClassC1Ev
   fun:_Z41__static_initialization_and_destruction_0ii
   fun:_GLOBAL__I_arp_l3_protocol.cc
   obj:/home/tazaki/hgworks/ns-3-dce-thehajime/build/lib/libns3-dev-internet-debug.so
   obj:/home/tazaki/hgworks/ns-3-dce-thehajime/build/lib/libns3-dev-internet-debug.so
   fun:vdl_list_iterate
   fun:vdl_init_call
   fun:dlopen_with_context
}
{
   <insert_a_suppression_name_here>
   Memcheck:Leak
   fun:_Znwm
   fun:_ZN3ns324MakeObjectVectorAccessorINS_13ArpL3ProtocolESt4listINS_3PtrINS_8ArpCacheEEESaIS5_EEEENS3_IKNS_17AttributeAccessorEEEMT_T0_
   fun:_ZN3ns313ArpL3Protocol9GetTypeIdEv
   fun:_ZN3ns331XArpL3ProtocolRegistrationClassC1Ev
   fun:_Z41__static_initialization_and_destruction_0ii
   fun:_GLOBAL__I_arp_l3_protocol.cc
   obj:/home/tazaki/hgworks/ns-3-dce-thehajime/build/lib/libns3-dev-internet-debug.so
   obj:/home/tazaki/hgworks/ns-3-dce-thehajime/build/lib/libns3-dev-internet-debug.so
   fun:vdl_list_iterate
   fun:vdl_init_call
   fun:dlopen_with_context
   fun:vdl_dlmopen
}
{
   <insert_a_suppression_name_here>
   Memcheck:Leak
   fun:_Znwm
   fun:_ZN3ns36CreateINS_19FunctorCallbackImplIPFPNS_10ObjectBaseEvES3_NS_5emptyES6_S6_S6_S6_S6_S6_S6_S6_EES5_EENS_3PtrIT_EET0_
   fun:_ZN3ns38CallbackIPNS_10ObjectBaseENS_5emptyES3_S3_S3_S3_S3_S3_S3_S3_EC1IPFS2_vEEERKT_bb
   fun:_ZN3ns312MakeCallbackIPNS_10ObjectBaseEEENS_8CallbackIT_NS_5emptyES5_S5_S5_S5_S5_S5_S5_S5_EEPFS4_vE
   fun:_ZN3ns36TypeId14AddConstructorINS_13ArpL3ProtocolEEES0_v
   fun:_ZN3ns313ArpL3Protocol9GetTypeIdEv
   fun:_ZN3ns331XArpL3ProtocolRegistrationClassC1Ev
   fun:_Z41__static_initialization_and_destruction_0ii
   fun:_GLOBAL__I_arp_l3_protocol.cc
   obj:/home/tazaki/hgworks/ns-3-dce-thehajime/build/lib/libns3-dev-internet-debug.so
   obj:/home/tazaki/hgworks/ns-3-dce-thehajime/build/lib/libns3-dev-internet-debug.so
   fun:vdl_list_iterate
}
{
   <insert_a_suppression_name_here>
   Memcheck:Leak
   fun:_Znwm
   fun:_ZN9__gnu_cxx13new_allocatorIN3ns36TypeId22TraceSourceInformationEE8allocateEmPKv
   fun:_ZNSt12_Vector_baseIN3ns36TypeId22TraceSourceInformationESaIS2_EE11_M_allocateEm
   fun:_ZNSt6vectorIN3ns36TypeId22TraceSourceInformationESaIS2_EE13_M_insert_auxEN9__gnu_cxx17__normal_iteratorIPS2_S4_EERKS2_
   fun:_ZNSt6vectorIN3ns36TypeId22TraceSourceInformationESaIS2_EE9push_backERKS2_
   fun:_ZN12_GLOBAL__N_110IidManager14AddTraceSourceEtSsSsN3ns33PtrIKNS1_19TraceSourceAccessorEEE
   fun:_ZN3ns36TypeId14AddTraceSourceESsSsNS_3PtrIKNS_19TraceSourceAccessorEEE
   fun:_ZN3ns313ArpL3Protocol9GetTypeIdEv
   fun:_ZN3ns331XArpL3ProtocolRegistrationClassC1Ev
   fun:_Z41__static_initialization_and_destruction_0ii
   fun:_GLOBAL__I_arp_l3_protocol.cc
   obj:/home/tazaki/hgworks/ns-3-dce-thehajime/build/lib/libns3-dev-internet-debug.so
}
{
   <insert_a_suppression_name_here>
   Memcheck:Leak
   fun:_Znwm
   fun:_ZN3ns325DoMakeTraceSourceAccessorINS_8ArpCacheENS_14TracedCallbackINS_3PtrIKNS_6PacketEEENS_5emptyES7_S7_S7_S7_S7_S7_EEEENS3_IKNS_19TraceSourceAccessorEEEMT_T0_
   fun:_ZN3ns323MakeTraceSourceAccessorIMNS_8ArpCacheENS_14TracedCallbackINS_3PtrIKNS_6PacketEEENS_5emptyES7_S7_S7_S7_S7_S7_EEEENS3_IKNS_19TraceSourceAccessorEEET_
   fun:_ZN3ns38ArpCache9GetTypeIdEv
   fun:_ZN3ns326XArpCacheRegistrationClassC1Ev
   fun:_Z41__static_initialization_and_destruction_0ii
   fun:_GLOBAL__I_arp_cache.cc
   obj:/home/tazaki/hgworks/ns-3-dce-thehajime/build/lib/libns3-dev-internet-debug.so
   obj:/home/tazaki/hgworks/ns-3-dce-thehajime/build/lib/libns3-dev-internet-debug.so
   fun:vdl_list_iterate
   fun:vdl_init_call
   fun:dlopen_with_context
}
{
   <insert_a_suppression_name_here>
   Memcheck:Leak
   fun:_Znwm
   fun:_ZN3ns323DoMakeAccessorHelperOneINS_13UintegerValueENS_8ArpCacheEjEENS_3PtrIKNS_17AttributeAccessorEEEMT0_T1_
   fun:_ZN3ns318MakeAccessorHelperINS_13UintegerValueEMNS_8ArpCacheEjEENS_3PtrIKNS_17AttributeAccessorEEET0_
   fun:_ZN3ns320MakeUintegerAccessorIMNS_8ArpCacheEjEENS_3PtrIKNS_17AttributeAccessorEEET_
   fun:_ZN3ns38ArpCache9GetTypeIdEv
   fun:_ZN3ns326XArpCacheRegistrationClassC1Ev
   fun:_Z41__static_initialization_and_destruction_0ii
   fun:_GLOBAL__I_arp_cache.cc
   obj:/home/tazaki/hgworks/ns-3-dce-thehajime/build/lib/libns3-dev-internet-debug.so
   obj:/home/tazaki/hgworks/ns-3-dce-thehajime/build/lib/libns3-dev-internet-debug.so
   fun:vdl_list_iterate
   fun:vdl_init_call
}
{
   <insert_a_suppression_name_here>
   Memcheck:Leak
   fun:_Znwm
   fun:_ZN3ns323DoMakeAccessorHelperOneINS_9TimeValueENS_8ArpCacheENS_4TimeEEENS_3PtrIKNS_17AttributeAccessorEEEMT0_T1_
   fun:_ZN3ns318MakeAccessorHelperINS_9TimeValueEMNS_8ArpCacheENS_4TimeEEENS_3PtrIKNS_17AttributeAccessorEEET0_
   fun:_ZN3ns316MakeTimeAccessorIMNS_8ArpCacheENS_4TimeEEENS_3PtrIKNS_17AttributeAccessorEEET_
   fun:_ZN3ns38ArpCache9GetTypeIdEv
   fun:_ZN3ns326XArpCacheRegistrationClassC1Ev
   fun:_Z41__static_initialization_and_destruction_0ii
   fun:_GLOBAL__I_arp_cache.cc
   obj:/home/tazaki/hgworks/ns-3-dce-thehajime/build/lib/libns3-dev-internet-debug.so
   obj:/home/tazaki/hgworks/ns-3-dce-thehajime/build/lib/libns3-dev-internet-debug.so
   fun:vdl_list_iterate
   fun:vdl_init_call
}
{
   <insert_a_suppression_name_here>
   Memcheck:Leak
   fun:_Znwm
   fun:_ZN3ns36CreateINS_9TimeValueES1_EENS_3PtrIT_EET0_
   fun:_ZNK3ns39TimeValue4CopyEv
   fun:_ZN3ns36TypeId12AddAttributeESsSsRKNS_14AttributeValueENS_3PtrIKNS_17AttributeAccessorEEENS4_IKNS_16AttributeCheckerEEE
   fun:_ZN3ns38ArpCache9GetTypeIdEv
   fun:_ZN3ns326XArpCacheRegistrationClassC1Ev
   fun:_Z41__static_initialization_and_destruction_0ii
   fun:_GLOBAL__I_arp_cache.cc
   obj:/home/tazaki/hgworks/ns-3-dce-thehajime/build/lib/libns3-dev-internet-debug.so
   obj:/home/tazaki/hgworks/ns-3-dce-thehajime/build/lib/libns3-dev-internet-debug.so
   fun:vdl_list_iterate
   fun:vdl_init_call
}
{
   <insert_a_suppression_name_here>
   Memcheck:Leak
   fun:_Znwm
   fun:_ZN3ns36CreateINS_13UintegerValueES1_EENS_3PtrIT_EET0_
   fun:_ZNK3ns313UintegerValue4CopyEv
   fun:_ZN3ns36TypeId12AddAttributeESsSsRKNS_14AttributeValueENS_3PtrIKNS_17AttributeAccessorEEENS4_IKNS_16AttributeCheckerEEE
   fun:_ZN3ns38ArpCache9GetTypeIdEv
   fun:_ZN3ns326XArpCacheRegistrationClassC1Ev
   fun:_Z41__static_initialization_and_destruction_0ii
   fun:_GLOBAL__I_arp_cache.cc
   obj:/home/tazaki/hgworks/ns-3-dce-thehajime/build/lib/libns3-dev-internet-debug.so
   obj:/home/tazaki/hgworks/ns-3-dce-thehajime/build/lib/libns3-dev-internet-debug.so
   fun:vdl_list_iterate
   fun:vdl_init_call
}
{
   <insert_a_suppression_name_here>
   Memcheck:Leak
   fun:_Znwm
   fun:_ZN9__gnu_cxx13new_allocatorIN3ns36TypeId22TraceSourceInformationEE8allocateEmPKv
   fun:_ZNSt12_Vector_baseIN3ns36TypeId22TraceSourceInformationESaIS2_EE11_M_allocateEm
   fun:_ZNSt6vectorIN3ns36TypeId22TraceSourceInformationESaIS2_EE13_M_insert_auxEN9__gnu_cxx17__normal_iteratorIPS2_S4_EERKS2_
   fun:_ZNSt6vectorIN3ns36TypeId22TraceSourceInformationESaIS2_EE9push_backERKS2_
   fun:_ZN12_GLOBAL__N_110IidManager14AddTraceSourceEtSsSsN3ns33PtrIKNS1_19TraceSourceAccessorEEE
   fun:_ZN3ns36TypeId14AddTraceSourceESsSsNS_3PtrIKNS_19TraceSourceAccessorEEE
   fun:_ZN3ns38ArpCache9GetTypeIdEv
   fun:_ZN3ns326XArpCacheRegistrationClassC1Ev
   fun:_Z41__static_initialization_and_destruction_0ii
   fun:_GLOBAL__I_arp_cache.cc
   obj:/home/tazaki/hgworks/ns-3-dce-thehajime/build/lib/libns3-dev-internet-debug.so
}
{
   <insert_a_suppression_name_here>
   Memcheck:Leak
   fun:_Znwm
   fun:_ZN3ns36CreateINS_19FunctorCallbackImplIPFPNS_10ObjectBaseEvES3_NS_5emptyES6_S6_S6_S6_S6_S6_S6_S6_EES5_EENS_3PtrIT_EET0_
   fun:_ZN3ns38CallbackIPNS_10ObjectBaseENS_5emptyES3_S3_S3_S3_S3_S3_S3_S3_EC1IPFS2_vEEERKT_bb
   fun:_ZN3ns312MakeCallbackIPNS_10ObjectBaseEEENS_8CallbackIT_NS_5emptyES5_S5_S5_S5_S5_S5_S5_S5_EEPFS4_vE
   fun:_ZN3ns36TypeId14AddConstructorINS_9ArpHeaderEEES0_v
   fun:_ZN3ns39ArpHeader9GetTypeIdEv
   fun:_ZN3ns327XArpHeaderRegistrationClassC1Ev
   fun:_Z41__static_initialization_and_destruction_0ii
   fun:_GLOBAL__I_arp_header.cc
   obj:/home/tazaki/hgworks/ns-3-dce-thehajime/build/lib/libns3-dev-internet-debug.so
   obj:/home/tazaki/hgworks/ns-3-dce-thehajime/build/lib/libns3-dev-internet-debug.so
   fun:vdl_list_iterate
}
{
   <insert_a_suppression_name_here>
   Memcheck:Leak
   fun:_Znwm
   fun:_ZN3ns324MakeObjectVectorAccessorINS_13TcpL4ProtocolESt6vectorINS_3PtrINS_13TcpSocketBaseEEESaIS5_EEEENS3_IKNS_17AttributeAccessorEEEMT_T0_
   fun:_ZN3ns313TcpL4Protocol9GetTypeIdEv
   fun:_ZN3ns331XTcpL4ProtocolRegistrationClassC1Ev
   fun:_Z41__static_initialization_and_destruction_0ii
   fun:_GLOBAL__I_tcp_l4_protocol.cc
   obj:/home/tazaki/hgworks/ns-3-dce-thehajime/build/lib/libns3-dev-internet-debug.so
   obj:/home/tazaki/hgworks/ns-3-dce-thehajime/build/lib/libns3-dev-internet-debug.so
   fun:vdl_list_iterate
   fun:vdl_init_call
   fun:dlopen_with_context
   fun:vdl_dlmopen
}
{
   <insert_a_suppression_name_here>
   Memcheck:Leak
   fun:_Znwm
   fun:_ZN3ns323DoMakeAccessorHelperOneINS_11TypeIdValueENS_13TcpL4ProtocolENS_6TypeIdEEENS_3PtrIKNS_17AttributeAccessorEEEMT0_T1_
   fun:_ZN3ns318MakeAccessorHelperINS_11TypeIdValueEMNS_13TcpL4ProtocolENS_6TypeIdEEENS_3PtrIKNS_17AttributeAccessorEEET0_
   fun:_ZN3ns318MakeTypeIdAccessorIMNS_13TcpL4ProtocolENS_6TypeIdEEENS_3PtrIKNS_17AttributeAccessorEEET_
   fun:_ZN3ns313TcpL4Protocol9GetTypeIdEv
   fun:_ZN3ns331XTcpL4ProtocolRegistrationClassC1Ev
   fun:_Z41__static_initialization_and_destruction_0ii
   fun:_GLOBAL__I_tcp_l4_protocol.cc
   obj:/home/tazaki/hgworks/ns-3-dce-thehajime/build/lib/libns3-dev-internet-debug.so
   obj:/home/tazaki/hgworks/ns-3-dce-thehajime/build/lib/libns3-dev-internet-debug.so
   fun:vdl_list_iterate
   fun:vdl_init_call
}
{
   <insert_a_suppression_name_here>
   Memcheck:Leak
   fun:_Znwm
   fun:_ZN3ns36CreateINS_19FunctorCallbackImplIPFPNS_10ObjectBaseEvES3_NS_5emptyES6_S6_S6_S6_S6_S6_S6_S6_EES5_EENS_3PtrIT_EET0_
   fun:_ZN3ns38CallbackIPNS_10ObjectBaseENS_5emptyES3_S3_S3_S3_S3_S3_S3_S3_EC1IPFS2_vEEERKT_bb
   fun:_ZN3ns312MakeCallbackIPNS_10ObjectBaseEEENS_8CallbackIT_NS_5emptyES5_S5_S5_S5_S5_S5_S5_S5_EEPFS4_vE
   fun:_ZN3ns36TypeId14AddConstructorINS_13TcpL4ProtocolEEES0_v
   fun:_ZN3ns313TcpL4Protocol9GetTypeIdEv
   fun:_ZN3ns331XTcpL4ProtocolRegistrationClassC1Ev
   fun:_Z41__static_initialization_and_destruction_0ii
   fun:_GLOBAL__I_tcp_l4_protocol.cc
   obj:/home/tazaki/hgworks/ns-3-dce-thehajime/build/lib/libns3-dev-internet-debug.so
   obj:/home/tazaki/hgworks/ns-3-dce-thehajime/build/lib/libns3-dev-internet-debug.so
   fun:vdl_list_iterate
}
{
   <insert_a_suppression_name_here>
   Memcheck:Leak
   fun:_Znwm
   fun:_ZN3ns36CreateINS_13UintegerValueES1_EENS_3PtrIT_EET0_
   fun:_ZNK3ns313UintegerValue4CopyEv
   fun:_ZN3ns36TypeId12AddAttributeESsSsRKNS_14AttributeValueENS_3PtrIKNS_17AttributeAccessorEEENS4_IKNS_16AttributeCheckerEEE
   fun:_ZN3ns39TcpSocket9GetTypeIdEv
   fun:_ZN3ns36TypeId9SetParentINS_9TcpSocketEEES0_v
   fun:_ZN3ns316NscTcpSocketImpl9GetTypeIdEv
   fun:_ZN3ns334XNscTcpSocketImplRegistrationClassC1Ev
   fun:_Z41__static_initialization_and_destruction_0ii
   fun:_GLOBAL__I_nsc_tcp_socket_impl.cc
   obj:/home/tazaki/hgworks/ns-3-dce-thehajime/build/lib/libns3-dev-internet-debug.so
   obj:/home/tazaki/hgworks/ns-3-dce-thehajime/build/lib/libns3-dev-internet-debug.so
}
{
   <insert_a_suppression_name_here>
   Memcheck:Leak
   fun:_Znwm
   fun:_ZN3ns36CreateINS_9TimeValueES1_EENS_3PtrIT_EET0_
   fun:_ZNK3ns39TimeValue4CopyEv
   fun:_ZN3ns36TypeId12AddAttributeESsSsRKNS_14AttributeValueENS_3PtrIKNS_17AttributeAccessorEEENS4_IKNS_16AttributeCheckerEEE
   fun:_ZN3ns39TcpSocket9GetTypeIdEv
   fun:_ZN3ns36TypeId9SetParentINS_9TcpSocketEEES0_v
   fun:_ZN3ns316NscTcpSocketImpl9GetTypeIdEv
   fun:_ZN3ns334XNscTcpSocketImplRegistrationClassC1Ev
   fun:_Z41__static_initialization_and_destruction_0ii
   fun:_GLOBAL__I_nsc_tcp_socket_impl.cc
   obj:/home/tazaki/hgworks/ns-3-dce-thehajime/build/lib/libns3-dev-internet-debug.so
   obj:/home/tazaki/hgworks/ns-3-dce-thehajime/build/lib/libns3-dev-internet-debug.so
}
{
   <insert_a_suppression_name_here>
   Memcheck:Leak
   fun:_Znwm
   fun:_ZN3ns323DoMakeAccessorHelperOneINS_12BooleanValueENS_17Ipv4GlobalRoutingEbEENS_3PtrIKNS_17AttributeAccessorEEEMT0_T1_
   fun:_ZN3ns318MakeAccessorHelperINS_12BooleanValueEMNS_17Ipv4GlobalRoutingEbEENS_3PtrIKNS_17AttributeAccessorEEET0_
   fun:_ZN3ns319MakeBooleanAccessorIMNS_17Ipv4GlobalRoutingEbEENS_3PtrIKNS_17AttributeAccessorEEET_
   fun:_ZN3ns317Ipv4GlobalRouting9GetTypeIdEv
   fun:_ZN3ns335XIpv4GlobalRoutingRegistrationClassC1Ev
   fun:_Z41__static_initialization_and_destruction_0ii
   fun:_GLOBAL__I_ipv4_global_routing.cc
   obj:/home/tazaki/hgworks/ns-3-dce-thehajime/build/lib/libns3-dev-internet-debug.so
   obj:/home/tazaki/hgworks/ns-3-dce-thehajime/build/lib/libns3-dev-internet-debug.so
   fun:vdl_list_iterate
   fun:vdl_init_call
}
{
   <insert_a_suppression_name_here>
   Memcheck:Leak
   fun:_Znwm
   fun:_ZN3ns36CreateINS_19FunctorCallbackImplIPFPNS_10ObjectBaseEvES3_NS_5emptyES6_S6_S6_S6_S6_S6_S6_S6_EES5_EENS_3PtrIT_EET0_
   fun:_ZN3ns38CallbackIPNS_10ObjectBaseENS_5emptyES3_S3_S3_S3_S3_S3_S3_S3_EC1IPFS2_vEEERKT_bb
   fun:_ZN3ns312MakeCallbackIPNS_10ObjectBaseEEENS_8CallbackIT_NS_5emptyES5_S5_S5_S5_S5_S5_S5_S5_EEPFS4_vE
   fun:_ZN3ns36TypeId14AddConstructorINS_17Ipv6StaticRoutingEEES0_v
   fun:_ZN3ns317Ipv6StaticRouting9GetTypeIdEv
   fun:_ZN3ns335XIpv6StaticRoutingRegistrationClassC1Ev
   fun:_Z41__static_initialization_and_destruction_0ii
   fun:_GLOBAL__I_ipv6_static_routing.cc
   obj:/home/tazaki/hgworks/ns-3-dce-thehajime/build/lib/libns3-dev-internet-debug.so
   obj:/home/tazaki/hgworks/ns-3-dce-thehajime/build/lib/libns3-dev-internet-debug.so
   fun:vdl_list_iterate
}
{
   <insert_a_suppression_name_here>
   Memcheck:Leak
   fun:_Znwm
   fun:_ZN3ns36CreateINS_19FunctorCallbackImplIPFPNS_10ObjectBaseEvES3_NS_5emptyES6_S6_S6_S6_S6_S6_S6_S6_EES5_EENS_3PtrIT_EET0_
   fun:_ZN3ns38CallbackIPNS_10ObjectBaseENS_5emptyES3_S3_S3_S3_S3_S3_S3_S3_EC1IPFS2_vEEERKT_bb
   fun:_ZN3ns312MakeCallbackIPNS_10ObjectBaseEEENS_8CallbackIT_NS_5emptyES5_S5_S5_S5_S5_S5_S5_S5_EEPFS4_vE
   fun:_ZN3ns36TypeId14AddConstructorINS_17Ipv4StaticRoutingEEES0_v
   fun:_ZN3ns317Ipv4StaticRouting9GetTypeIdEv
   fun:_ZN3ns335XIpv4StaticRoutingRegistrationClassC1Ev
   fun:_Z41__static_initialization_and_destruction_0ii
   fun:_GLOBAL__I_ipv4_static_routing.cc
   obj:/home/tazaki/hgworks/ns-3-dce-thehajime/build/lib/libns3-dev-internet-debug.so
   obj:/home/tazaki/hgworks/ns-3-dce-thehajime/build/lib/libns3-dev-internet-debug.so
   fun:vdl_list_iterate
}
{
   <insert_a_suppression_name_here>
   Memcheck:Leak
   fun:_Znwm
   fun:_ZN3ns36CreateINS_19FunctorCallbackImplIPFPNS_10ObjectBaseEvES3_NS_5emptyES6_S6_S6_S6_S6_S6_S6_S6_EES5_EENS_3PtrIT_EET0_
   fun:_ZN3ns38CallbackIPNS_10ObjectBaseENS_5emptyES3_S3_S3_S3_S3_S3_S3_S3_EC1IPFS2_vEEERKT_bb
   fun:_ZN3ns312MakeCallbackIPNS_10ObjectBaseEEENS_8CallbackIT_NS_5emptyES5_S5_S5_S5_S5_S5_S5_S5_EEPFS4_vE
   fun:_ZN3ns36TypeId14AddConstructorINS_15Ipv6ListRoutingEEES0_v
   fun:_ZN3ns315Ipv6ListRouting9GetTypeIdEv
   fun:_ZN3ns333XIpv6ListRoutingRegistrationClassC1Ev
   fun:_Z41__static_initialization_and_destruction_0ii
   fun:_GLOBAL__I_ipv6_list_routing.cc
   obj:/home/tazaki/hgworks/ns-3-dce-thehajime/build/lib/libns3-dev-internet-debug.so
   obj:/home/tazaki/hgworks/ns-3-dce-thehajime/build/lib/libns3-dev-internet-debug.so
   fun:vdl_list_iterate
}
{
   <insert_a_suppression_name_here>
   Memcheck:Leak
   fun:_Znwm
   fun:_ZN3ns36CreateINS_19FunctorCallbackImplIPFPNS_10ObjectBaseEvES3_NS_5emptyES6_S6_S6_S6_S6_S6_S6_S6_EES5_EENS_3PtrIT_EET0_
   fun:_ZN3ns38CallbackIPNS_10ObjectBaseENS_5emptyES3_S3_S3_S3_S3_S3_S3_S3_EC1IPFS2_vEEERKT_bb
   fun:_ZN3ns312MakeCallbackIPNS_10ObjectBaseEEENS_8CallbackIT_NS_5emptyES5_S5_S5_S5_S5_S5_S5_S5_EEPFS4_vE
   fun:_ZN3ns36TypeId14AddConstructorINS_15Ipv4ListRoutingEEES0_v
   fun:_ZN3ns315Ipv4ListRouting9GetTypeIdEv
   fun:_ZN3ns333XIpv4ListRoutingRegistrationClassC1Ev
   fun:_Z41__static_initialization_and_destruction_0ii
   fun:_GLOBAL__I_ipv4_list_routing.cc
   obj:/home/tazaki/hgworks/ns-3-dce-thehajime/build/lib/libns3-dev-internet-debug.so
   obj:/home/tazaki/hgworks/ns-3-dce-thehajime/build/lib/libns3-dev-internet-debug.so
   fun:vdl_list_iterate
}
{
   <insert_a_suppression_name_here>
   Memcheck:Leak
   fun:_Znwm
   fun:_ZN3ns36CreateINS_19FunctorCallbackImplIPFPNS_10ObjectBaseEvES3_NS_5emptyES6_S6_S6_S6_S6_S6_S6_S6_EES5_EENS_3PtrIT_EET0_
   fun:_ZN3ns38CallbackIPNS_10ObjectBaseENS_5emptyES3_S3_S3_S3_S3_S3_S3_S3_EC1IPFS2_vEEERKT_bb
   fun:_ZN3ns312MakeCallbackIPNS_10ObjectBaseEEENS_8CallbackIT_NS_5emptyES5_S5_S5_S5_S5_S5_S5_S5_EEPFS4_vE
   fun:_ZN3ns36TypeId14AddConstructorINS_10Ipv6HeaderEEES0_v
   fun:_ZN3ns310Ipv6Header9GetTypeIdEv
   fun:_ZN3ns328XIpv6HeaderRegistrationClassC1Ev
   fun:_Z41__static_initialization_and_destruction_0ii
   fun:_GLOBAL__I_ipv6_header.cc
   obj:/home/tazaki/hgworks/ns-3-dce-thehajime/build/lib/libns3-dev-internet-debug.so
   obj:/home/tazaki/hgworks/ns-3-dce-thehajime/build/lib/libns3-dev-internet-debug.so
   fun:vdl_list_iterate
}
{
   <insert_a_suppression_name_here>
   Memcheck:Leak
   fun:_Znwm
   fun:_ZN3ns36CreateINS_13UintegerValueES1_EENS_3PtrIT_EET0_
   fun:_ZNK3ns313UintegerValue4CopyEv
   fun:_ZN3ns36TypeId12AddAttributeESsSsRKNS_14AttributeValueENS_3PtrIKNS_17AttributeAccessorEEENS4_IKNS_16AttributeCheckerEEE
   fun:_ZN3ns39UdpSocket9GetTypeIdEv
   fun:_ZN3ns327XUdpSocketRegistrationClassC1Ev
   fun:_Z41__static_initialization_and_destruction_0ii
   fun:_GLOBAL__I_udp_socket.cc
   obj:/home/tazaki/hgworks/ns-3-dce-thehajime/build/lib/libns3-dev-internet-debug.so
   obj:/home/tazaki/hgworks/ns-3-dce-thehajime/build/lib/libns3-dev-internet-debug.so
   fun:vdl_list_iterate
   fun:vdl_init_call
}
{
   <insert_a_suppression_name_here>
   Memcheck:Leak
   fun:_Znwm
   fun:_ZN3ns36CreateINS_12IntegerValueES1_EENS_3PtrIT_EET0_
   fun:_ZNK3ns312IntegerValue4CopyEv
   fun:_ZN3ns36TypeId12AddAttributeESsSsRKNS_14AttributeValueENS_3PtrIKNS_17AttributeAccessorEEENS4_IKNS_16AttributeCheckerEEE
   fun:_ZN3ns39UdpSocket9GetTypeIdEv
   fun:_ZN3ns327XUdpSocketRegistrationClassC1Ev
   fun:_Z41__static_initialization_and_destruction_0ii
   fun:_GLOBAL__I_udp_socket.cc
   obj:/home/tazaki/hgworks/ns-3-dce-thehajime/build/lib/libns3-dev-internet-debug.so
   obj:/home/tazaki/hgworks/ns-3-dce-thehajime/build/lib/libns3-dev-internet-debug.so
   fun:vdl_list_iterate
   fun:vdl_init_call
}
{
   <insert_a_suppression_name_here>
   Memcheck:Leak
   fun:_Znwm
   fun:_ZN3ns36CreateINS_19FunctorCallbackImplIPFPNS_10ObjectBaseEvES3_NS_5emptyES6_S6_S6_S6_S6_S6_S6_S6_EES5_EENS_3PtrIT_EET0_
   fun:_ZN3ns38CallbackIPNS_10ObjectBaseENS_5emptyES3_S3_S3_S3_S3_S3_S3_S3_EC1IPFS2_vEEERKT_bb
   fun:_ZN3ns312MakeCallbackIPNS_10ObjectBaseEEENS_8CallbackIT_NS_5emptyES5_S5_S5_S5_S5_S5_S5_S5_EEPFS4_vE
   fun:_ZN3ns36TypeId14AddConstructorINS_10Ipv4HeaderEEES0_v
   fun:_ZN3ns310Ipv4Header9GetTypeIdEv
   fun:_ZN3ns328XIpv4HeaderRegistrationClassC1Ev
   fun:_Z41__static_initialization_and_destruction_0ii
   fun:_GLOBAL__I_ipv4_header.cc
   obj:/home/tazaki/hgworks/ns-3-dce-thehajime/build/lib/libns3-dev-internet-debug.so
   obj:/home/tazaki/hgworks/ns-3-dce-thehajime/build/lib/libns3-dev-internet-debug.so
   fun:vdl_list_iterate
}
{
   <insert_a_suppression_name_here>
   Memcheck:Leak
   fun:_Znwm
   fun:_ZN3ns325DoMakeTraceSourceAccessorINS_10TcpNewRenoENS_11TracedValueIjEEEENS_3PtrIKNS_19TraceSourceAccessorEEEMT_T0_
   fun:_ZN3ns323MakeTraceSourceAccessorIMNS_10TcpNewRenoENS_11TracedValueIjEEEENS_3PtrIKNS_19TraceSourceAccessorEEET_
   fun:_ZN3ns310TcpNewReno9GetTypeIdEv
   fun:_ZN3ns328XTcpNewRenoRegistrationClassC1Ev
   fun:_Z41__static_initialization_and_destruction_0ii
   fun:_GLOBAL__I_tcp_newreno.cc
   obj:/home/tazaki/hgworks/ns-3-dce-thehajime/build/lib/libns3-dev-internet-debug.so
   obj:/home/tazaki/hgworks/ns-3-dce-thehajime/build/lib/libns3-dev-internet-debug.so
   fun:vdl_list_iterate
   fun:vdl_init_call
   fun:dlopen_with_context
}
{
   <insert_a_suppression_name_here>
   Memcheck:Leak
   fun:_Znwm
   fun:_ZN3ns323DoMakeAccessorHelperOneINS_12BooleanValueENS_10TcpNewRenoEbEENS_3PtrIKNS_17AttributeAccessorEEEMT0_T1_
   fun:_ZN3ns318MakeAccessorHelperINS_12BooleanValueEMNS_10TcpNewRenoEbEENS_3PtrIKNS_17AttributeAccessorEEET0_
   fun:_ZN3ns319MakeBooleanAccessorIMNS_10TcpNewRenoEbEENS_3PtrIKNS_17AttributeAccessorEEET_
   fun:_ZN3ns310TcpNewReno9GetTypeIdEv
   fun:_ZN3ns328XTcpNewRenoRegistrationClassC1Ev
   fun:_Z41__static_initialization_and_destruction_0ii
   fun:_GLOBAL__I_tcp_newreno.cc
   obj:/home/tazaki/hgworks/ns-3-dce-thehajime/build/lib/libns3-dev-internet-debug.so
   obj:/home/tazaki/hgworks/ns-3-dce-thehajime/build/lib/libns3-dev-internet-debug.so
   fun:vdl_list_iterate
   fun:vdl_init_call
}
{
   <insert_a_suppression_name_here>
   Memcheck:Leak
   fun:_Znwm
   fun:_ZN3ns323DoMakeAccessorHelperOneINS_13UintegerValueENS_10TcpNewRenoEjEENS_3PtrIKNS_17AttributeAccessorEEEMT0_T1_
   fun:_ZN3ns318MakeAccessorHelperINS_13UintegerValueEMNS_10TcpNewRenoEjEENS_3PtrIKNS_17AttributeAccessorEEET0_
   fun:_ZN3ns320MakeUintegerAccessorIMNS_10TcpNewRenoEjEENS_3PtrIKNS_17AttributeAccessorEEET_
   fun:_ZN3ns310TcpNewReno9GetTypeIdEv
   fun:_ZN3ns328XTcpNewRenoRegistrationClassC1Ev
   fun:_Z41__static_initialization_and_destruction_0ii
   fun:_GLOBAL__I_tcp_newreno.cc
   obj:/home/tazaki/hgworks/ns-3-dce-thehajime/build/lib/libns3-dev-internet-debug.so
   obj:/home/tazaki/hgworks/ns-3-dce-thehajime/build/lib/libns3-dev-internet-debug.so
   fun:vdl_list_iterate
   fun:vdl_init_call
}
{
   <insert_a_suppression_name_here>
   Memcheck:Leak
   fun:_Znwm
   fun:_ZN3ns325DoMakeTraceSourceAccessorINS_13TcpSocketBaseENS_11TracedValueIjEEEENS_3PtrIKNS_19TraceSourceAccessorEEEMT_T0_
   fun:_ZN3ns323MakeTraceSourceAccessorIMNS_13TcpSocketBaseENS_11TracedValueIjEEEENS_3PtrIKNS_19TraceSourceAccessorEEET_
   fun:_ZN3ns313TcpSocketBase9GetTypeIdEv
   fun:_ZN3ns36TypeId9SetParentINS_13TcpSocketBaseEEES0_v
   fun:_ZN3ns310TcpNewReno9GetTypeIdEv
   fun:_ZN3ns328XTcpNewRenoRegistrationClassC1Ev
   fun:_Z41__static_initialization_and_destruction_0ii
   fun:_GLOBAL__I_tcp_newreno.cc
   obj:/home/tazaki/hgworks/ns-3-dce-thehajime/build/lib/libns3-dev-internet-debug.so
   obj:/home/tazaki/hgworks/ns-3-dce-thehajime/build/lib/libns3-dev-internet-debug.so
   fun:vdl_list_iterate
}
{
   <insert_a_suppression_name_here>
   Memcheck:Leak
   fun:_Znwm
   fun:_ZN3ns325DoMakeTraceSourceAccessorINS_13TcpSocketBaseENS_11TracedValueINS_11TcpStates_tEEEEENS_3PtrIKNS_19TraceSourceAccessorEEEMT_T0_
   fun:_ZN3ns323MakeTraceSourceAccessorIMNS_13TcpSocketBaseENS_11TracedValueINS_11TcpStates_tEEEEENS_3PtrIKNS_19TraceSourceAccessorEEET_
   fun:_ZN3ns313TcpSocketBase9GetTypeIdEv
   fun:_ZN3ns36TypeId9SetParentINS_13TcpSocketBaseEEES0_v
   fun:_ZN3ns310TcpNewReno9GetTypeIdEv
   fun:_ZN3ns328XTcpNewRenoRegistrationClassC1Ev
   fun:_Z41__static_initialization_and_destruction_0ii
   fun:_GLOBAL__I_tcp_newreno.cc
   obj:/home/tazaki/hgworks/ns-3-dce-thehajime/build/lib/libns3-dev-internet-debug.so
   obj:/home/tazaki/hgworks/ns-3-dce-thehajime/build/lib/libns3-dev-internet-debug.so
   fun:vdl_list_iterate
}
{
   <insert_a_suppression_name_here>
   Memcheck:Leak
   fun:_Znwm
   fun:_ZN3ns325DoMakeTraceSourceAccessorINS_13TcpSocketBaseENS_11TracedValueINS_14SequenceNumberIjiEEEEEENS_3PtrIKNS_19TraceSourceAccessorEEEMT_T0_
   fun:_ZN3ns323MakeTraceSourceAccessorIMNS_13TcpSocketBaseENS_11TracedValueINS_14SequenceNumberIjiEEEEEENS_3PtrIKNS_19TraceSourceAccessorEEET_
   fun:_ZN3ns313TcpSocketBase9GetTypeIdEv
   fun:_ZN3ns36TypeId9SetParentINS_13TcpSocketBaseEEES0_v
   fun:_ZN3ns310TcpNewReno9GetTypeIdEv
   fun:_ZN3ns328XTcpNewRenoRegistrationClassC1Ev
   fun:_Z41__static_initialization_and_destruction_0ii
   fun:_GLOBAL__I_tcp_newreno.cc
   obj:/home/tazaki/hgworks/ns-3-dce-thehajime/build/lib/libns3-dev-internet-debug.so
   obj:/home/tazaki/hgworks/ns-3-dce-thehajime/build/lib/libns3-dev-internet-debug.so
   fun:vdl_list_iterate
}
{
   <insert_a_suppression_name_here>
   Memcheck:Leak
   fun:_Znwm
   fun:_ZN3ns325DoMakeTraceSourceAccessorINS_13TcpSocketBaseENS_11TracedValueINS_4TimeEEEEENS_3PtrIKNS_19TraceSourceAccessorEEEMT_T0_
   fun:_ZN3ns323MakeTraceSourceAccessorIMNS_13TcpSocketBaseENS_11TracedValueINS_4TimeEEEEENS_3PtrIKNS_19TraceSourceAccessorEEET_
   fun:_ZN3ns313TcpSocketBase9GetTypeIdEv
   fun:_ZN3ns36TypeId9SetParentINS_13TcpSocketBaseEEES0_v
   fun:_ZN3ns310TcpNewReno9GetTypeIdEv
   fun:_ZN3ns328XTcpNewRenoRegistrationClassC1Ev
   fun:_Z41__static_initialization_and_destruction_0ii
   fun:_GLOBAL__I_tcp_newreno.cc
   obj:/home/tazaki/hgworks/ns-3-dce-thehajime/build/lib/libns3-dev-internet-debug.so
   obj:/home/tazaki/hgworks/ns-3-dce-thehajime/build/lib/libns3-dev-internet-debug.so
   fun:vdl_list_iterate
}
{
   <insert_a_suppression_name_here>
   Memcheck:Leak
   fun:_Znwm
   fun:_ZN3ns323DoMakeAccessorHelperOneINS_13UintegerValueENS_13TcpSocketBaseEtEENS_3PtrIKNS_17AttributeAccessorEEEMT0_T1_
   fun:_ZN3ns318MakeAccessorHelperINS_13UintegerValueEMNS_13TcpSocketBaseEtEENS_3PtrIKNS_17AttributeAccessorEEET0_
   fun:_ZN3ns320MakeUintegerAccessorIMNS_13TcpSocketBaseEtEENS_3PtrIKNS_17AttributeAccessorEEET_
   fun:_ZN3ns313TcpSocketBase9GetTypeIdEv
   fun:_ZN3ns36TypeId9SetParentINS_13TcpSocketBaseEEES0_v
   fun:_ZN3ns310TcpNewReno9GetTypeIdEv
   fun:_ZN3ns328XTcpNewRenoRegistrationClassC1Ev
   fun:_Z41__static_initialization_and_destruction_0ii
   fun:_GLOBAL__I_tcp_newreno.cc
   obj:/home/tazaki/hgworks/ns-3-dce-thehajime/build/lib/libns3-dev-internet-debug.so
   obj:/home/tazaki/hgworks/ns-3-dce-thehajime/build/lib/libns3-dev-internet-debug.so
}
{
   <insert_a_suppression_name_here>
   Memcheck:Leak
   fun:_Znwm
   fun:_ZN3ns323DoMakeAccessorHelperOneINS_11DoubleValueENS_13TcpSocketBaseEdEENS_3PtrIKNS_17AttributeAccessorEEEMT0_T1_
   fun:_ZN3ns318MakeAccessorHelperINS_11DoubleValueEMNS_13TcpSocketBaseEdEENS_3PtrIKNS_17AttributeAccessorEEET0_
   fun:_ZN3ns318MakeDoubleAccessorIMNS_13TcpSocketBaseEdEENS_3PtrIKNS_17AttributeAccessorEEET_
   fun:_ZN3ns313TcpSocketBase9GetTypeIdEv
   fun:_ZN3ns36TypeId9SetParentINS_13TcpSocketBaseEEES0_v
   fun:_ZN3ns310TcpNewReno9GetTypeIdEv
   fun:_ZN3ns328XTcpNewRenoRegistrationClassC1Ev
   fun:_Z41__static_initialization_and_destruction_0ii
   fun:_GLOBAL__I_tcp_newreno.cc
   obj:/home/tazaki/hgworks/ns-3-dce-thehajime/build/lib/libns3-dev-internet-debug.so
   obj:/home/tazaki/hgworks/ns-3-dce-thehajime/build/lib/libns3-dev-internet-debug.so
}
{
   <insert_a_suppression_name_here>
   Memcheck:Leak
   fun:_Znwm
   fun:_ZN3ns36CreateINS_11DoubleValueES1_EENS_3PtrIT_EET0_
   fun:_ZNK3ns311DoubleValue4CopyEv
   fun:_ZN3ns36TypeId12AddAttributeESsSsRKNS_14AttributeValueENS_3PtrIKNS_17AttributeAccessorEEENS4_IKNS_16AttributeCheckerEEE
   fun:_ZN3ns313TcpSocketBase9GetTypeIdEv
   fun:_ZN3ns36TypeId9SetParentINS_13TcpSocketBaseEEES0_v
   fun:_ZN3ns310TcpNewReno9GetTypeIdEv
   fun:_ZN3ns328XTcpNewRenoRegistrationClassC1Ev
   fun:_Z41__static_initialization_and_destruction_0ii
   fun:_GLOBAL__I_tcp_newreno.cc
   obj:/home/tazaki/hgworks/ns-3-dce-thehajime/build/lib/libns3-dev-internet-debug.so
   obj:/home/tazaki/hgworks/ns-3-dce-thehajime/build/lib/libns3-dev-internet-debug.so
}
{
   <insert_a_suppression_name_here>
   Memcheck:Leak
   fun:_Znwm
   fun:_ZN3ns36CreateINS_13UintegerValueES1_EENS_3PtrIT_EET0_
   fun:_ZNK3ns313UintegerValue4CopyEv
   fun:_ZN3ns36TypeId12AddAttributeESsSsRKNS_14AttributeValueENS_3PtrIKNS_17AttributeAccessorEEENS4_IKNS_16AttributeCheckerEEE
   fun:_ZN3ns313TcpSocketBase9GetTypeIdEv
   fun:_ZN3ns36TypeId9SetParentINS_13TcpSocketBaseEEES0_v
   fun:_ZN3ns310TcpNewReno9GetTypeIdEv
   fun:_ZN3ns328XTcpNewRenoRegistrationClassC1Ev
   fun:_Z41__static_initialization_and_destruction_0ii
   fun:_GLOBAL__I_tcp_newreno.cc
   obj:/home/tazaki/hgworks/ns-3-dce-thehajime/build/lib/libns3-dev-internet-debug.so
   obj:/home/tazaki/hgworks/ns-3-dce-thehajime/build/lib/libns3-dev-internet-debug.so
}
{
   <insert_a_suppression_name_here>
   Memcheck:Leak
   fun:_Znwm
   fun:_ZN3ns36CreateINS_19FunctorCallbackImplIPFPNS_10ObjectBaseEvES3_NS_5emptyES6_S6_S6_S6_S6_S6_S6_S6_EES5_EENS_3PtrIT_EET0_
   fun:_ZN3ns38CallbackIPNS_10ObjectBaseENS_5emptyES3_S3_S3_S3_S3_S3_S3_S3_EC1IPFS2_vEEERKT_bb
   fun:_ZN3ns312MakeCallbackIPNS_10ObjectBaseEEENS_8CallbackIT_NS_5emptyES5_S5_S5_S5_S5_S5_S5_S5_EEPFS4_vE
   fun:_ZN3ns36TypeId14AddConstructorINS_10TcpNewRenoEEES0_v
   fun:_ZN3ns310TcpNewReno9GetTypeIdEv
   fun:_ZN3ns328XTcpNewRenoRegistrationClassC1Ev
   fun:_Z41__static_initialization_and_destruction_0ii
   fun:_GLOBAL__I_tcp_newreno.cc
   obj:/home/tazaki/hgworks/ns-3-dce-thehajime/build/lib/libns3-dev-internet-debug.so
   obj:/home/tazaki/hgworks/ns-3-dce-thehajime/build/lib/libns3-dev-internet-debug.so
   fun:vdl_list_iterate
}
{
   <insert_a_suppression_name_here>
   Memcheck:Leak
   fun:_Znwm
   fun:_ZN3ns36CreateINS_13UintegerValueES1_EENS_3PtrIT_EET0_
   fun:_ZNK3ns313UintegerValue4CopyEv
   fun:_ZN3ns36TypeId12AddAttributeESsSsRKNS_14AttributeValueENS_3PtrIKNS_17AttributeAccessorEEENS4_IKNS_16AttributeCheckerEEE
   fun:_ZN3ns310TcpNewReno9GetTypeIdEv
   fun:_ZN3ns328XTcpNewRenoRegistrationClassC1Ev
   fun:_Z41__static_initialization_and_destruction_0ii
   fun:_GLOBAL__I_tcp_newreno.cc
   obj:/home/tazaki/hgworks/ns-3-dce-thehajime/build/lib/libns3-dev-internet-debug.so
   obj:/home/tazaki/hgworks/ns-3-dce-thehajime/build/lib/libns3-dev-internet-debug.so
   fun:vdl_list_iterate
   fun:vdl_init_call
}
{
   <insert_a_suppression_name_here>
   Memcheck:Leak
   fun:_Znwm
   fun:_ZN3ns325DoMakeTraceSourceAccessorINS_7TcpRenoENS_11TracedValueIjEEEENS_3PtrIKNS_19TraceSourceAccessorEEEMT_T0_
   fun:_ZN3ns323MakeTraceSourceAccessorIMNS_7TcpRenoENS_11TracedValueIjEEEENS_3PtrIKNS_19TraceSourceAccessorEEET_
   fun:_ZN3ns37TcpReno9GetTypeIdEv
   fun:_ZN3ns325XTcpRenoRegistrationClassC1Ev
   fun:_Z41__static_initialization_and_destruction_0ii
   fun:_GLOBAL__I_tcp_reno.cc
   obj:/home/tazaki/hgworks/ns-3-dce-thehajime/build/lib/libns3-dev-internet-debug.so
   obj:/home/tazaki/hgworks/ns-3-dce-thehajime/build/lib/libns3-dev-internet-debug.so
   fun:vdl_list_iterate
   fun:vdl_init_call
   fun:dlopen_with_context
}
{
   <insert_a_suppression_name_here>
   Memcheck:Leak
   fun:_Znwm
   fun:_ZN3ns323DoMakeAccessorHelperOneINS_13UintegerValueENS_7TcpRenoEjEENS_3PtrIKNS_17AttributeAccessorEEEMT0_T1_
   fun:_ZN3ns318MakeAccessorHelperINS_13UintegerValueEMNS_7TcpRenoEjEENS_3PtrIKNS_17AttributeAccessorEEET0_
   fun:_ZN3ns320MakeUintegerAccessorIMNS_7TcpRenoEjEENS_3PtrIKNS_17AttributeAccessorEEET_
   fun:_ZN3ns37TcpReno9GetTypeIdEv
   fun:_ZN3ns325XTcpRenoRegistrationClassC1Ev
   fun:_Z41__static_initialization_and_destruction_0ii
   fun:_GLOBAL__I_tcp_reno.cc
   obj:/home/tazaki/hgworks/ns-3-dce-thehajime/build/lib/libns3-dev-internet-debug.so
   obj:/home/tazaki/hgworks/ns-3-dce-thehajime/build/lib/libns3-dev-internet-debug.so
   fun:vdl_list_iterate
   fun:vdl_init_call
}
{
   <insert_a_suppression_name_here>
   Memcheck:Leak
   fun:_Znwm
   fun:_ZN3ns36CreateINS_19FunctorCallbackImplIPFPNS_10ObjectBaseEvES3_NS_5emptyES6_S6_S6_S6_S6_S6_S6_S6_EES5_EENS_3PtrIT_EET0_
   fun:_ZN3ns38CallbackIPNS_10ObjectBaseENS_5emptyES3_S3_S3_S3_S3_S3_S3_S3_EC1IPFS2_vEEERKT_bb
   fun:_ZN3ns312MakeCallbackIPNS_10ObjectBaseEEENS_8CallbackIT_NS_5emptyES5_S5_S5_S5_S5_S5_S5_S5_EEPFS4_vE
   fun:_ZN3ns36TypeId14AddConstructorINS_7TcpRenoEEES0_v
   fun:_ZN3ns37TcpReno9GetTypeIdEv
   fun:_ZN3ns325XTcpRenoRegistrationClassC1Ev
   fun:_Z41__static_initialization_and_destruction_0ii
   fun:_GLOBAL__I_tcp_reno.cc
   obj:/home/tazaki/hgworks/ns-3-dce-thehajime/build/lib/libns3-dev-internet-debug.so
   obj:/home/tazaki/hgworks/ns-3-dce-thehajime/build/lib/libns3-dev-internet-debug.so
   fun:vdl_list_iterate
}
{
   <insert_a_suppression_name_here>
   Memcheck:Leak
   fun:_Znwm
   fun:_ZN3ns36CreateINS_13UintegerValueES1_EENS_3PtrIT_EET0_
   fun:_ZNK3ns313UintegerValue4CopyEv
   fun:_ZN3ns36TypeId12AddAttributeESsSsRKNS_14AttributeValueENS_3PtrIKNS_17AttributeAccessorEEENS4_IKNS_16AttributeCheckerEEE
   fun:_ZN3ns37TcpReno9GetTypeIdEv
   fun:_ZN3ns325XTcpRenoRegistrationClassC1Ev
   fun:_Z41__static_initialization_and_destruction_0ii
   fun:_GLOBAL__I_tcp_reno.cc
   obj:/home/tazaki/hgworks/ns-3-dce-thehajime/build/lib/libns3-dev-internet-debug.so
   obj:/home/tazaki/hgworks/ns-3-dce-thehajime/build/lib/libns3-dev-internet-debug.so
   fun:vdl_list_iterate
   fun:vdl_init_call
}
{
   <insert_a_suppression_name_here>
   Memcheck:Leak
   fun:_Znwm
   fun:_ZN3ns325DoMakeTraceSourceAccessorINS_8TcpTahoeENS_11TracedValueIjEEEENS_3PtrIKNS_19TraceSourceAccessorEEEMT_T0_
   fun:_ZN3ns323MakeTraceSourceAccessorIMNS_8TcpTahoeENS_11TracedValueIjEEEENS_3PtrIKNS_19TraceSourceAccessorEEET_
   fun:_ZN3ns38TcpTahoe9GetTypeIdEv
   fun:_ZN3ns326XTcpTahoeRegistrationClassC1Ev
   fun:_Z41__static_initialization_and_destruction_0ii
   fun:_GLOBAL__I_tcp_tahoe.cc
   obj:/home/tazaki/hgworks/ns-3-dce-thehajime/build/lib/libns3-dev-internet-debug.so
   obj:/home/tazaki/hgworks/ns-3-dce-thehajime/build/lib/libns3-dev-internet-debug.so
   fun:vdl_list_iterate
   fun:vdl_init_call
   fun:dlopen_with_context
}
{
   <insert_a_suppression_name_here>
   Memcheck:Leak
   fun:_Znwm
   fun:_ZN3ns323DoMakeAccessorHelperOneINS_13UintegerValueENS_8TcpTahoeEjEENS_3PtrIKNS_17AttributeAccessorEEEMT0_T1_
   fun:_ZN3ns318MakeAccessorHelperINS_13UintegerValueEMNS_8TcpTahoeEjEENS_3PtrIKNS_17AttributeAccessorEEET0_
   fun:_ZN3ns320MakeUintegerAccessorIMNS_8TcpTahoeEjEENS_3PtrIKNS_17AttributeAccessorEEET_
   fun:_ZN3ns38TcpTahoe9GetTypeIdEv
   fun:_ZN3ns326XTcpTahoeRegistrationClassC1Ev
   fun:_Z41__static_initialization_and_destruction_0ii
   fun:_GLOBAL__I_tcp_tahoe.cc
   obj:/home/tazaki/hgworks/ns-3-dce-thehajime/build/lib/libns3-dev-internet-debug.so
   obj:/home/tazaki/hgworks/ns-3-dce-thehajime/build/lib/libns3-dev-internet-debug.so
   fun:vdl_list_iterate
   fun:vdl_init_call
}
{
   <insert_a_suppression_name_here>
   Memcheck:Leak
   fun:_Znwm
   fun:_ZN3ns36CreateINS_19FunctorCallbackImplIPFPNS_10ObjectBaseEvES3_NS_5emptyES6_S6_S6_S6_S6_S6_S6_S6_EES5_EENS_3PtrIT_EET0_
   fun:_ZN3ns38CallbackIPNS_10ObjectBaseENS_5emptyES3_S3_S3_S3_S3_S3_S3_S3_EC1IPFS2_vEEERKT_bb
   fun:_ZN3ns312MakeCallbackIPNS_10ObjectBaseEEENS_8CallbackIT_NS_5emptyES5_S5_S5_S5_S5_S5_S5_S5_EEPFS4_vE
   fun:_ZN3ns36TypeId14AddConstructorINS_8TcpTahoeEEES0_v
   fun:_ZN3ns38TcpTahoe9GetTypeIdEv
   fun:_ZN3ns326XTcpTahoeRegistrationClassC1Ev
   fun:_Z41__static_initialization_and_destruction_0ii
   fun:_GLOBAL__I_tcp_tahoe.cc
   obj:/home/tazaki/hgworks/ns-3-dce-thehajime/build/lib/libns3-dev-internet-debug.so
   obj:/home/tazaki/hgworks/ns-3-dce-thehajime/build/lib/libns3-dev-internet-debug.so
   fun:vdl_list_iterate
}
{
   <insert_a_suppression_name_here>
   Memcheck:Leak
   fun:_Znwm
   fun:_ZN3ns36CreateINS_13UintegerValueES1_EENS_3PtrIT_EET0_
   fun:_ZNK3ns313UintegerValue4CopyEv
   fun:_ZN3ns36TypeId12AddAttributeESsSsRKNS_14AttributeValueENS_3PtrIKNS_17AttributeAccessorEEENS4_IKNS_16AttributeCheckerEEE
   fun:_ZN3ns38TcpTahoe9GetTypeIdEv
   fun:_ZN3ns326XTcpTahoeRegistrationClassC1Ev
   fun:_Z41__static_initialization_and_destruction_0ii
   fun:_GLOBAL__I_tcp_tahoe.cc
   obj:/home/tazaki/hgworks/ns-3-dce-thehajime/build/lib/libns3-dev-internet-debug.so
   obj:/home/tazaki/hgworks/ns-3-dce-thehajime/build/lib/libns3-dev-internet-debug.so
   fun:vdl_list_iterate
   fun:vdl_init_call
}
{
   <insert_a_suppression_name_here>
   Memcheck:Leak
   fun:_Znwm
   fun:_ZN3ns36CreateINS_19FunctorCallbackImplIPFPNS_10ObjectBaseEvES3_NS_5emptyES6_S6_S6_S6_S6_S6_S6_S6_EES5_EENS_3PtrIT_EET0_
   fun:_ZN3ns38CallbackIPNS_10ObjectBaseENS_5emptyES3_S3_S3_S3_S3_S3_S3_S3_EC1IPFS2_vEEERKT_bb
   fun:_ZN3ns312MakeCallbackIPNS_10ObjectBaseEEENS_8CallbackIT_NS_5emptyES5_S5_S5_S5_S5_S5_S5_S5_EEPFS4_vE
   fun:_ZN3ns36TypeId14AddConstructorINS_9TcpRfc793EEES0_v
   fun:_ZN3ns39TcpRfc7939GetTypeIdEv
   fun:_ZN3ns327XTcpRfc793RegistrationClassC1Ev
   fun:_Z41__static_initialization_and_destruction_0ii
   fun:_GLOBAL__I_tcp_rfc793.cc
   obj:/home/tazaki/hgworks/ns-3-dce-thehajime/build/lib/libns3-dev-internet-debug.so
   obj:/home/tazaki/hgworks/ns-3-dce-thehajime/build/lib/libns3-dev-internet-debug.so
   fun:vdl_list_iterate
}
{
   <insert_a_suppression_name_here>
   Memcheck:Leak
   fun:_Znwm
   fun:_ZN3ns323DoMakeAccessorHelperOneINS_12BooleanValueENS_16Icmpv6L4ProtocolEbEENS_3PtrIKNS_17AttributeAccessorEEEMT0_T1_
   fun:_ZN3ns318MakeAccessorHelperINS_12BooleanValueEMNS_16Icmpv6L4ProtocolEbEENS_3PtrIKNS_17AttributeAccessorEEET0_
   fun:_ZN3ns319MakeBooleanAccessorIMNS_16Icmpv6L4ProtocolEbEENS_3PtrIKNS_17AttributeAccessorEEET_
   fun:_ZN3ns316Icmpv6L4Protocol9GetTypeIdEv
   fun:_ZN3ns334XIcmpv6L4ProtocolRegistrationClassC1Ev
   fun:_Z41__static_initialization_and_destruction_0ii
   fun:_GLOBAL__I_icmpv6_l4_protocol.cc
   obj:/home/tazaki/hgworks/ns-3-dce-thehajime/build/lib/libns3-dev-internet-debug.so
   obj:/home/tazaki/hgworks/ns-3-dce-thehajime/build/lib/libns3-dev-internet-debug.so
   fun:vdl_list_iterate
   fun:vdl_init_call
}
{
   <insert_a_suppression_name_here>
   Memcheck:Leak
   fun:_Znwm
   fun:_ZN3ns36CreateINS_19FunctorCallbackImplIPFPNS_10ObjectBaseEvES3_NS_5emptyES6_S6_S6_S6_S6_S6_S6_S6_EES5_EENS_3PtrIT_EET0_
   fun:_ZN3ns38CallbackIPNS_10ObjectBaseENS_5emptyES3_S3_S3_S3_S3_S3_S3_S3_EC1IPFS2_vEEERKT_bb
   fun:_ZN3ns312MakeCallbackIPNS_10ObjectBaseEEENS_8CallbackIT_NS_5emptyES5_S5_S5_S5_S5_S5_S5_S5_EEPFS4_vE
   fun:_ZN3ns36TypeId14AddConstructorINS_16Icmpv6L4ProtocolEEES0_v
   fun:_ZN3ns316Icmpv6L4Protocol9GetTypeIdEv
   fun:_ZN3ns334XIcmpv6L4ProtocolRegistrationClassC1Ev
   fun:_Z41__static_initialization_and_destruction_0ii
   fun:_GLOBAL__I_icmpv6_l4_protocol.cc
   obj:/home/tazaki/hgworks/ns-3-dce-thehajime/build/lib/libns3-dev-internet-debug.so
   obj:/home/tazaki/hgworks/ns-3-dce-thehajime/build/lib/libns3-dev-internet-debug.so
   fun:vdl_list_iterate
}
{
   <insert_a_suppression_name_here>
   Memcheck:Leak
   fun:_Znwm
   fun:_ZN3ns324MakeObjectVectorAccessorINS_15Ipv6OptionDemuxESt4listINS_3PtrINS_10Ipv6OptionEEESaIS5_EEEENS3_IKNS_17AttributeAccessorEEEMT_T0_
   fun:_ZN3ns315Ipv6OptionDemux9GetTypeIdEv
   fun:_ZN3ns333XIpv6OptionDemuxRegistrationClassC1Ev
   fun:_Z41__static_initialization_and_destruction_0ii
   fun:_GLOBAL__I_ipv6_option_demux.cc
   obj:/home/tazaki/hgworks/ns-3-dce-thehajime/build/lib/libns3-dev-internet-debug.so
   obj:/home/tazaki/hgworks/ns-3-dce-thehajime/build/lib/libns3-dev-internet-debug.so
   fun:vdl_list_iterate
   fun:vdl_init_call
   fun:dlopen_with_context
   fun:vdl_dlmopen
}
{
   <insert_a_suppression_name_here>
   Memcheck:Leak
   fun:_Znwm
   fun:_ZN3ns36CreateINS_19FunctorCallbackImplIPFPNS_10ObjectBaseEvES3_NS_5emptyES6_S6_S6_S6_S6_S6_S6_S6_EES5_EENS_3PtrIT_EET0_
   fun:_ZN3ns38CallbackIPNS_10ObjectBaseENS_5emptyES3_S3_S3_S3_S3_S3_S3_S3_EC1IPFS2_vEEERKT_bb
   fun:_ZN3ns312MakeCallbackIPNS_10ObjectBaseEEENS_8CallbackIT_NS_5emptyES5_S5_S5_S5_S5_S5_S5_S5_EEPFS4_vE
   fun:_ZN3ns36TypeId14AddConstructorINS_16Ipv6OptionHeaderEEES0_v
   fun:_ZN3ns316Ipv6OptionHeader9GetTypeIdEv
   fun:_ZN3ns334XIpv6OptionHeaderRegistrationClassC1Ev
   fun:_Z41__static_initialization_and_destruction_0ii
   fun:_GLOBAL__I_ipv6_option_header.cc
   obj:/home/tazaki/hgworks/ns-3-dce-thehajime/build/lib/libns3-dev-internet-debug.so
   obj:/home/tazaki/hgworks/ns-3-dce-thehajime/build/lib/libns3-dev-internet-debug.so
   fun:vdl_list_iterate
}
{
   <insert_a_suppression_name_here>
   Memcheck:Leak
   fun:_Znwm
   fun:_ZN3ns36CreateINS_19FunctorCallbackImplIPFPNS_10ObjectBaseEvES3_NS_5emptyES6_S6_S6_S6_S6_S6_S6_S6_EES5_EENS_3PtrIT_EET0_
   fun:_ZN3ns38CallbackIPNS_10ObjectBaseENS_5emptyES3_S3_S3_S3_S3_S3_S3_S3_EC1IPFS2_vEEERKT_bb
   fun:_ZN3ns312MakeCallbackIPNS_10ObjectBaseEEENS_8CallbackIT_NS_5emptyES5_S5_S5_S5_S5_S5_S5_S5_EEPFS4_vE
   fun:_ZN3ns36TypeId14AddConstructorINS_20Ipv6OptionPad1HeaderEEES0_v
   fun:_ZN3ns320Ipv6OptionPad1Header9GetTypeIdEv
   fun:_ZN3ns338XIpv6OptionPad1HeaderRegistrationClassC1Ev
   fun:_Z41__static_initialization_and_destruction_0ii
   fun:_GLOBAL__I_ipv6_option_header.cc
   obj:/home/tazaki/hgworks/ns-3-dce-thehajime/build/lib/libns3-dev-internet-debug.so
   obj:/home/tazaki/hgworks/ns-3-dce-thehajime/build/lib/libns3-dev-internet-debug.so
   fun:vdl_list_iterate
}
{
   <insert_a_suppression_name_here>
   Memcheck:Leak
   fun:_Znwm
   fun:_ZN3ns36CreateINS_19FunctorCallbackImplIPFPNS_10ObjectBaseEvES3_NS_5emptyES6_S6_S6_S6_S6_S6_S6_S6_EES5_EENS_3PtrIT_EET0_
   fun:_ZN3ns38CallbackIPNS_10ObjectBaseENS_5emptyES3_S3_S3_S3_S3_S3_S3_S3_EC1IPFS2_vEEERKT_bb
   fun:_ZN3ns312MakeCallbackIPNS_10ObjectBaseEEENS_8CallbackIT_NS_5emptyES5_S5_S5_S5_S5_S5_S5_S5_EEPFS4_vE
   fun:_ZN3ns36TypeId14AddConstructorINS_20Ipv6OptionPadnHeaderEEES0_v
   fun:_ZN3ns320Ipv6OptionPadnHeader9GetTypeIdEv
   fun:_ZN3ns338XIpv6OptionPadnHeaderRegistrationClassC1Ev
   fun:_Z41__static_initialization_and_destruction_0ii
   fun:_GLOBAL__I_ipv6_option_header.cc
   obj:/home/tazaki/hgworks/ns-3-dce-thehajime/build/lib/libns3-dev-internet-debug.so
   obj:/home/tazaki/hgworks/ns-3-dce-thehajime/build/lib/libns3-dev-internet-debug.so
   fun:vdl_list_iterate
}
{
   <insert_a_suppression_name_here>
   Memcheck:Leak
   fun:_Znwm
   fun:_ZN3ns36CreateINS_19FunctorCallbackImplIPFPNS_10ObjectBaseEvES3_NS_5emptyES6_S6_S6_S6_S6_S6_S6_S6_EES5_EENS_3PtrIT_EET0_
   fun:_ZN3ns38CallbackIPNS_10ObjectBaseENS_5emptyES3_S3_S3_S3_S3_S3_S3_S3_EC1IPFS2_vEEERKT_bb
   fun:_ZN3ns312MakeCallbackIPNS_10ObjectBaseEEENS_8CallbackIT_NS_5emptyES5_S5_S5_S5_S5_S5_S5_S5_EEPFS4_vE
   fun:_ZN3ns36TypeId14AddConstructorINS_25Ipv6OptionJumbogramHeaderEEES0_v
   fun:_ZN3ns325Ipv6OptionJumbogramHeader9GetTypeIdEv
   fun:_ZN3ns343XIpv6OptionJumbogramHeaderRegistrationClassC1Ev
   fun:_Z41__static_initialization_and_destruction_0ii
   fun:_GLOBAL__I_ipv6_option_header.cc
   obj:/home/tazaki/hgworks/ns-3-dce-thehajime/build/lib/libns3-dev-internet-debug.so
   obj:/home/tazaki/hgworks/ns-3-dce-thehajime/build/lib/libns3-dev-internet-debug.so
   fun:vdl_list_iterate
}
{
   <insert_a_suppression_name_here>
   Memcheck:Leak
   fun:_Znwm
   fun:_ZN3ns36CreateINS_19FunctorCallbackImplIPFPNS_10ObjectBaseEvES3_NS_5emptyES6_S6_S6_S6_S6_S6_S6_S6_EES5_EENS_3PtrIT_EET0_
   fun:_ZN3ns38CallbackIPNS_10ObjectBaseENS_5emptyES3_S3_S3_S3_S3_S3_S3_S3_EC1IPFS2_vEEERKT_bb
   fun:_ZN3ns312MakeCallbackIPNS_10ObjectBaseEEENS_8CallbackIT_NS_5emptyES5_S5_S5_S5_S5_S5_S5_S5_EEPFS4_vE
   fun:_ZN3ns36TypeId14AddConstructorINS_27Ipv6OptionRouterAlertHeaderEEES0_v
   fun:_ZN3ns327Ipv6OptionRouterAlertHeader9GetTypeIdEv
   fun:_ZN3ns345XIpv6OptionRouterAlertHeaderRegistrationClassC1Ev
   fun:_Z41__static_initialization_and_destruction_0ii
   fun:_GLOBAL__I_ipv6_option_header.cc
   obj:/home/tazaki/hgworks/ns-3-dce-thehajime/build/lib/libns3-dev-internet-debug.so
   obj:/home/tazaki/hgworks/ns-3-dce-thehajime/build/lib/libns3-dev-internet-debug.so
   fun:vdl_list_iterate
}
{
   <insert_a_suppression_name_here>
   Memcheck:Leak
   fun:_Znwm
   fun:_ZN3ns36CreateINS_13UintegerValueES1_EENS_3PtrIT_EET0_
   fun:_ZNK3ns313UintegerValue4CopyEv
   fun:_ZN3ns36TypeId12AddAttributeESsSsRKNS_14AttributeValueENS_3PtrIKNS_17AttributeAccessorEEENS4_IKNS_16AttributeCheckerEEE
   fun:_ZN3ns310Ipv6Option9GetTypeIdEv
   fun:_ZN3ns328XIpv6OptionRegistrationClassC1Ev
   fun:_Z41__static_initialization_and_destruction_0ii
   fun:_GLOBAL__I_ipv6_option.cc
   obj:/home/tazaki/hgworks/ns-3-dce-thehajime/build/lib/libns3-dev-internet-debug.so
   obj:/home/tazaki/hgworks/ns-3-dce-thehajime/build/lib/libns3-dev-internet-debug.so
   fun:vdl_list_iterate
   fun:vdl_init_call
}
{
   <insert_a_suppression_name_here>
   Memcheck:Leak
   fun:_Znwm
   fun:_ZN3ns36CreateINS_19FunctorCallbackImplIPFPNS_10ObjectBaseEvES3_NS_5emptyES6_S6_S6_S6_S6_S6_S6_S6_EES5_EENS_3PtrIT_EET0_
   fun:_ZN3ns38CallbackIPNS_10ObjectBaseENS_5emptyES3_S3_S3_S3_S3_S3_S3_S3_EC1IPFS2_vEEERKT_bb
   fun:_ZN3ns312MakeCallbackIPNS_10ObjectBaseEEENS_8CallbackIT_NS_5emptyES5_S5_S5_S5_S5_S5_S5_S5_EEPFS4_vE
   fun:_ZN3ns36TypeId14AddConstructorINS_14Ipv6OptionPad1EEES0_v
   fun:_ZN3ns314Ipv6OptionPad19GetTypeIdEv
   fun:_ZN3ns332XIpv6OptionPad1RegistrationClassC1Ev
   fun:_Z41__static_initialization_and_destruction_0ii
   fun:_GLOBAL__I_ipv6_option.cc
   obj:/home/tazaki/hgworks/ns-3-dce-thehajime/build/lib/libns3-dev-internet-debug.so
   obj:/home/tazaki/hgworks/ns-3-dce-thehajime/build/lib/libns3-dev-internet-debug.so
   fun:vdl_list_iterate
}
{
   <insert_a_suppression_name_here>
   Memcheck:Leak
   fun:_Znwm
   fun:_ZN3ns36CreateINS_19FunctorCallbackImplIPFPNS_10ObjectBaseEvES3_NS_5emptyES6_S6_S6_S6_S6_S6_S6_S6_EES5_EENS_3PtrIT_EET0_
   fun:_ZN3ns38CallbackIPNS_10ObjectBaseENS_5emptyES3_S3_S3_S3_S3_S3_S3_S3_EC1IPFS2_vEEERKT_bb
   fun:_ZN3ns312MakeCallbackIPNS_10ObjectBaseEEENS_8CallbackIT_NS_5emptyES5_S5_S5_S5_S5_S5_S5_S5_EEPFS4_vE
   fun:_ZN3ns36TypeId14AddConstructorINS_14Ipv6OptionPadnEEES0_v
   fun:_ZN3ns314Ipv6OptionPadn9GetTypeIdEv
   fun:_ZN3ns332XIpv6OptionPadnRegistrationClassC1Ev
   fun:_Z41__static_initialization_and_destruction_0ii
   fun:_GLOBAL__I_ipv6_option.cc
   obj:/home/tazaki/hgworks/ns-3-dce-thehajime/build/lib/libns3-dev-internet-debug.so
   obj:/home/tazaki/hgworks/ns-3-dce-thehajime/build/lib/libns3-dev-internet-debug.so
   fun:vdl_list_iterate
}
{
   <insert_a_suppression_name_here>
   Memcheck:Leak
   fun:_Znwm
   fun:_ZN3ns36CreateINS_19FunctorCallbackImplIPFPNS_10ObjectBaseEvES3_NS_5emptyES6_S6_S6_S6_S6_S6_S6_S6_EES5_EENS_3PtrIT_EET0_
   fun:_ZN3ns38CallbackIPNS_10ObjectBaseENS_5emptyES3_S3_S3_S3_S3_S3_S3_S3_EC1IPFS2_vEEERKT_bb
   fun:_ZN3ns312MakeCallbackIPNS_10ObjectBaseEEENS_8CallbackIT_NS_5emptyES5_S5_S5_S5_S5_S5_S5_S5_EEPFS4_vE
   fun:_ZN3ns36TypeId14AddConstructorINS_19Ipv6OptionJumbogramEEES0_v
   fun:_ZN3ns319Ipv6OptionJumbogram9GetTypeIdEv
   fun:_ZN3ns337XIpv6OptionJumbogramRegistrationClassC1Ev
   fun:_Z41__static_initialization_and_destruction_0ii
   fun:_GLOBAL__I_ipv6_option.cc
   obj:/home/tazaki/hgworks/ns-3-dce-thehajime/build/lib/libns3-dev-internet-debug.so
   obj:/home/tazaki/hgworks/ns-3-dce-thehajime/build/lib/libns3-dev-internet-debug.so
   fun:vdl_list_iterate
}
{
   <insert_a_suppression_name_here>
   Memcheck:Leak
   fun:_Znwm
   fun:_ZN3ns36CreateINS_19FunctorCallbackImplIPFPNS_10ObjectBaseEvES3_NS_5emptyES6_S6_S6_S6_S6_S6_S6_S6_EES5_EENS_3PtrIT_EET0_
   fun:_ZN3ns38CallbackIPNS_10ObjectBaseENS_5emptyES3_S3_S3_S3_S3_S3_S3_S3_EC1IPFS2_vEEERKT_bb
   fun:_ZN3ns312MakeCallbackIPNS_10ObjectBaseEEENS_8CallbackIT_NS_5emptyES5_S5_S5_S5_S5_S5_S5_S5_EEPFS4_vE
   fun:_ZN3ns36TypeId14AddConstructorINS_21Ipv6OptionRouterAlertEEES0_v
   fun:_ZN3ns321Ipv6OptionRouterAlert9GetTypeIdEv
   fun:_ZN3ns339XIpv6OptionRouterAlertRegistrationClassC1Ev
   fun:_Z41__static_initialization_and_destruction_0ii
   fun:_GLOBAL__I_ipv6_option.cc
   obj:/home/tazaki/hgworks/ns-3-dce-thehajime/build/lib/libns3-dev-internet-debug.so
   obj:/home/tazaki/hgworks/ns-3-dce-thehajime/build/lib/libns3-dev-internet-debug.so
   fun:vdl_list_iterate
}
{
   <insert_a_suppression_name_here>
   Memcheck:Leak
   fun:_Znwm
   fun:_ZN3ns324MakeObjectVectorAccessorINS_18Ipv6ExtensionDemuxESt4listINS_3PtrINS_13Ipv6ExtensionEEESaIS5_EEEENS3_IKNS_17AttributeAccessorEEEMT_T0_
   fun:_ZN3ns318Ipv6ExtensionDemux9GetTypeIdEv
   fun:_ZN3ns336XIpv6ExtensionDemuxRegistrationClassC1Ev
   fun:_Z41__static_initialization_and_destruction_0ii
   fun:_GLOBAL__I_ipv6_extension_demux.cc
   obj:/home/tazaki/hgworks/ns-3-dce-thehajime/build/lib/libns3-dev-internet-debug.so
   obj:/home/tazaki/hgworks/ns-3-dce-thehajime/build/lib/libns3-dev-internet-debug.so
   fun:vdl_list_iterate
   fun:vdl_init_call
   fun:dlopen_with_context
   fun:vdl_dlmopen
}
{
   <insert_a_suppression_name_here>
   Memcheck:Leak
   fun:_Znwm
   fun:_ZN3ns36CreateINS_19FunctorCallbackImplIPFPNS_10ObjectBaseEvES3_NS_5emptyES6_S6_S6_S6_S6_S6_S6_S6_EES5_EENS_3PtrIT_EET0_
   fun:_ZN3ns38CallbackIPNS_10ObjectBaseENS_5emptyES3_S3_S3_S3_S3_S3_S3_S3_EC1IPFS2_vEEERKT_bb
   fun:_ZN3ns312MakeCallbackIPNS_10ObjectBaseEEENS_8CallbackIT_NS_5emptyES5_S5_S5_S5_S5_S5_S5_S5_EEPFS4_vE
   fun:_ZN3ns36TypeId14AddConstructorINS_19Ipv6ExtensionHeaderEEES0_v
   fun:_ZN3ns319Ipv6ExtensionHeader9GetTypeIdEv
   fun:_ZN3ns337XIpv6ExtensionHeaderRegistrationClassC1Ev
   fun:_Z41__static_initialization_and_destruction_0ii
   fun:_GLOBAL__I_ipv6_extension_header.cc
   obj:/home/tazaki/hgworks/ns-3-dce-thehajime/build/lib/libns3-dev-internet-debug.so
   obj:/home/tazaki/hgworks/ns-3-dce-thehajime/build/lib/libns3-dev-internet-debug.so
   fun:vdl_list_iterate
}
{
   <insert_a_suppression_name_here>
   Memcheck:Leak
   fun:_Znwm
   fun:_ZN3ns36CreateINS_19FunctorCallbackImplIPFPNS_10ObjectBaseEvES3_NS_5emptyES6_S6_S6_S6_S6_S6_S6_S6_EES5_EENS_3PtrIT_EET0_
   fun:_ZN3ns38CallbackIPNS_10ObjectBaseENS_5emptyES3_S3_S3_S3_S3_S3_S3_S3_EC1IPFS2_vEEERKT_bb
   fun:_ZN3ns312MakeCallbackIPNS_10ObjectBaseEEENS_8CallbackIT_NS_5emptyES5_S5_S5_S5_S5_S5_S5_S5_EEPFS4_vE
   fun:_ZN3ns36TypeId14AddConstructorINS_27Ipv6ExtensionHopByHopHeaderEEES0_v
   fun:_ZN3ns327Ipv6ExtensionHopByHopHeader9GetTypeIdEv
   fun:_ZN3ns345XIpv6ExtensionHopByHopHeaderRegistrationClassC1Ev
   fun:_Z41__static_initialization_and_destruction_0ii
   fun:_GLOBAL__I_ipv6_extension_header.cc
   obj:/home/tazaki/hgworks/ns-3-dce-thehajime/build/lib/libns3-dev-internet-debug.so
   obj:/home/tazaki/hgworks/ns-3-dce-thehajime/build/lib/libns3-dev-internet-debug.so
   fun:vdl_list_iterate
}
{
   <insert_a_suppression_name_here>
   Memcheck:Leak
   fun:_Znwm
   fun:_ZN3ns36CreateINS_19FunctorCallbackImplIPFPNS_10ObjectBaseEvES3_NS_5emptyES6_S6_S6_S6_S6_S6_S6_S6_EES5_EENS_3PtrIT_EET0_
   fun:_ZN3ns38CallbackIPNS_10ObjectBaseENS_5emptyES3_S3_S3_S3_S3_S3_S3_S3_EC1IPFS2_vEEERKT_bb
   fun:_ZN3ns312MakeCallbackIPNS_10ObjectBaseEEENS_8CallbackIT_NS_5emptyES5_S5_S5_S5_S5_S5_S5_S5_EEPFS4_vE
   fun:_ZN3ns36TypeId14AddConstructorINS_30Ipv6ExtensionDestinationHeaderEEES0_v
   fun:_ZN3ns330Ipv6ExtensionDestinationHeader9GetTypeIdEv
   fun:_ZN3ns348XIpv6ExtensionDestinationHeaderRegistrationClassC1Ev
   fun:_Z41__static_initialization_and_destruction_0ii
   fun:_GLOBAL__I_ipv6_extension_header.cc
   obj:/home/tazaki/hgworks/ns-3-dce-thehajime/build/lib/libns3-dev-internet-debug.so
   obj:/home/tazaki/hgworks/ns-3-dce-thehajime/build/lib/libns3-dev-internet-debug.so
   fun:vdl_list_iterate
}
{
   <insert_a_suppression_name_here>
   Memcheck:Leak
   fun:_Znwm
   fun:_ZN3ns36CreateINS_19FunctorCallbackImplIPFPNS_10ObjectBaseEvES3_NS_5emptyES6_S6_S6_S6_S6_S6_S6_S6_EES5_EENS_3PtrIT_EET0_
   fun:_ZN3ns38CallbackIPNS_10ObjectBaseENS_5emptyES3_S3_S3_S3_S3_S3_S3_S3_EC1IPFS2_vEEERKT_bb
   fun:_ZN3ns312MakeCallbackIPNS_10ObjectBaseEEENS_8CallbackIT_NS_5emptyES5_S5_S5_S5_S5_S5_S5_S5_EEPFS4_vE
   fun:_ZN3ns36TypeId14AddConstructorINS_27Ipv6ExtensionFragmentHeaderEEES0_v
   fun:_ZN3ns327Ipv6ExtensionFragmentHeader9GetTypeIdEv
   fun:_ZN3ns345XIpv6ExtensionFragmentHeaderRegistrationClassC1Ev
   fun:_Z41__static_initialization_and_destruction_0ii
   fun:_GLOBAL__I_ipv6_extension_header.cc
   obj:/home/tazaki/hgworks/ns-3-dce-thehajime/build/lib/libns3-dev-internet-debug.so
   obj:/home/tazaki/hgworks/ns-3-dce-thehajime/build/lib/libns3-dev-internet-debug.so
   fun:vdl_list_iterate
}
{
   <insert_a_suppression_name_here>
   Memcheck:Leak
   fun:_Znwm
   fun:_ZN3ns36CreateINS_19FunctorCallbackImplIPFPNS_10ObjectBaseEvES3_NS_5emptyES6_S6_S6_S6_S6_S6_S6_S6_EES5_EENS_3PtrIT_EET0_
   fun:_ZN3ns38CallbackIPNS_10ObjectBaseENS_5emptyES3_S3_S3_S3_S3_S3_S3_S3_EC1IPFS2_vEEERKT_bb
   fun:_ZN3ns312MakeCallbackIPNS_10ObjectBaseEEENS_8CallbackIT_NS_5emptyES5_S5_S5_S5_S5_S5_S5_S5_EEPFS4_vE
   fun:_ZN3ns36TypeId14AddConstructorINS_26Ipv6ExtensionRoutingHeaderEEES0_v
   fun:_ZN3ns326Ipv6ExtensionRoutingHeader9GetTypeIdEv
   fun:_ZN3ns344XIpv6ExtensionRoutingHeaderRegistrationClassC1Ev
   fun:_Z41__static_initialization_and_destruction_0ii
   fun:_GLOBAL__I_ipv6_extension_header.cc
   obj:/home/tazaki/hgworks/ns-3-dce-thehajime/build/lib/libns3-dev-internet-debug.so
   obj:/home/tazaki/hgworks/ns-3-dce-thehajime/build/lib/libns3-dev-internet-debug.so
   fun:vdl_list_iterate
}
{
   <insert_a_suppression_name_here>
   Memcheck:Leak
   fun:_Znwm
   fun:_ZN3ns36CreateINS_19FunctorCallbackImplIPFPNS_10ObjectBaseEvES3_NS_5emptyES6_S6_S6_S6_S6_S6_S6_S6_EES5_EENS_3PtrIT_EET0_
   fun:_ZN3ns38CallbackIPNS_10ObjectBaseENS_5emptyES3_S3_S3_S3_S3_S3_S3_S3_EC1IPFS2_vEEERKT_bb
   fun:_ZN3ns312MakeCallbackIPNS_10ObjectBaseEEENS_8CallbackIT_NS_5emptyES5_S5_S5_S5_S5_S5_S5_S5_EEPFS4_vE
   fun:_ZN3ns36TypeId14AddConstructorINS_31Ipv6ExtensionLooseRoutingHeaderEEES0_v
   fun:_ZN3ns331Ipv6ExtensionLooseRoutingHeader9GetTypeIdEv
   fun:_ZN3ns349XIpv6ExtensionLooseRoutingHeaderRegistrationClassC1Ev
   fun:_Z41__static_initialization_and_destruction_0ii
   fun:_GLOBAL__I_ipv6_extension_header.cc
   obj:/home/tazaki/hgworks/ns-3-dce-thehajime/build/lib/libns3-dev-internet-debug.so
   obj:/home/tazaki/hgworks/ns-3-dce-thehajime/build/lib/libns3-dev-internet-debug.so
   fun:vdl_list_iterate
}
{
   <insert_a_suppression_name_here>
   Memcheck:Leak
   fun:_Znwm
   fun:_ZN3ns36CreateINS_19FunctorCallbackImplIPFPNS_10ObjectBaseEvES3_NS_5emptyES6_S6_S6_S6_S6_S6_S6_S6_EES5_EENS_3PtrIT_EET0_
   fun:_ZN3ns38CallbackIPNS_10ObjectBaseENS_5emptyES3_S3_S3_S3_S3_S3_S3_S3_EC1IPFS2_vEEERKT_bb
   fun:_ZN3ns312MakeCallbackIPNS_10ObjectBaseEEENS_8CallbackIT_NS_5emptyES5_S5_S5_S5_S5_S5_S5_S5_EEPFS4_vE
   fun:_ZN3ns36TypeId14AddConstructorINS_22Ipv6ExtensionESPHeaderEEES0_v
   fun:_ZN3ns322Ipv6ExtensionESPHeader9GetTypeIdEv
   fun:_ZN3ns340XIpv6ExtensionESPHeaderRegistrationClassC1Ev
   fun:_Z41__static_initialization_and_destruction_0ii
   fun:_GLOBAL__I_ipv6_extension_header.cc
   obj:/home/tazaki/hgworks/ns-3-dce-thehajime/build/lib/libns3-dev-internet-debug.so
   obj:/home/tazaki/hgworks/ns-3-dce-thehajime/build/lib/libns3-dev-internet-debug.so
   fun:vdl_list_iterate
}
{
   <insert_a_suppression_name_here>
   Memcheck:Leak
   fun:_Znwm
   fun:_ZN3ns36CreateINS_19FunctorCallbackImplIPFPNS_10ObjectBaseEvES3_NS_5emptyES6_S6_S6_S6_S6_S6_S6_S6_EES5_EENS_3PtrIT_EET0_
   fun:_ZN3ns38CallbackIPNS_10ObjectBaseENS_5emptyES3_S3_S3_S3_S3_S3_S3_S3_EC1IPFS2_vEEERKT_bb
   fun:_ZN3ns312MakeCallbackIPNS_10ObjectBaseEEENS_8CallbackIT_NS_5emptyES5_S5_S5_S5_S5_S5_S5_S5_EEPFS4_vE
   fun:_ZN3ns36TypeId14AddConstructorINS_21Ipv6ExtensionAHHeaderEEES0_v
   fun:_ZN3ns321Ipv6ExtensionAHHeader9GetTypeIdEv
   fun:_ZN3ns339XIpv6ExtensionAHHeaderRegistrationClassC1Ev
   fun:_Z41__static_initialization_and_destruction_0ii
   fun:_GLOBAL__I_ipv6_extension_header.cc
   obj:/home/tazaki/hgworks/ns-3-dce-thehajime/build/lib/libns3-dev-internet-debug.so
   obj:/home/tazaki/hgworks/ns-3-dce-thehajime/build/lib/libns3-dev-internet-debug.so
   fun:vdl_list_iterate
}
{
   <insert_a_suppression_name_here>
   Memcheck:Leak
   fun:_Znwm
   fun:_ZN3ns325DoMakeTraceSourceAccessorINS_13Ipv6ExtensionENS_14TracedCallbackINS_3PtrIKNS_6PacketEEENS_5emptyES7_S7_S7_S7_S7_S7_EEEENS3_IKNS_19TraceSourceAccessorEEEMT_T0_
   fun:_ZN3ns323MakeTraceSourceAccessorIMNS_13Ipv6ExtensionENS_14TracedCallbackINS_3PtrIKNS_6PacketEEENS_5emptyES7_S7_S7_S7_S7_S7_EEEENS3_IKNS_19TraceSourceAccessorEEET_
   fun:_ZN3ns313Ipv6Extension9GetTypeIdEv
   fun:_ZN3ns331XIpv6ExtensionRegistrationClassC1Ev
   fun:_Z41__static_initialization_and_destruction_0ii
   fun:_GLOBAL__I_ipv6_extension.cc
   obj:/home/tazaki/hgworks/ns-3-dce-thehajime/build/lib/libns3-dev-internet-debug.so
   obj:/home/tazaki/hgworks/ns-3-dce-thehajime/build/lib/libns3-dev-internet-debug.so
   fun:vdl_list_iterate
   fun:vdl_init_call
   fun:dlopen_with_context
}
{
   <insert_a_suppression_name_here>
   Memcheck:Leak
   fun:_Znwm
   fun:_ZN3ns36CreateINS_13UintegerValueES1_EENS_3PtrIT_EET0_
   fun:_ZNK3ns313UintegerValue4CopyEv
   fun:_ZN3ns36TypeId12AddAttributeESsSsRKNS_14AttributeValueENS_3PtrIKNS_17AttributeAccessorEEENS4_IKNS_16AttributeCheckerEEE
   fun:_ZN3ns313Ipv6Extension9GetTypeIdEv
   fun:_ZN3ns331XIpv6ExtensionRegistrationClassC1Ev
   fun:_Z41__static_initialization_and_destruction_0ii
   fun:_GLOBAL__I_ipv6_extension.cc
   obj:/home/tazaki/hgworks/ns-3-dce-thehajime/build/lib/libns3-dev-internet-debug.so
   obj:/home/tazaki/hgworks/ns-3-dce-thehajime/build/lib/libns3-dev-internet-debug.so
   fun:vdl_list_iterate
   fun:vdl_init_call
}
{
   <insert_a_suppression_name_here>
   Memcheck:Leak
   fun:_Znwm
   fun:_ZN3ns36CreateINS_19FunctorCallbackImplIPFPNS_10ObjectBaseEvES3_NS_5emptyES6_S6_S6_S6_S6_S6_S6_S6_EES5_EENS_3PtrIT_EET0_
   fun:_ZN3ns38CallbackIPNS_10ObjectBaseENS_5emptyES3_S3_S3_S3_S3_S3_S3_S3_EC1IPFS2_vEEERKT_bb
   fun:_ZN3ns312MakeCallbackIPNS_10ObjectBaseEEENS_8CallbackIT_NS_5emptyES5_S5_S5_S5_S5_S5_S5_S5_EEPFS4_vE
   fun:_ZN3ns36TypeId14AddConstructorINS_21Ipv6ExtensionHopByHopEEES0_v
   fun:_ZN3ns321Ipv6ExtensionHopByHop9GetTypeIdEv
   fun:_ZN3ns339XIpv6ExtensionHopByHopRegistrationClassC1Ev
   fun:_Z41__static_initialization_and_destruction_0ii
   fun:_GLOBAL__I_ipv6_extension.cc
   obj:/home/tazaki/hgworks/ns-3-dce-thehajime/build/lib/libns3-dev-internet-debug.so
   obj:/home/tazaki/hgworks/ns-3-dce-thehajime/build/lib/libns3-dev-internet-debug.so
   fun:vdl_list_iterate
}
{
   <insert_a_suppression_name_here>
   Memcheck:Leak
   fun:_Znwm
   fun:_ZN3ns36CreateINS_19FunctorCallbackImplIPFPNS_10ObjectBaseEvES3_NS_5emptyES6_S6_S6_S6_S6_S6_S6_S6_EES5_EENS_3PtrIT_EET0_
   fun:_ZN3ns38CallbackIPNS_10ObjectBaseENS_5emptyES3_S3_S3_S3_S3_S3_S3_S3_EC1IPFS2_vEEERKT_bb
   fun:_ZN3ns312MakeCallbackIPNS_10ObjectBaseEEENS_8CallbackIT_NS_5emptyES5_S5_S5_S5_S5_S5_S5_S5_EEPFS4_vE
   fun:_ZN3ns36TypeId14AddConstructorINS_24Ipv6ExtensionDestinationEEES0_v
   fun:_ZN3ns324Ipv6ExtensionDestination9GetTypeIdEv
   fun:_ZN3ns342XIpv6ExtensionDestinationRegistrationClassC1Ev
   fun:_Z41__static_initialization_and_destruction_0ii
   fun:_GLOBAL__I_ipv6_extension.cc
   obj:/home/tazaki/hgworks/ns-3-dce-thehajime/build/lib/libns3-dev-internet-debug.so
   obj:/home/tazaki/hgworks/ns-3-dce-thehajime/build/lib/libns3-dev-internet-debug.so
   fun:vdl_list_iterate
}
{
   <insert_a_suppression_name_here>
   Memcheck:Leak
   fun:_Znwm
   fun:_ZN3ns36CreateINS_19FunctorCallbackImplIPFPNS_10ObjectBaseEvES3_NS_5emptyES6_S6_S6_S6_S6_S6_S6_S6_EES5_EENS_3PtrIT_EET0_
   fun:_ZN3ns38CallbackIPNS_10ObjectBaseENS_5emptyES3_S3_S3_S3_S3_S3_S3_S3_EC1IPFS2_vEEERKT_bb
   fun:_ZN3ns312MakeCallbackIPNS_10ObjectBaseEEENS_8CallbackIT_NS_5emptyES5_S5_S5_S5_S5_S5_S5_S5_EEPFS4_vE
   fun:_ZN3ns36TypeId14AddConstructorINS_21Ipv6ExtensionFragmentEEES0_v
   fun:_ZN3ns321Ipv6ExtensionFragment9GetTypeIdEv
   fun:_ZN3ns339XIpv6ExtensionFragmentRegistrationClassC1Ev
   fun:_Z41__static_initialization_and_destruction_0ii
   fun:_GLOBAL__I_ipv6_extension.cc
   obj:/home/tazaki/hgworks/ns-3-dce-thehajime/build/lib/libns3-dev-internet-debug.so
   obj:/home/tazaki/hgworks/ns-3-dce-thehajime/build/lib/libns3-dev-internet-debug.so
   fun:vdl_list_iterate
}
{
   <insert_a_suppression_name_here>
   Memcheck:Leak
   fun:_Znwm
   fun:_ZN3ns36CreateINS_19FunctorCallbackImplIPFPNS_10ObjectBaseEvES3_NS_5emptyES6_S6_S6_S6_S6_S6_S6_S6_EES5_EENS_3PtrIT_EET0_
   fun:_ZN3ns38CallbackIPNS_10ObjectBaseENS_5emptyES3_S3_S3_S3_S3_S3_S3_S3_EC1IPFS2_vEEERKT_bb
   fun:_ZN3ns312MakeCallbackIPNS_10ObjectBaseEEENS_8CallbackIT_NS_5emptyES5_S5_S5_S5_S5_S5_S5_S5_EEPFS4_vE
   fun:_ZN3ns36TypeId14AddConstructorINS_20Ipv6ExtensionRoutingEEES0_v
   fun:_ZN3ns320Ipv6ExtensionRouting9GetTypeIdEv
   fun:_ZN3ns338XIpv6ExtensionRoutingRegistrationClassC1Ev
   fun:_Z41__static_initialization_and_destruction_0ii
   fun:_GLOBAL__I_ipv6_extension.cc
   obj:/home/tazaki/hgworks/ns-3-dce-thehajime/build/lib/libns3-dev-internet-debug.so
   obj:/home/tazaki/hgworks/ns-3-dce-thehajime/build/lib/libns3-dev-internet-debug.so
   fun:vdl_list_iterate
}
{
   <insert_a_suppression_name_here>
   Memcheck:Leak
   fun:_Znwm
   fun:_ZN3ns324MakeObjectVectorAccessorINS_25Ipv6ExtensionRoutingDemuxESt4listINS_3PtrINS_20Ipv6ExtensionRoutingEEESaIS5_EEEENS3_IKNS_17AttributeAccessorEEEMT_T0_
   fun:_ZN3ns325Ipv6ExtensionRoutingDemux9GetTypeIdEv
   fun:_ZN3ns343XIpv6ExtensionRoutingDemuxRegistrationClassC1Ev
   fun:_Z41__static_initialization_and_destruction_0ii
   fun:_GLOBAL__I_ipv6_extension.cc
   obj:/home/tazaki/hgworks/ns-3-dce-thehajime/build/lib/libns3-dev-internet-debug.so
   obj:/home/tazaki/hgworks/ns-3-dce-thehajime/build/lib/libns3-dev-internet-debug.so
   fun:vdl_list_iterate
   fun:vdl_init_call
   fun:dlopen_with_context
   fun:vdl_dlmopen
}
{
   <insert_a_suppression_name_here>
   Memcheck:Leak
   fun:_Znwm
   fun:_ZN3ns36CreateINS_19FunctorCallbackImplIPFPNS_10ObjectBaseEvES3_NS_5emptyES6_S6_S6_S6_S6_S6_S6_S6_EES5_EENS_3PtrIT_EET0_
   fun:_ZN3ns38CallbackIPNS_10ObjectBaseENS_5emptyES3_S3_S3_S3_S3_S3_S3_S3_EC1IPFS2_vEEERKT_bb
   fun:_ZN3ns312MakeCallbackIPNS_10ObjectBaseEEENS_8CallbackIT_NS_5emptyES5_S5_S5_S5_S5_S5_S5_S5_EEPFS4_vE
   fun:_ZN3ns36TypeId14AddConstructorINS_25Ipv6ExtensionLooseRoutingEEES0_v
   fun:_ZN3ns325Ipv6ExtensionLooseRouting9GetTypeIdEv
   fun:_ZN3ns343XIpv6ExtensionLooseRoutingRegistrationClassC1Ev
   fun:_Z41__static_initialization_and_destruction_0ii
   fun:_GLOBAL__I_ipv6_extension.cc
   obj:/home/tazaki/hgworks/ns-3-dce-thehajime/build/lib/libns3-dev-internet-debug.so
   obj:/home/tazaki/hgworks/ns-3-dce-thehajime/build/lib/libns3-dev-internet-debug.so
   fun:vdl_list_iterate
}
{
   <insert_a_suppression_name_here>
   Memcheck:Leak
   fun:_Znwm
   fun:_ZN3ns36CreateINS_19FunctorCallbackImplIPFPNS_10ObjectBaseEvES3_NS_5emptyES6_S6_S6_S6_S6_S6_S6_S6_EES5_EENS_3PtrIT_EET0_
   fun:_ZN3ns38CallbackIPNS_10ObjectBaseENS_5emptyES3_S3_S3_S3_S3_S3_S3_S3_EC1IPFS2_vEEERKT_bb
   fun:_ZN3ns312MakeCallbackIPNS_10ObjectBaseEEENS_8CallbackIT_NS_5emptyES5_S5_S5_S5_S5_S5_S5_S5_EEPFS4_vE
   fun:_ZN3ns36TypeId14AddConstructorINS_16Ipv6ExtensionESPEEES0_v
   fun:_ZN3ns316Ipv6ExtensionESP9GetTypeIdEv
   fun:_ZN3ns334XIpv6ExtensionESPRegistrationClassC1Ev
   fun:_Z41__static_initialization_and_destruction_0ii
   fun:_GLOBAL__I_ipv6_extension.cc
   obj:/home/tazaki/hgworks/ns-3-dce-thehajime/build/lib/libns3-dev-internet-debug.so
   obj:/home/tazaki/hgworks/ns-3-dce-thehajime/build/lib/libns3-dev-internet-debug.so
   fun:vdl_list_iterate
}
{
   <insert_a_suppression_name_here>
   Memcheck:Leak
   fun:_Znwm
   fun:_ZN3ns36CreateINS_19FunctorCallbackImplIPFPNS_10ObjectBaseEvES3_NS_5emptyES6_S6_S6_S6_S6_S6_S6_S6_EES5_EENS_3PtrIT_EET0_
   fun:_ZN3ns38CallbackIPNS_10ObjectBaseENS_5emptyES3_S3_S3_S3_S3_S3_S3_S3_EC1IPFS2_vEEERKT_bb
   fun:_ZN3ns312MakeCallbackIPNS_10ObjectBaseEEENS_8CallbackIT_NS_5emptyES5_S5_S5_S5_S5_S5_S5_S5_EEPFS4_vE
   fun:_ZN3ns36TypeId14AddConstructorINS_15Ipv6ExtensionAHEEES0_v
   fun:_ZN3ns315Ipv6ExtensionAH9GetTypeIdEv
   fun:_ZN3ns333XIpv6ExtensionAHRegistrationClassC1Ev
   fun:_Z41__static_initialization_and_destruction_0ii
   fun:_GLOBAL__I_ipv6_extension.cc
   obj:/home/tazaki/hgworks/ns-3-dce-thehajime/build/lib/libns3-dev-internet-debug.so
   obj:/home/tazaki/hgworks/ns-3-dce-thehajime/build/lib/libns3-dev-internet-debug.so
   fun:vdl_list_iterate
}
{
   <insert_a_suppression_name_here>
   Memcheck:Leak
   fun:_Znwm
   fun:_ZN3ns323DoMakeAccessorHelperOneINS_13UintegerValueENS_17Ipv6RawSocketImplEtEENS_3PtrIKNS_17AttributeAccessorEEEMT0_T1_
   fun:_ZN3ns318MakeAccessorHelperINS_13UintegerValueEMNS_17Ipv6RawSocketImplEtEENS_3PtrIKNS_17AttributeAccessorEEET0_
   fun:_ZN3ns320MakeUintegerAccessorIMNS_17Ipv6RawSocketImplEtEENS_3PtrIKNS_17AttributeAccessorEEET_
   fun:_ZN3ns317Ipv6RawSocketImpl9GetTypeIdEv
   fun:_ZN3ns335XIpv6RawSocketImplRegistrationClassC1Ev
   fun:_Z41__static_initialization_and_destruction_0ii
   fun:_GLOBAL__I_ipv6_raw_socket_impl.cc
   obj:/home/tazaki/hgworks/ns-3-dce-thehajime/build/lib/libns3-dev-internet-debug.so
   obj:/home/tazaki/hgworks/ns-3-dce-thehajime/build/lib/libns3-dev-internet-debug.so
   fun:vdl_list_iterate
   fun:vdl_init_call
}
{
   <insert_a_suppression_name_here>
   Memcheck:Leak
   fun:_Znwm
   fun:_ZN3ns36CreateINS_13UintegerValueES1_EENS_3PtrIT_EET0_
   fun:_ZNK3ns313UintegerValue4CopyEv
   fun:_ZN3ns36TypeId12AddAttributeESsSsRKNS_14AttributeValueENS_3PtrIKNS_17AttributeAccessorEEENS4_IKNS_16AttributeCheckerEEE
   fun:_ZN3ns317Ipv6RawSocketImpl9GetTypeIdEv
   fun:_ZN3ns335XIpv6RawSocketImplRegistrationClassC1Ev
   fun:_Z41__static_initialization_and_destruction_0ii
   fun:_GLOBAL__I_ipv6_raw_socket_impl.cc
   obj:/home/tazaki/hgworks/ns-3-dce-thehajime/build/lib/libns3-dev-internet-debug.so
   obj:/home/tazaki/hgworks/ns-3-dce-thehajime/build/lib/libns3-dev-internet-debug.so
   fun:vdl_list_iterate
   fun:vdl_init_call
}
{
   <insert_a_suppression_name_here>
   Memcheck:Leak
   fun:_Znwm
   fun:_ZN3ns325DoMakeTraceSourceAccessorINS_14Ipv6L3ProtocolENS_14TracedCallbackIRKNS_10Ipv6HeaderENS_3PtrIKNS_6PacketEEENS1_10DropReasonENS6_INS_4Ipv6EEEjNS_5emptyESD_SD_EEEENS6_IKNS_19TraceSourceAccessorEEEMT_T0_
   fun:_ZN3ns323MakeTraceSourceAccessorIMNS_14Ipv6L3ProtocolENS_14TracedCallbackIRKNS_10Ipv6HeaderENS_3PtrIKNS_6PacketEEENS1_10DropReasonENS6_INS_4Ipv6EEEjNS_5emptyESD_SD_EEEENS6_IKNS_19TraceSourceAccessorEEET_
   fun:_ZN3ns314Ipv6L3Protocol9GetTypeIdEv
   fun:_ZN3ns332XIpv6L3ProtocolRegistrationClassC1Ev
   fun:_Z41__static_initialization_and_destruction_0ii
   fun:_GLOBAL__I_ipv6_l3_protocol.cc
   obj:/home/tazaki/hgworks/ns-3-dce-thehajime/build/lib/libns3-dev-internet-debug.so
   obj:/home/tazaki/hgworks/ns-3-dce-thehajime/build/lib/libns3-dev-internet-debug.so
   fun:vdl_list_iterate
   fun:vdl_init_call
   fun:dlopen_with_context
}
{
   <insert_a_suppression_name_here>
   Memcheck:Leak
   fun:_Znwm
   fun:_ZN3ns325DoMakeTraceSourceAccessorINS_14Ipv6L3ProtocolENS_14TracedCallbackINS_3PtrIKNS_6PacketEEENS3_INS_4Ipv6EEEjNS_5emptyES9_S9_S9_S9_EEEENS3_IKNS_19TraceSourceAccessorEEEMT_T0_
   fun:_ZN3ns323MakeTraceSourceAccessorIMNS_14Ipv6L3ProtocolENS_14TracedCallbackINS_3PtrIKNS_6PacketEEENS3_INS_4Ipv6EEEjNS_5emptyES9_S9_S9_S9_EEEENS3_IKNS_19TraceSourceAccessorEEET_
   fun:_ZN3ns314Ipv6L3Protocol9GetTypeIdEv
   fun:_ZN3ns332XIpv6L3ProtocolRegistrationClassC1Ev
   fun:_Z41__static_initialization_and_destruction_0ii
   fun:_GLOBAL__I_ipv6_l3_protocol.cc
   obj:/home/tazaki/hgworks/ns-3-dce-thehajime/build/lib/libns3-dev-internet-debug.so
   obj:/home/tazaki/hgworks/ns-3-dce-thehajime/build/lib/libns3-dev-internet-debug.so
   fun:vdl_list_iterate
   fun:vdl_init_call
   fun:dlopen_with_context
}
{
   <insert_a_suppression_name_here>
   Memcheck:Leak
   fun:_Znwm
   fun:_ZN3ns324MakeObjectVectorAccessorINS_14Ipv6L3ProtocolESt4listINS_3PtrINS_13Ipv6InterfaceEEESaIS5_EEEENS3_IKNS_17AttributeAccessorEEEMT_T0_
   fun:_ZN3ns314Ipv6L3Protocol9GetTypeIdEv
   fun:_ZN3ns332XIpv6L3ProtocolRegistrationClassC1Ev
   fun:_Z41__static_initialization_and_destruction_0ii
   fun:_GLOBAL__I_ipv6_l3_protocol.cc
   obj:/home/tazaki/hgworks/ns-3-dce-thehajime/build/lib/libns3-dev-internet-debug.so
   obj:/home/tazaki/hgworks/ns-3-dce-thehajime/build/lib/libns3-dev-internet-debug.so
   fun:vdl_list_iterate
   fun:vdl_init_call
   fun:dlopen_with_context
   fun:vdl_dlmopen
}
{
   <insert_a_suppression_name_here>
   Memcheck:Leak
   fun:_Znwm
   fun:_ZN3ns323DoMakeAccessorHelperOneINS_13UintegerValueENS_14Ipv6L3ProtocolEhEENS_3PtrIKNS_17AttributeAccessorEEEMT0_T1_
   fun:_ZN3ns318MakeAccessorHelperINS_13UintegerValueEMNS_14Ipv6L3ProtocolEhEENS_3PtrIKNS_17AttributeAccessorEEET0_
   fun:_ZN3ns320MakeUintegerAccessorIMNS_14Ipv6L3ProtocolEhEENS_3PtrIKNS_17AttributeAccessorEEET_
   fun:_ZN3ns314Ipv6L3Protocol9GetTypeIdEv
   fun:_ZN3ns332XIpv6L3ProtocolRegistrationClassC1Ev
   fun:_Z41__static_initialization_and_destruction_0ii
   fun:_GLOBAL__I_ipv6_l3_protocol.cc
   obj:/home/tazaki/hgworks/ns-3-dce-thehajime/build/lib/libns3-dev-internet-debug.so
   obj:/home/tazaki/hgworks/ns-3-dce-thehajime/build/lib/libns3-dev-internet-debug.so
   fun:vdl_list_iterate
   fun:vdl_init_call
}
{
   <insert_a_suppression_name_here>
   Memcheck:Leak
   fun:_Znwm
   fun:_ZN3ns36CreateINS_19FunctorCallbackImplIPFPNS_10ObjectBaseEvES3_NS_5emptyES6_S6_S6_S6_S6_S6_S6_S6_EES5_EENS_3PtrIT_EET0_
   fun:_ZN3ns38CallbackIPNS_10ObjectBaseENS_5emptyES3_S3_S3_S3_S3_S3_S3_S3_EC1IPFS2_vEEERKT_bb
   fun:_ZN3ns312MakeCallbackIPNS_10ObjectBaseEEENS_8CallbackIT_NS_5emptyES5_S5_S5_S5_S5_S5_S5_S5_EEPFS4_vE
   fun:_ZN3ns36TypeId14AddConstructorINS_14Ipv6L3ProtocolEEES0_v
   fun:_ZN3ns314Ipv6L3Protocol9GetTypeIdEv
   fun:_ZN3ns332XIpv6L3ProtocolRegistrationClassC1Ev
   fun:_Z41__static_initialization_and_destruction_0ii
   fun:_GLOBAL__I_ipv6_l3_protocol.cc
   obj:/home/tazaki/hgworks/ns-3-dce-thehajime/build/lib/libns3-dev-internet-debug.so
   obj:/home/tazaki/hgworks/ns-3-dce-thehajime/build/lib/libns3-dev-internet-debug.so
   fun:vdl_list_iterate
}
{
   <insert_a_suppression_name_here>
   Memcheck:Leak
   fun:_Znwm
   fun:_ZN3ns36CreateINS_13UintegerValueES1_EENS_3PtrIT_EET0_
   fun:_ZNK3ns313UintegerValue4CopyEv
   fun:_ZN3ns36TypeId12AddAttributeESsSsRKNS_14AttributeValueENS_3PtrIKNS_17AttributeAccessorEEENS4_IKNS_16AttributeCheckerEEE
   fun:_ZN3ns314Ipv6L3Protocol9GetTypeIdEv
   fun:_ZN3ns332XIpv6L3ProtocolRegistrationClassC1Ev
   fun:_Z41__static_initialization_and_destruction_0ii
   fun:_GLOBAL__I_ipv6_l3_protocol.cc
   obj:/home/tazaki/hgworks/ns-3-dce-thehajime/build/lib/libns3-dev-internet-debug.so
   obj:/home/tazaki/hgworks/ns-3-dce-thehajime/build/lib/libns3-dev-internet-debug.so
   fun:vdl_list_iterate
   fun:vdl_init_call
}
{
   <insert_a_suppression_name_here>
   Memcheck:Leak
   fun:_Znwm
   fun:_ZN3ns36CreateINS_19FunctorCallbackImplIPFPNS_10ObjectBaseEvES3_NS_5emptyES6_S6_S6_S6_S6_S6_S6_S6_EES5_EENS_3PtrIT_EET0_
   fun:_ZN3ns38CallbackIPNS_10ObjectBaseENS_5emptyES3_S3_S3_S3_S3_S3_S3_S3_EC1IPFS2_vEEERKT_bb
   fun:_ZN3ns312MakeCallbackIPNS_10ObjectBaseEEENS_8CallbackIT_NS_5emptyES5_S5_S5_S5_S5_S5_S5_S5_EEPFS4_vE
   fun:_ZN3ns36TypeId14AddConstructorINS_12Icmpv6HeaderEEES0_v
   fun:_ZN3ns312Icmpv6Header9GetTypeIdEv
   fun:_ZN3ns330XIcmpv6HeaderRegistrationClassC1Ev
   fun:_Z41__static_initialization_and_destruction_0ii
   fun:_GLOBAL__I_icmpv6_header.cc
   obj:/home/tazaki/hgworks/ns-3-dce-thehajime/build/lib/libns3-dev-internet-debug.so
   obj:/home/tazaki/hgworks/ns-3-dce-thehajime/build/lib/libns3-dev-internet-debug.so
   fun:vdl_list_iterate
}
{
   <insert_a_suppression_name_here>
   Memcheck:Leak
   fun:_Znwm
   fun:_ZN3ns36CreateINS_19FunctorCallbackImplIPFPNS_10ObjectBaseEvES3_NS_5emptyES6_S6_S6_S6_S6_S6_S6_S6_EES5_EENS_3PtrIT_EET0_
   fun:_ZN3ns38CallbackIPNS_10ObjectBaseENS_5emptyES3_S3_S3_S3_S3_S3_S3_S3_EC1IPFS2_vEEERKT_bb
   fun:_ZN3ns312MakeCallbackIPNS_10ObjectBaseEEENS_8CallbackIT_NS_5emptyES5_S5_S5_S5_S5_S5_S5_S5_EEPFS4_vE
   fun:_ZN3ns36TypeId14AddConstructorINS_8Icmpv6NSEEES0_v
   fun:_ZN3ns38Icmpv6NS9GetTypeIdEv
   fun:_ZN3ns326XIcmpv6NSRegistrationClassC1Ev
   fun:_Z41__static_initialization_and_destruction_0ii
   fun:_GLOBAL__I_icmpv6_header.cc
   obj:/home/tazaki/hgworks/ns-3-dce-thehajime/build/lib/libns3-dev-internet-debug.so
   obj:/home/tazaki/hgworks/ns-3-dce-thehajime/build/lib/libns3-dev-internet-debug.so
   fun:vdl_list_iterate
}
{
   <insert_a_suppression_name_here>
   Memcheck:Leak
   fun:_Znwm
   fun:_ZN3ns36CreateINS_19FunctorCallbackImplIPFPNS_10ObjectBaseEvES3_NS_5emptyES6_S6_S6_S6_S6_S6_S6_S6_EES5_EENS_3PtrIT_EET0_
   fun:_ZN3ns38CallbackIPNS_10ObjectBaseENS_5emptyES3_S3_S3_S3_S3_S3_S3_S3_EC1IPFS2_vEEERKT_bb
   fun:_ZN3ns312MakeCallbackIPNS_10ObjectBaseEEENS_8CallbackIT_NS_5emptyES5_S5_S5_S5_S5_S5_S5_S5_EEPFS4_vE
   fun:_ZN3ns36TypeId14AddConstructorINS_8Icmpv6NAEEES0_v
   fun:_ZN3ns38Icmpv6NA9GetTypeIdEv
   fun:_ZN3ns326XIcmpv6NARegistrationClassC1Ev
   fun:_Z41__static_initialization_and_destruction_0ii
   fun:_GLOBAL__I_icmpv6_header.cc
   obj:/home/tazaki/hgworks/ns-3-dce-thehajime/build/lib/libns3-dev-internet-debug.so
   obj:/home/tazaki/hgworks/ns-3-dce-thehajime/build/lib/libns3-dev-internet-debug.so
   fun:vdl_list_iterate
}
{
   <insert_a_suppression_name_here>
   Memcheck:Leak
   fun:_Znwm
   fun:_ZN3ns36CreateINS_19FunctorCallbackImplIPFPNS_10ObjectBaseEvES3_NS_5emptyES6_S6_S6_S6_S6_S6_S6_S6_EES5_EENS_3PtrIT_EET0_
   fun:_ZN3ns38CallbackIPNS_10ObjectBaseENS_5emptyES3_S3_S3_S3_S3_S3_S3_S3_EC1IPFS2_vEEERKT_bb
   fun:_ZN3ns312MakeCallbackIPNS_10ObjectBaseEEENS_8CallbackIT_NS_5emptyES5_S5_S5_S5_S5_S5_S5_S5_EEPFS4_vE
   fun:_ZN3ns36TypeId14AddConstructorINS_8Icmpv6RAEEES0_v
   fun:_ZN3ns38Icmpv6RA9GetTypeIdEv
   fun:_ZN3ns326XIcmpv6RARegistrationClassC1Ev
   fun:_Z41__static_initialization_and_destruction_0ii
   fun:_GLOBAL__I_icmpv6_header.cc
   obj:/home/tazaki/hgworks/ns-3-dce-thehajime/build/lib/libns3-dev-internet-debug.so
   obj:/home/tazaki/hgworks/ns-3-dce-thehajime/build/lib/libns3-dev-internet-debug.so
   fun:vdl_list_iterate
}
{
   <insert_a_suppression_name_here>
   Memcheck:Leak
   fun:_Znwm
   fun:_ZN3ns36CreateINS_19FunctorCallbackImplIPFPNS_10ObjectBaseEvES3_NS_5emptyES6_S6_S6_S6_S6_S6_S6_S6_EES5_EENS_3PtrIT_EET0_
   fun:_ZN3ns38CallbackIPNS_10ObjectBaseENS_5emptyES3_S3_S3_S3_S3_S3_S3_S3_EC1IPFS2_vEEERKT_bb
   fun:_ZN3ns312MakeCallbackIPNS_10ObjectBaseEEENS_8CallbackIT_NS_5emptyES5_S5_S5_S5_S5_S5_S5_S5_EEPFS4_vE
   fun:_ZN3ns36TypeId14AddConstructorINS_8Icmpv6RSEEES0_v
   fun:_ZN3ns38Icmpv6RS9GetTypeIdEv
   fun:_ZN3ns326XIcmpv6RSRegistrationClassC1Ev
   fun:_Z41__static_initialization_and_destruction_0ii
   fun:_GLOBAL__I_icmpv6_header.cc
   obj:/home/tazaki/hgworks/ns-3-dce-thehajime/build/lib/libns3-dev-internet-debug.so
   obj:/home/tazaki/hgworks/ns-3-dce-thehajime/build/lib/libns3-dev-internet-debug.so
   fun:vdl_list_iterate
}
{
   <insert_a_suppression_name_here>
   Memcheck:Leak
   fun:_Znwm
   fun:_ZN3ns36CreateINS_19FunctorCallbackImplIPFPNS_10ObjectBaseEvES3_NS_5emptyES6_S6_S6_S6_S6_S6_S6_S6_EES5_EENS_3PtrIT_EET0_
   fun:_ZN3ns38CallbackIPNS_10ObjectBaseENS_5emptyES3_S3_S3_S3_S3_S3_S3_S3_EC1IPFS2_vEEERKT_bb
   fun:_ZN3ns312MakeCallbackIPNS_10ObjectBaseEEENS_8CallbackIT_NS_5emptyES5_S5_S5_S5_S5_S5_S5_S5_EEPFS4_vE
   fun:_ZN3ns36TypeId14AddConstructorINS_17Icmpv6RedirectionEEES0_v
   fun:_ZN3ns317Icmpv6Redirection9GetTypeIdEv
   fun:_ZN3ns335XIcmpv6RedirectionRegistrationClassC1Ev
   fun:_Z41__static_initialization_and_destruction_0ii
   fun:_GLOBAL__I_icmpv6_header.cc
   obj:/home/tazaki/hgworks/ns-3-dce-thehajime/build/lib/libns3-dev-internet-debug.so
   obj:/home/tazaki/hgworks/ns-3-dce-thehajime/build/lib/libns3-dev-internet-debug.so
   fun:vdl_list_iterate
}
{
   <insert_a_suppression_name_here>
   Memcheck:Leak
   fun:_Znwm
   fun:_ZN3ns36CreateINS_19FunctorCallbackImplIPFPNS_10ObjectBaseEvES3_NS_5emptyES6_S6_S6_S6_S6_S6_S6_S6_EES5_EENS_3PtrIT_EET0_
   fun:_ZN3ns38CallbackIPNS_10ObjectBaseENS_5emptyES3_S3_S3_S3_S3_S3_S3_S3_EC1IPFS2_vEEERKT_bb
   fun:_ZN3ns312MakeCallbackIPNS_10ObjectBaseEEENS_8CallbackIT_NS_5emptyES5_S5_S5_S5_S5_S5_S5_S5_EEPFS4_vE
   fun:_ZN3ns36TypeId14AddConstructorINS_10Icmpv6EchoEEES0_v
   fun:_ZN3ns310Icmpv6Echo9GetTypeIdEv
   fun:_ZN3ns328XIcmpv6EchoRegistrationClassC1Ev
   fun:_Z41__static_initialization_and_destruction_0ii
   fun:_GLOBAL__I_icmpv6_header.cc
   obj:/home/tazaki/hgworks/ns-3-dce-thehajime/build/lib/libns3-dev-internet-debug.so
   obj:/home/tazaki/hgworks/ns-3-dce-thehajime/build/lib/libns3-dev-internet-debug.so
   fun:vdl_list_iterate
}
{
   <insert_a_suppression_name_here>
   Memcheck:Leak
   fun:_Znwm
   fun:_ZN3ns36CreateINS_19FunctorCallbackImplIPFPNS_10ObjectBaseEvES3_NS_5emptyES6_S6_S6_S6_S6_S6_S6_S6_EES5_EENS_3PtrIT_EET0_
   fun:_ZN3ns38CallbackIPNS_10ObjectBaseENS_5emptyES3_S3_S3_S3_S3_S3_S3_S3_EC1IPFS2_vEEERKT_bb
   fun:_ZN3ns312MakeCallbackIPNS_10ObjectBaseEEENS_8CallbackIT_NS_5emptyES5_S5_S5_S5_S5_S5_S5_S5_EEPFS4_vE
   fun:_ZN3ns36TypeId14AddConstructorINS_28Icmpv6DestinationUnreachableEEES0_v
   fun:_ZN3ns328Icmpv6DestinationUnreachable9GetTypeIdEv
   fun:_ZN3ns346XIcmpv6DestinationUnreachableRegistrationClassC1Ev
   fun:_Z41__static_initialization_and_destruction_0ii
   fun:_GLOBAL__I_icmpv6_header.cc
   obj:/home/tazaki/hgworks/ns-3-dce-thehajime/build/lib/libns3-dev-internet-debug.so
   obj:/home/tazaki/hgworks/ns-3-dce-thehajime/build/lib/libns3-dev-internet-debug.so
   fun:vdl_list_iterate
}
{
   <insert_a_suppression_name_here>
   Memcheck:Leak
   fun:_Znwm
   fun:_ZN3ns36CreateINS_19FunctorCallbackImplIPFPNS_10ObjectBaseEvES3_NS_5emptyES6_S6_S6_S6_S6_S6_S6_S6_EES5_EENS_3PtrIT_EET0_
   fun:_ZN3ns38CallbackIPNS_10ObjectBaseENS_5emptyES3_S3_S3_S3_S3_S3_S3_S3_EC1IPFS2_vEEERKT_bb
   fun:_ZN3ns312MakeCallbackIPNS_10ObjectBaseEEENS_8CallbackIT_NS_5emptyES5_S5_S5_S5_S5_S5_S5_S5_EEPFS4_vE
   fun:_ZN3ns36TypeId14AddConstructorINS_12Icmpv6TooBigEEES0_v
   fun:_ZN3ns312Icmpv6TooBig9GetTypeIdEv
   fun:_ZN3ns330XIcmpv6TooBigRegistrationClassC1Ev
   fun:_Z41__static_initialization_and_destruction_0ii
   fun:_GLOBAL__I_icmpv6_header.cc
   obj:/home/tazaki/hgworks/ns-3-dce-thehajime/build/lib/libns3-dev-internet-debug.so
   obj:/home/tazaki/hgworks/ns-3-dce-thehajime/build/lib/libns3-dev-internet-debug.so
   fun:vdl_list_iterate
}
{
   <insert_a_suppression_name_here>
   Memcheck:Leak
   fun:_Znwm
   fun:_ZN3ns36CreateINS_19FunctorCallbackImplIPFPNS_10ObjectBaseEvES3_NS_5emptyES6_S6_S6_S6_S6_S6_S6_S6_EES5_EENS_3PtrIT_EET0_
   fun:_ZN3ns38CallbackIPNS_10ObjectBaseENS_5emptyES3_S3_S3_S3_S3_S3_S3_S3_EC1IPFS2_vEEERKT_bb
   fun:_ZN3ns312MakeCallbackIPNS_10ObjectBaseEEENS_8CallbackIT_NS_5emptyES5_S5_S5_S5_S5_S5_S5_S5_EEPFS4_vE
   fun:_ZN3ns36TypeId14AddConstructorINS_18Icmpv6TimeExceededEEES0_v
   fun:_ZN3ns318Icmpv6TimeExceeded9GetTypeIdEv
   fun:_ZN3ns336XIcmpv6TimeExceededRegistrationClassC1Ev
   fun:_Z41__static_initialization_and_destruction_0ii
   fun:_GLOBAL__I_icmpv6_header.cc
   obj:/home/tazaki/hgworks/ns-3-dce-thehajime/build/lib/libns3-dev-internet-debug.so
   obj:/home/tazaki/hgworks/ns-3-dce-thehajime/build/lib/libns3-dev-internet-debug.so
   fun:vdl_list_iterate
}
{
   <insert_a_suppression_name_here>
   Memcheck:Leak
   fun:_Znwm
   fun:_ZN3ns36CreateINS_19FunctorCallbackImplIPFPNS_10ObjectBaseEvES3_NS_5emptyES6_S6_S6_S6_S6_S6_S6_S6_EES5_EENS_3PtrIT_EET0_
   fun:_ZN3ns38CallbackIPNS_10ObjectBaseENS_5emptyES3_S3_S3_S3_S3_S3_S3_S3_EC1IPFS2_vEEERKT_bb
   fun:_ZN3ns312MakeCallbackIPNS_10ObjectBaseEEENS_8CallbackIT_NS_5emptyES5_S5_S5_S5_S5_S5_S5_S5_EEPFS4_vE
   fun:_ZN3ns36TypeId14AddConstructorINS_20Icmpv6ParameterErrorEEES0_v
   fun:_ZN3ns320Icmpv6ParameterError9GetTypeIdEv
   fun:_ZN3ns338XIcmpv6ParameterErrorRegistrationClassC1Ev
   fun:_Z41__static_initialization_and_destruction_0ii
   fun:_GLOBAL__I_icmpv6_header.cc
   obj:/home/tazaki/hgworks/ns-3-dce-thehajime/build/lib/libns3-dev-internet-debug.so
   obj:/home/tazaki/hgworks/ns-3-dce-thehajime/build/lib/libns3-dev-internet-debug.so
   fun:vdl_list_iterate
}
{
   <insert_a_suppression_name_here>
   Memcheck:Leak
   fun:_Znwm
   fun:_ZN3ns36CreateINS_19FunctorCallbackImplIPFPNS_10ObjectBaseEvES3_NS_5emptyES6_S6_S6_S6_S6_S6_S6_S6_EES5_EENS_3PtrIT_EET0_
   fun:_ZN3ns38CallbackIPNS_10ObjectBaseENS_5emptyES3_S3_S3_S3_S3_S3_S3_S3_EC1IPFS2_vEEERKT_bb
   fun:_ZN3ns312MakeCallbackIPNS_10ObjectBaseEEENS_8CallbackIT_NS_5emptyES5_S5_S5_S5_S5_S5_S5_S5_EEPFS4_vE
   fun:_ZN3ns36TypeId14AddConstructorINS_18Icmpv6OptionHeaderEEES0_v
   fun:_ZN3ns318Icmpv6OptionHeader9GetTypeIdEv
   fun:_ZN3ns336XIcmpv6OptionHeaderRegistrationClassC1Ev
   fun:_Z41__static_initialization_and_destruction_0ii
   fun:_GLOBAL__I_icmpv6_header.cc
   obj:/home/tazaki/hgworks/ns-3-dce-thehajime/build/lib/libns3-dev-internet-debug.so
   obj:/home/tazaki/hgworks/ns-3-dce-thehajime/build/lib/libns3-dev-internet-debug.so
   fun:vdl_list_iterate
}
{
   <insert_a_suppression_name_here>
   Memcheck:Leak
   fun:_Znwm
   fun:_ZN3ns36CreateINS_19FunctorCallbackImplIPFPNS_10ObjectBaseEvES3_NS_5emptyES6_S6_S6_S6_S6_S6_S6_S6_EES5_EENS_3PtrIT_EET0_
   fun:_ZN3ns38CallbackIPNS_10ObjectBaseENS_5emptyES3_S3_S3_S3_S3_S3_S3_S3_EC1IPFS2_vEEERKT_bb
   fun:_ZN3ns312MakeCallbackIPNS_10ObjectBaseEEENS_8CallbackIT_NS_5emptyES5_S5_S5_S5_S5_S5_S5_S5_EEPFS4_vE
   fun:_ZN3ns36TypeId14AddConstructorINS_15Icmpv6OptionMtuEEES0_v
   fun:_ZN3ns315Icmpv6OptionMtu9GetTypeIdEv
   fun:_ZN3ns333XIcmpv6OptionMtuRegistrationClassC1Ev
   fun:_Z41__static_initialization_and_destruction_0ii
   fun:_GLOBAL__I_icmpv6_header.cc
   obj:/home/tazaki/hgworks/ns-3-dce-thehajime/build/lib/libns3-dev-internet-debug.so
   obj:/home/tazaki/hgworks/ns-3-dce-thehajime/build/lib/libns3-dev-internet-debug.so
   fun:vdl_list_iterate
}
{
   <insert_a_suppression_name_here>
   Memcheck:Leak
   fun:_Znwm
   fun:_ZN3ns36CreateINS_19FunctorCallbackImplIPFPNS_10ObjectBaseEvES3_NS_5emptyES6_S6_S6_S6_S6_S6_S6_S6_EES5_EENS_3PtrIT_EET0_
   fun:_ZN3ns38CallbackIPNS_10ObjectBaseENS_5emptyES3_S3_S3_S3_S3_S3_S3_S3_EC1IPFS2_vEEERKT_bb
   fun:_ZN3ns312MakeCallbackIPNS_10ObjectBaseEEENS_8CallbackIT_NS_5emptyES5_S5_S5_S5_S5_S5_S5_S5_EEPFS4_vE
   fun:_ZN3ns36TypeId14AddConstructorINS_29Icmpv6OptionPrefixInformationEEES0_v
   fun:_ZN3ns329Icmpv6OptionPrefixInformation9GetTypeIdEv
   fun:_ZN3ns347XIcmpv6OptionPrefixInformationRegistrationClassC1Ev
   fun:_Z41__static_initialization_and_destruction_0ii
   fun:_GLOBAL__I_icmpv6_header.cc
   obj:/home/tazaki/hgworks/ns-3-dce-thehajime/build/lib/libns3-dev-internet-debug.so
   obj:/home/tazaki/hgworks/ns-3-dce-thehajime/build/lib/libns3-dev-internet-debug.so
   fun:vdl_list_iterate
}
{
   <insert_a_suppression_name_here>
   Memcheck:Leak
   fun:_Znwm
   fun:_ZN3ns36CreateINS_19FunctorCallbackImplIPFPNS_10ObjectBaseEvES3_NS_5emptyES6_S6_S6_S6_S6_S6_S6_S6_EES5_EENS_3PtrIT_EET0_
   fun:_ZN3ns38CallbackIPNS_10ObjectBaseENS_5emptyES3_S3_S3_S3_S3_S3_S3_S3_EC1IPFS2_vEEERKT_bb
   fun:_ZN3ns312MakeCallbackIPNS_10ObjectBaseEEENS_8CallbackIT_NS_5emptyES5_S5_S5_S5_S5_S5_S5_S5_EEPFS4_vE
   fun:_ZN3ns36TypeId14AddConstructorINS_28Icmpv6OptionLinkLayerAddressEEES0_v
   fun:_ZN3ns328Icmpv6OptionLinkLayerAddress9GetTypeIdEv
   fun:_ZN3ns346XIcmpv6OptionLinkLayerAddressRegistrationClassC1Ev
   fun:_Z41__static_initialization_and_destruction_0ii
   fun:_GLOBAL__I_icmpv6_header.cc
   obj:/home/tazaki/hgworks/ns-3-dce-thehajime/build/lib/libns3-dev-internet-debug.so
   obj:/home/tazaki/hgworks/ns-3-dce-thehajime/build/lib/libns3-dev-internet-debug.so
   fun:vdl_list_iterate
}
{
   <insert_a_suppression_name_here>
   Memcheck:Leak
   fun:_Znwm
   fun:_ZN3ns36CreateINS_19FunctorCallbackImplIPFPNS_10ObjectBaseEvES3_NS_5emptyES6_S6_S6_S6_S6_S6_S6_S6_EES5_EENS_3PtrIT_EET0_
   fun:_ZN3ns38CallbackIPNS_10ObjectBaseENS_5emptyES3_S3_S3_S3_S3_S3_S3_S3_EC1IPFS2_vEEERKT_bb
   fun:_ZN3ns312MakeCallbackIPNS_10ObjectBaseEEENS_8CallbackIT_NS_5emptyES5_S5_S5_S5_S5_S5_S5_S5_EEPFS4_vE
   fun:_ZN3ns36TypeId14AddConstructorINS_22Icmpv6OptionRedirectedEEES0_v
   fun:_ZN3ns322Icmpv6OptionRedirected9GetTypeIdEv
   fun:_ZN3ns340XIcmpv6OptionRedirectedRegistrationClassC1Ev
   fun:_Z41__static_initialization_and_destruction_0ii
   fun:_GLOBAL__I_icmpv6_header.cc
   obj:/home/tazaki/hgworks/ns-3-dce-thehajime/build/lib/libns3-dev-internet-debug.so
   obj:/home/tazaki/hgworks/ns-3-dce-thehajime/build/lib/libns3-dev-internet-debug.so
   fun:vdl_list_iterate
}
{
   <insert_a_suppression_name_here>
   Memcheck:Leak
   fun:_Znwm
   fun:_ZN3ns323DoMakeAccessorHelperOneINS_13UintegerValueENS_10NdiscCacheEjEENS_3PtrIKNS_17AttributeAccessorEEEMT0_T1_
   fun:_ZN3ns318MakeAccessorHelperINS_13UintegerValueEMNS_10NdiscCacheEjEENS_3PtrIKNS_17AttributeAccessorEEET0_
   fun:_ZN3ns320MakeUintegerAccessorIMNS_10NdiscCacheEjEENS_3PtrIKNS_17AttributeAccessorEEET_
   fun:_ZN3ns310NdiscCache9GetTypeIdEv
   fun:_ZN3ns328XNdiscCacheRegistrationClassC1Ev
   fun:_Z41__static_initialization_and_destruction_0ii
   fun:_GLOBAL__I_ndisc_cache.cc
   obj:/home/tazaki/hgworks/ns-3-dce-thehajime/build/lib/libns3-dev-internet-debug.so
   obj:/home/tazaki/hgworks/ns-3-dce-thehajime/build/lib/libns3-dev-internet-debug.so
   fun:vdl_list_iterate
   fun:vdl_init_call
}
{
   <insert_a_suppression_name_here>
   Memcheck:Leak
   fun:_Znwm
   fun:_ZN3ns36CreateINS_19FunctorCallbackImplIPFPNS_10ObjectBaseEvES3_NS_5emptyES6_S6_S6_S6_S6_S6_S6_S6_EES5_EENS_3PtrIT_EET0_
   fun:_ZN3ns38CallbackIPNS_10ObjectBaseENS_5emptyES3_S3_S3_S3_S3_S3_S3_S3_EC1IPFS2_vEEERKT_bb
   fun:_ZN3ns312MakeCallbackIPNS_10ObjectBaseEEENS_8CallbackIT_NS_5emptyES5_S5_S5_S5_S5_S5_S5_S5_EEPFS4_vE
   fun:_ZN3ns36TypeId14AddConstructorINS_17LoopbackNetDeviceEEES0_v
   fun:_ZN3ns317LoopbackNetDevice9GetTypeIdEv
   fun:_ZN3ns335XLoopbackNetDeviceRegistrationClassC1Ev
   fun:_Z41__static_initialization_and_destruction_0ii
   fun:_GLOBAL__I_loopback_net_device.cc
   obj:/home/tazaki/hgworks/ns-3-dce-thehajime/build/lib/libns3-dev-internet-debug.so
   obj:/home/tazaki/hgworks/ns-3-dce-thehajime/build/lib/libns3-dev-internet-debug.so
   fun:vdl_list_iterate
}
{
   <insert_a_suppression_name_here>
   Memcheck:Leak
   fun:_Znwm
   fun:_ZN3ns36CreateINS_19FunctorCallbackImplIPFPNS_10ObjectBaseEvES3_NS_5emptyES6_S6_S6_S6_S6_S6_S6_S6_EES5_EENS_3PtrIT_EET0_
   fun:_ZN3ns38CallbackIPNS_10ObjectBaseENS_5emptyES3_S3_S3_S3_S3_S3_S3_S3_EC1IPFS2_vEEERKT_bb
   fun:_ZN3ns312MakeCallbackIPNS_10ObjectBaseEEENS_8CallbackIT_NS_5emptyES5_S5_S5_S5_S5_S5_S5_S5_EEPFS4_vE
   fun:_ZN3ns36TypeId14AddConstructorINS_12Icmpv4HeaderEEES0_v
   fun:_ZN3ns312Icmpv4Header9GetTypeIdEv
   fun:_ZN3ns330XIcmpv4HeaderRegistrationClassC1Ev
   fun:_Z41__static_initialization_and_destruction_0ii
   fun:_GLOBAL__I_icmpv4.cc
   obj:/home/tazaki/hgworks/ns-3-dce-thehajime/build/lib/libns3-dev-internet-debug.so
   obj:/home/tazaki/hgworks/ns-3-dce-thehajime/build/lib/libns3-dev-internet-debug.so
   fun:vdl_list_iterate
}
{
   <insert_a_suppression_name_here>
   Memcheck:Leak
   fun:_Znwm
   fun:_ZN3ns36CreateINS_19FunctorCallbackImplIPFPNS_10ObjectBaseEvES3_NS_5emptyES6_S6_S6_S6_S6_S6_S6_S6_EES5_EENS_3PtrIT_EET0_
   fun:_ZN3ns38CallbackIPNS_10ObjectBaseENS_5emptyES3_S3_S3_S3_S3_S3_S3_S3_EC1IPFS2_vEEERKT_bb
   fun:_ZN3ns312MakeCallbackIPNS_10ObjectBaseEEENS_8CallbackIT_NS_5emptyES5_S5_S5_S5_S5_S5_S5_S5_EEPFS4_vE
   fun:_ZN3ns36TypeId14AddConstructorINS_10Icmpv4EchoEEES0_v
   fun:_ZN3ns310Icmpv4Echo9GetTypeIdEv
   fun:_ZN3ns328XIcmpv4EchoRegistrationClassC1Ev
   fun:_Z41__static_initialization_and_destruction_0ii
   fun:_GLOBAL__I_icmpv4.cc
   obj:/home/tazaki/hgworks/ns-3-dce-thehajime/build/lib/libns3-dev-internet-debug.so
   obj:/home/tazaki/hgworks/ns-3-dce-thehajime/build/lib/libns3-dev-internet-debug.so
   fun:vdl_list_iterate
}
{
   <insert_a_suppression_name_here>
   Memcheck:Leak
   fun:_Znwm
   fun:_ZN3ns36CreateINS_19FunctorCallbackImplIPFPNS_10ObjectBaseEvES3_NS_5emptyES6_S6_S6_S6_S6_S6_S6_S6_EES5_EENS_3PtrIT_EET0_
   fun:_ZN3ns38CallbackIPNS_10ObjectBaseENS_5emptyES3_S3_S3_S3_S3_S3_S3_S3_EC1IPFS2_vEEERKT_bb
   fun:_ZN3ns312MakeCallbackIPNS_10ObjectBaseEEENS_8CallbackIT_NS_5emptyES5_S5_S5_S5_S5_S5_S5_S5_EEPFS4_vE
   fun:_ZN3ns36TypeId14AddConstructorINS_28Icmpv4DestinationUnreachableEEES0_v
   fun:_ZN3ns328Icmpv4DestinationUnreachable9GetTypeIdEv
   fun:_ZN3ns346XIcmpv4DestinationUnreachableRegistrationClassC1Ev
   fun:_Z41__static_initialization_and_destruction_0ii
   fun:_GLOBAL__I_icmpv4.cc
   obj:/home/tazaki/hgworks/ns-3-dce-thehajime/build/lib/libns3-dev-internet-debug.so
   obj:/home/tazaki/hgworks/ns-3-dce-thehajime/build/lib/libns3-dev-internet-debug.so
   fun:vdl_list_iterate
}
{
   <insert_a_suppression_name_here>
   Memcheck:Leak
   fun:_Znwm
   fun:_ZN3ns36CreateINS_19FunctorCallbackImplIPFPNS_10ObjectBaseEvES3_NS_5emptyES6_S6_S6_S6_S6_S6_S6_S6_EES5_EENS_3PtrIT_EET0_
   fun:_ZN3ns38CallbackIPNS_10ObjectBaseENS_5emptyES3_S3_S3_S3_S3_S3_S3_S3_EC1IPFS2_vEEERKT_bb
   fun:_ZN3ns312MakeCallbackIPNS_10ObjectBaseEEENS_8CallbackIT_NS_5emptyES5_S5_S5_S5_S5_S5_S5_S5_EEPFS4_vE
   fun:_ZN3ns36TypeId14AddConstructorINS_18Icmpv4TimeExceededEEES0_v
   fun:_ZN3ns318Icmpv4TimeExceeded9GetTypeIdEv
   fun:_ZN3ns336XIcmpv4TimeExceededRegistrationClassC1Ev
   fun:_Z41__static_initialization_and_destruction_0ii
   fun:_GLOBAL__I_icmpv4.cc
   obj:/home/tazaki/hgworks/ns-3-dce-thehajime/build/lib/libns3-dev-internet-debug.so
   obj:/home/tazaki/hgworks/ns-3-dce-thehajime/build/lib/libns3-dev-internet-debug.so
   fun:vdl_list_iterate
}
{
   <insert_a_suppression_name_here>
   Memcheck:Leak
   fun:_Znwm
   fun:_ZN3ns323DoMakeAccessorHelperOneINS_12BooleanValueENS_17Ipv4RawSocketImplEbEENS_3PtrIKNS_17AttributeAccessorEEEMT0_T1_
   fun:_ZN3ns318MakeAccessorHelperINS_12BooleanValueEMNS_17Ipv4RawSocketImplEbEENS_3PtrIKNS_17AttributeAccessorEEET0_
   fun:_ZN3ns319MakeBooleanAccessorIMNS_17Ipv4RawSocketImplEbEENS_3PtrIKNS_17AttributeAccessorEEET_
   fun:_ZN3ns317Ipv4RawSocketImpl9GetTypeIdEv
   fun:_ZN3ns335XIpv4RawSocketImplRegistrationClassC1Ev
   fun:_Z41__static_initialization_and_destruction_0ii
   fun:_GLOBAL__I_ipv4_raw_socket_impl.cc
   obj:/home/tazaki/hgworks/ns-3-dce-thehajime/build/lib/libns3-dev-internet-debug.so
   obj:/home/tazaki/hgworks/ns-3-dce-thehajime/build/lib/libns3-dev-internet-debug.so
   fun:vdl_list_iterate
   fun:vdl_init_call
}
{
   <insert_a_suppression_name_here>
   Memcheck:Leak
   fun:_Znwm
   fun:_ZN3ns323DoMakeAccessorHelperOneINS_13UintegerValueENS_17Ipv4RawSocketImplEjEENS_3PtrIKNS_17AttributeAccessorEEEMT0_T1_
   fun:_ZN3ns318MakeAccessorHelperINS_13UintegerValueEMNS_17Ipv4RawSocketImplEjEENS_3PtrIKNS_17AttributeAccessorEEET0_
   fun:_ZN3ns320MakeUintegerAccessorIMNS_17Ipv4RawSocketImplEjEENS_3PtrIKNS_17AttributeAccessorEEET_
   fun:_ZN3ns317Ipv4RawSocketImpl9GetTypeIdEv
   fun:_ZN3ns335XIpv4RawSocketImplRegistrationClassC1Ev
   fun:_Z41__static_initialization_and_destruction_0ii
   fun:_GLOBAL__I_ipv4_raw_socket_impl.cc
   obj:/home/tazaki/hgworks/ns-3-dce-thehajime/build/lib/libns3-dev-internet-debug.so
   obj:/home/tazaki/hgworks/ns-3-dce-thehajime/build/lib/libns3-dev-internet-debug.so
   fun:vdl_list_iterate
   fun:vdl_init_call
}
{
   <insert_a_suppression_name_here>
   Memcheck:Leak
   fun:_Znwm
   fun:_ZN3ns323DoMakeAccessorHelperOneINS_13UintegerValueENS_17Ipv4RawSocketImplEtEENS_3PtrIKNS_17AttributeAccessorEEEMT0_T1_
   fun:_ZN3ns318MakeAccessorHelperINS_13UintegerValueEMNS_17Ipv4RawSocketImplEtEENS_3PtrIKNS_17AttributeAccessorEEET0_
   fun:_ZN3ns320MakeUintegerAccessorIMNS_17Ipv4RawSocketImplEtEENS_3PtrIKNS_17AttributeAccessorEEET_
   fun:_ZN3ns317Ipv4RawSocketImpl9GetTypeIdEv
   fun:_ZN3ns335XIpv4RawSocketImplRegistrationClassC1Ev
   fun:_Z41__static_initialization_and_destruction_0ii
   fun:_GLOBAL__I_ipv4_raw_socket_impl.cc
   obj:/home/tazaki/hgworks/ns-3-dce-thehajime/build/lib/libns3-dev-internet-debug.so
   obj:/home/tazaki/hgworks/ns-3-dce-thehajime/build/lib/libns3-dev-internet-debug.so
   fun:vdl_list_iterate
   fun:vdl_init_call
}
{
   <insert_a_suppression_name_here>
   Memcheck:Leak
   fun:_Znwm
   fun:_ZN3ns324MakeObjectVectorAccessorINS_13UdpL4ProtocolESt6vectorINS_3PtrINS_13UdpSocketImplEEESaIS5_EEEENS3_IKNS_17AttributeAccessorEEEMT_T0_
   fun:_ZN3ns313UdpL4Protocol9GetTypeIdEv
   fun:_ZN3ns331XUdpL4ProtocolRegistrationClassC1Ev
   fun:_Z41__static_initialization_and_destruction_0ii
   fun:_GLOBAL__I_udp_l4_protocol.cc
   obj:/home/tazaki/hgworks/ns-3-dce-thehajime/build/lib/libns3-dev-internet-debug.so
   obj:/home/tazaki/hgworks/ns-3-dce-thehajime/build/lib/libns3-dev-internet-debug.so
   fun:vdl_list_iterate
   fun:vdl_init_call
   fun:dlopen_with_context
   fun:vdl_dlmopen
}
{
   <insert_a_suppression_name_here>
   Memcheck:Leak
   fun:_Znwm
   fun:_ZN3ns325DoMakeTraceSourceAccessorINS_14Ipv4L3ProtocolENS_14TracedCallbackIRKNS_10Ipv4HeaderENS_3PtrIKNS_6PacketEEEjNS_5emptyESA_SA_SA_SA_EEEENS6_IKNS_19TraceSourceAccessorEEEMT_T0_
   fun:_ZN3ns323MakeTraceSourceAccessorIMNS_14Ipv4L3ProtocolENS_14TracedCallbackIRKNS_10Ipv4HeaderENS_3PtrIKNS_6PacketEEEjNS_5emptyESA_SA_SA_SA_EEEENS6_IKNS_19TraceSourceAccessorEEET_
   fun:_ZN3ns314Ipv4L3Protocol9GetTypeIdEv
   fun:_ZN3ns332XIpv4L3ProtocolRegistrationClassC1Ev
   fun:_Z41__static_initialization_and_destruction_0ii
   fun:_GLOBAL__I_ipv4_l3_protocol.cc
   obj:/home/tazaki/hgworks/ns-3-dce-thehajime/build/lib/libns3-dev-internet-debug.so
   obj:/home/tazaki/hgworks/ns-3-dce-thehajime/build/lib/libns3-dev-internet-debug.so
   fun:vdl_list_iterate
   fun:vdl_init_call
   fun:dlopen_with_context
}
{
   <insert_a_suppression_name_here>
   Memcheck:Leak
   fun:_Znwm
   fun:_ZN3ns325DoMakeTraceSourceAccessorINS_14Ipv4L3ProtocolENS_14TracedCallbackIRKNS_10Ipv4HeaderENS_3PtrIKNS_6PacketEEENS1_10DropReasonENS6_INS_4Ipv4EEEjNS_5emptyESD_SD_EEEENS6_IKNS_19TraceSourceAccessorEEEMT_T0_
   fun:_ZN3ns323MakeTraceSourceAccessorIMNS_14Ipv4L3ProtocolENS_14TracedCallbackIRKNS_10Ipv4HeaderENS_3PtrIKNS_6PacketEEENS1_10DropReasonENS6_INS_4Ipv4EEEjNS_5emptyESD_SD_EEEENS6_IKNS_19TraceSourceAccessorEEET_
   fun:_ZN3ns314Ipv4L3Protocol9GetTypeIdEv
   fun:_ZN3ns332XIpv4L3ProtocolRegistrationClassC1Ev
   fun:_Z41__static_initialization_and_destruction_0ii
   fun:_GLOBAL__I_ipv4_l3_protocol.cc
   obj:/home/tazaki/hgworks/ns-3-dce-thehajime/build/lib/libns3-dev-internet-debug.so
   obj:/home/tazaki/hgworks/ns-3-dce-thehajime/build/lib/libns3-dev-internet-debug.so
   fun:vdl_list_iterate
   fun:vdl_init_call
   fun:dlopen_with_context
}
{
   <insert_a_suppression_name_here>
   Memcheck:Leak
   fun:_Znwm
   fun:_ZN3ns325DoMakeTraceSourceAccessorINS_14Ipv4L3ProtocolENS_14TracedCallbackINS_3PtrIKNS_6PacketEEENS3_INS_4Ipv4EEEjNS_5emptyES9_S9_S9_S9_EEEENS3_IKNS_19TraceSourceAccessorEEEMT_T0_
   fun:_ZN3ns323MakeTraceSourceAccessorIMNS_14Ipv4L3ProtocolENS_14TracedCallbackINS_3PtrIKNS_6PacketEEENS3_INS_4Ipv4EEEjNS_5emptyES9_S9_S9_S9_EEEENS3_IKNS_19TraceSourceAccessorEEET_
   fun:_ZN3ns314Ipv4L3Protocol9GetTypeIdEv
   fun:_ZN3ns332XIpv4L3ProtocolRegistrationClassC1Ev
   fun:_Z41__static_initialization_and_destruction_0ii
   fun:_GLOBAL__I_ipv4_l3_protocol.cc
   obj:/home/tazaki/hgworks/ns-3-dce-thehajime/build/lib/libns3-dev-internet-debug.so
   obj:/home/tazaki/hgworks/ns-3-dce-thehajime/build/lib/libns3-dev-internet-debug.so
   fun:vdl_list_iterate
   fun:vdl_init_call
   fun:dlopen_with_context
}
{
   <insert_a_suppression_name_here>
   Memcheck:Leak
   fun:_Znwm
   fun:_ZN3ns323DoMakeAccessorHelperOneINS_9TimeValueENS_14Ipv4L3ProtocolENS_4TimeEEENS_3PtrIKNS_17AttributeAccessorEEEMT0_T1_
   fun:_ZN3ns318MakeAccessorHelperINS_9TimeValueEMNS_14Ipv4L3ProtocolENS_4TimeEEENS_3PtrIKNS_17AttributeAccessorEEET0_
   fun:_ZN3ns316MakeTimeAccessorIMNS_14Ipv4L3ProtocolENS_4TimeEEENS_3PtrIKNS_17AttributeAccessorEEET_
   fun:_ZN3ns314Ipv4L3Protocol9GetTypeIdEv
   fun:_ZN3ns332XIpv4L3ProtocolRegistrationClassC1Ev
   fun:_Z41__static_initialization_and_destruction_0ii
   fun:_GLOBAL__I_ipv4_l3_protocol.cc
   obj:/home/tazaki/hgworks/ns-3-dce-thehajime/build/lib/libns3-dev-internet-debug.so
   obj:/home/tazaki/hgworks/ns-3-dce-thehajime/build/lib/libns3-dev-internet-debug.so
   fun:vdl_list_iterate
   fun:vdl_init_call
}
{
   <insert_a_suppression_name_here>
   Memcheck:Leak
   fun:_Znwm
   fun:_ZN3ns323DoMakeAccessorHelperOneINS_13UintegerValueENS_14Ipv4L3ProtocolEhEENS_3PtrIKNS_17AttributeAccessorEEEMT0_T1_
   fun:_ZN3ns318MakeAccessorHelperINS_13UintegerValueEMNS_14Ipv4L3ProtocolEhEENS_3PtrIKNS_17AttributeAccessorEEET0_
   fun:_ZN3ns320MakeUintegerAccessorIMNS_14Ipv4L3ProtocolEhEENS_3PtrIKNS_17AttributeAccessorEEET_
   fun:_ZN3ns314Ipv4L3Protocol9GetTypeIdEv
   fun:_ZN3ns332XIpv4L3ProtocolRegistrationClassC1Ev
   fun:_Z41__static_initialization_and_destruction_0ii
   fun:_GLOBAL__I_ipv4_l3_protocol.cc
   obj:/home/tazaki/hgworks/ns-3-dce-thehajime/build/lib/libns3-dev-internet-debug.so
   obj:/home/tazaki/hgworks/ns-3-dce-thehajime/build/lib/libns3-dev-internet-debug.so
   fun:vdl_list_iterate
   fun:vdl_init_call
}
{
   <insert_a_suppression_name_here>
   Memcheck:Leak
   fun:_Znwm
   fun:_ZN3ns36CreateINS_12PointerValueES1_EENS_3PtrIT_EET0_
   fun:_ZNK3ns312PointerValue4CopyEv
   fun:_ZN3ns36TypeId12AddAttributeESsSsRKNS_14AttributeValueENS_3PtrIKNS_17AttributeAccessorEEENS4_IKNS_16AttributeCheckerEEE
   fun:_ZN3ns313Ipv4Interface9GetTypeIdEv
   fun:_ZN3ns331XIpv4InterfaceRegistrationClassC1Ev
   fun:_Z41__static_initialization_and_destruction_0ii
   fun:_GLOBAL__I_ipv4_interface.cc
   obj:/home/tazaki/hgworks/ns-3-dce-thehajime/build/lib/libns3-dev-internet-debug.so
   obj:/home/tazaki/hgworks/ns-3-dce-thehajime/build/lib/libns3-dev-internet-debug.so
   fun:vdl_list_iterate
   fun:vdl_init_call
}
{
   <insert_a_suppression_name_here>
   Memcheck:Leak
   fun:_Znwm
   fun:_ZN3ns36CreateINS_19FunctorCallbackImplIPFPNS_10ObjectBaseEvES3_NS_5emptyES6_S6_S6_S6_S6_S6_S6_S6_EES5_EENS_3PtrIT_EET0_
   fun:_ZN3ns38CallbackIPNS_10ObjectBaseENS_5emptyES3_S3_S3_S3_S3_S3_S3_S3_EC1IPFS2_vEEERKT_bb
   fun:_ZN3ns312MakeCallbackIPNS_10ObjectBaseEEENS_8CallbackIT_NS_5emptyES5_S5_S5_S5_S5_S5_S5_S5_EEPFS4_vE
   fun:_ZN3ns36TypeId14AddConstructorINS_9UdpHeaderEEES0_v
   fun:_ZN3ns39UdpHeader9GetTypeIdEv
   fun:_ZN3ns327XUdpHeaderRegistrationClassC1Ev
   fun:_Z41__static_initialization_and_destruction_0ii
   fun:_GLOBAL__I_udp_header.cc
   obj:/home/tazaki/hgworks/ns-3-dce-thehajime/build/lib/libns3-dev-internet-debug.so
   obj:/home/tazaki/hgworks/ns-3-dce-thehajime/build/lib/libns3-dev-internet-debug.so
   fun:vdl_list_iterate
}
{
   <insert_a_suppression_name_here>
   Memcheck:Leak
   fun:_Znwm
   fun:_ZN3ns323DoMakeAccessorHelperOneINS_9TimeValueENS_21RealtimeSimulatorImplENS_4TimeEEENS_3PtrIKNS_17AttributeAccessorEEEMT0_T1_
   fun:_ZN3ns318MakeAccessorHelperINS_9TimeValueEMNS_21RealtimeSimulatorImplENS_4TimeEEENS_3PtrIKNS_17AttributeAccessorEEET0_
   fun:_ZN3ns316MakeTimeAccessorIMNS_21RealtimeSimulatorImplENS_4TimeEEENS_3PtrIKNS_17AttributeAccessorEEET_
   fun:_ZN3ns321RealtimeSimulatorImpl9GetTypeIdEv
   fun:_ZN3ns339XRealtimeSimulatorImplRegistrationClassC1Ev
   fun:_Z41__static_initialization_and_destruction_0ii
   fun:_GLOBAL__I_realtime_simulator_impl.cc
   obj:/home/tazaki/hgworks/ns-3-dce-thehajime/build/lib/libns3-dev-core-debug.so
   obj:/home/tazaki/hgworks/ns-3-dce-thehajime/build/lib/libns3-dev-core-debug.so
   fun:vdl_list_iterate
   fun:vdl_init_call
}
{
   <insert_a_suppression_name_here>
   Memcheck:Leak
   fun:_Znwm
   fun:_ZN3ns36CreateINS_19FunctorCallbackImplIPFPNS_10ObjectBaseEvES3_NS_5emptyES6_S6_S6_S6_S6_S6_S6_S6_EES5_EENS_3PtrIT_EET0_
   fun:_ZN3ns38CallbackIPNS_10ObjectBaseENS_5emptyES3_S3_S3_S3_S3_S3_S3_S3_EC1IPFS2_vEEERKT_bb
   fun:_ZN3ns312MakeCallbackIPNS_10ObjectBaseEEENS_8CallbackIT_NS_5emptyES5_S5_S5_S5_S5_S5_S5_S5_EEPFS4_vE
   fun:_ZN3ns36TypeId14AddConstructorINS_21RealtimeSimulatorImplEEES0_v
   fun:_ZN3ns321RealtimeSimulatorImpl9GetTypeIdEv
   fun:_ZN3ns339XRealtimeSimulatorImplRegistrationClassC1Ev
   fun:_Z41__static_initialization_and_destruction_0ii
   fun:_GLOBAL__I_realtime_simulator_impl.cc
   obj:/home/tazaki/hgworks/ns-3-dce-thehajime/build/lib/libns3-dev-core-debug.so
   obj:/home/tazaki/hgworks/ns-3-dce-thehajime/build/lib/libns3-dev-core-debug.so
   fun:vdl_list_iterate
}
{
   <insert_a_suppression_name_here>
   Memcheck:Leak
   fun:_Znwm
   fun:_ZN3ns36CreateINS_9TimeValueES1_EENS_3PtrIT_EET0_
   fun:_ZNK3ns39TimeValue4CopyEv
   fun:_ZN3ns36TypeId12AddAttributeESsSsRKNS_14AttributeValueENS_3PtrIKNS_17AttributeAccessorEEENS4_IKNS_16AttributeCheckerEEE
   fun:_ZN3ns321RealtimeSimulatorImpl9GetTypeIdEv
   fun:_ZN3ns339XRealtimeSimulatorImplRegistrationClassC1Ev
   fun:_Z41__static_initialization_and_destruction_0ii
   fun:_GLOBAL__I_realtime_simulator_impl.cc
   obj:/home/tazaki/hgworks/ns-3-dce-thehajime/build/lib/libns3-dev-core-debug.so
   obj:/home/tazaki/hgworks/ns-3-dce-thehajime/build/lib/libns3-dev-core-debug.so
   fun:vdl_list_iterate
   fun:vdl_init_call
}
{
   <insert_a_suppression_name_here>
   Memcheck:Leak
   fun:_Znwm
   fun:_ZN3ns36CreateINS_12IntegerValueES1_EENS_3PtrIT_EET0_
   fun:_ZNK3ns312IntegerValue4CopyEv
   fun:_ZNK3ns316AttributeChecker16CreateValidValueERKNS_14AttributeValueE
   fun:_ZN3ns311GlobalValueC1ESsSsRKNS_14AttributeValueENS_3PtrIKNS_16AttributeCheckerEEE
   fun:_Z41__static_initialization_and_destruction_0ii
   fun:_GLOBAL__I_rng_seed_manager.cc
   obj:/home/tazaki/hgworks/ns-3-dce-thehajime/build/lib/libns3-dev-core-debug.so
   obj:/home/tazaki/hgworks/ns-3-dce-thehajime/build/lib/libns3-dev-core-debug.so
   fun:vdl_list_iterate
   fun:vdl_init_call
   fun:dlopen_with_context
}
{
   <insert_a_suppression_name_here>
   Memcheck:Leak
   fun:_Znwm
   fun:_ZN3ns36CreateINS_12IntegerValueES1_EENS_3PtrIT_EET0_
   fun:_ZNK3ns312IntegerValue4CopyEv
   fun:_ZN3ns36TypeId12AddAttributeESsSsRKNS_14AttributeValueENS_3PtrIKNS_17AttributeAccessorEEENS4_IKNS_16AttributeCheckerEEE
   fun:_ZN3ns320RandomVariableStream9GetTypeIdEv
   fun:_ZN3ns338XRandomVariableStreamRegistrationClassC1Ev
   fun:_Z41__static_initialization_and_destruction_0ii
   fun:_GLOBAL__I_random_variable_stream.cc
   obj:/home/tazaki/hgworks/ns-3-dce-thehajime/build/lib/libns3-dev-core-debug.so
   obj:/home/tazaki/hgworks/ns-3-dce-thehajime/build/lib/libns3-dev-core-debug.so
   fun:vdl_list_iterate
   fun:vdl_init_call
}
{
   <insert_a_suppression_name_here>
   Memcheck:Leak
   fun:_Znwm
   fun:_ZN3ns323DoMakeAccessorHelperOneINS_11DoubleValueENS_21UniformRandomVariableEdEENS_3PtrIKNS_17AttributeAccessorEEEMT0_T1_
   fun:_ZN3ns318MakeAccessorHelperINS_11DoubleValueEMNS_21UniformRandomVariableEdEENS_3PtrIKNS_17AttributeAccessorEEET0_
   fun:_ZN3ns318MakeDoubleAccessorIMNS_21UniformRandomVariableEdEENS_3PtrIKNS_17AttributeAccessorEEET_
   fun:_ZN3ns321UniformRandomVariable9GetTypeIdEv
   fun:_ZN3ns339XUniformRandomVariableRegistrationClassC1Ev
   fun:_Z41__static_initialization_and_destruction_0ii
   fun:_GLOBAL__I_random_variable_stream.cc
   obj:/home/tazaki/hgworks/ns-3-dce-thehajime/build/lib/libns3-dev-core-debug.so
   obj:/home/tazaki/hgworks/ns-3-dce-thehajime/build/lib/libns3-dev-core-debug.so
   fun:vdl_list_iterate
   fun:vdl_init_call
}
{
   <insert_a_suppression_name_here>
   Memcheck:Leak
   fun:_Znwm
   fun:_ZN3ns36CreateINS_19FunctorCallbackImplIPFPNS_10ObjectBaseEvES3_NS_5emptyES6_S6_S6_S6_S6_S6_S6_S6_EES5_EENS_3PtrIT_EET0_
   fun:_ZN3ns38CallbackIPNS_10ObjectBaseENS_5emptyES3_S3_S3_S3_S3_S3_S3_S3_EC1IPFS2_vEEERKT_bb
   fun:_ZN3ns312MakeCallbackIPNS_10ObjectBaseEEENS_8CallbackIT_NS_5emptyES5_S5_S5_S5_S5_S5_S5_S5_EEPFS4_vE
   fun:_ZN3ns36TypeId14AddConstructorINS_21UniformRandomVariableEEES0_v
   fun:_ZN3ns321UniformRandomVariable9GetTypeIdEv
   fun:_ZN3ns339XUniformRandomVariableRegistrationClassC1Ev
   fun:_Z41__static_initialization_and_destruction_0ii
   fun:_GLOBAL__I_random_variable_stream.cc
   obj:/home/tazaki/hgworks/ns-3-dce-thehajime/build/lib/libns3-dev-core-debug.so
   obj:/home/tazaki/hgworks/ns-3-dce-thehajime/build/lib/libns3-dev-core-debug.so
   fun:vdl_list_iterate
}
{
   <insert_a_suppression_name_here>
   Memcheck:Leak
   fun:_Znwm
   fun:_ZN3ns36CreateINS_11DoubleValueES1_EENS_3PtrIT_EET0_
   fun:_ZNK3ns311DoubleValue4CopyEv
   fun:_ZN3ns36TypeId12AddAttributeESsSsRKNS_14AttributeValueENS_3PtrIKNS_17AttributeAccessorEEENS4_IKNS_16AttributeCheckerEEE
   fun:_ZN3ns321UniformRandomVariable9GetTypeIdEv
   fun:_ZN3ns339XUniformRandomVariableRegistrationClassC1Ev
   fun:_Z41__static_initialization_and_destruction_0ii
   fun:_GLOBAL__I_random_variable_stream.cc
   obj:/home/tazaki/hgworks/ns-3-dce-thehajime/build/lib/libns3-dev-core-debug.so
   obj:/home/tazaki/hgworks/ns-3-dce-thehajime/build/lib/libns3-dev-core-debug.so
   fun:vdl_list_iterate
   fun:vdl_init_call
}
{
   <insert_a_suppression_name_here>
   Memcheck:Leak
   fun:_Znwm
   fun:_ZN3ns323DoMakeAccessorHelperOneINS_11DoubleValueENS_22ConstantRandomVariableEdEENS_3PtrIKNS_17AttributeAccessorEEEMT0_T1_
   fun:_ZN3ns318MakeAccessorHelperINS_11DoubleValueEMNS_22ConstantRandomVariableEdEENS_3PtrIKNS_17AttributeAccessorEEET0_
   fun:_ZN3ns318MakeDoubleAccessorIMNS_22ConstantRandomVariableEdEENS_3PtrIKNS_17AttributeAccessorEEET_
   fun:_ZN3ns322ConstantRandomVariable9GetTypeIdEv
   fun:_ZN3ns340XConstantRandomVariableRegistrationClassC1Ev
   fun:_Z41__static_initialization_and_destruction_0ii
   fun:_GLOBAL__I_random_variable_stream.cc
   obj:/home/tazaki/hgworks/ns-3-dce-thehajime/build/lib/libns3-dev-core-debug.so
   obj:/home/tazaki/hgworks/ns-3-dce-thehajime/build/lib/libns3-dev-core-debug.so
   fun:vdl_list_iterate
   fun:vdl_init_call
}
{
   <insert_a_suppression_name_here>
   Memcheck:Leak
   fun:_Znwm
   fun:_ZN3ns36CreateINS_19FunctorCallbackImplIPFPNS_10ObjectBaseEvES3_NS_5emptyES6_S6_S6_S6_S6_S6_S6_S6_EES5_EENS_3PtrIT_EET0_
   fun:_ZN3ns38CallbackIPNS_10ObjectBaseENS_5emptyES3_S3_S3_S3_S3_S3_S3_S3_EC1IPFS2_vEEERKT_bb
   fun:_ZN3ns312MakeCallbackIPNS_10ObjectBaseEEENS_8CallbackIT_NS_5emptyES5_S5_S5_S5_S5_S5_S5_S5_EEPFS4_vE
   fun:_ZN3ns36TypeId14AddConstructorINS_22ConstantRandomVariableEEES0_v
   fun:_ZN3ns322ConstantRandomVariable9GetTypeIdEv
   fun:_ZN3ns340XConstantRandomVariableRegistrationClassC1Ev
   fun:_Z41__static_initialization_and_destruction_0ii
   fun:_GLOBAL__I_random_variable_stream.cc
   obj:/home/tazaki/hgworks/ns-3-dce-thehajime/build/lib/libns3-dev-core-debug.so
   obj:/home/tazaki/hgworks/ns-3-dce-thehajime/build/lib/libns3-dev-core-debug.so
   fun:vdl_list_iterate
}
{
   <insert_a_suppression_name_here>
   Memcheck:Leak
   fun:_Znwm
   fun:_ZN3ns36CreateINS_11DoubleValueES1_EENS_3PtrIT_EET0_
   fun:_ZNK3ns311DoubleValue4CopyEv
   fun:_ZN3ns36TypeId12AddAttributeESsSsRKNS_14AttributeValueENS_3PtrIKNS_17AttributeAccessorEEENS4_IKNS_16AttributeCheckerEEE
   fun:_ZN3ns322ConstantRandomVariable9GetTypeIdEv
   fun:_ZN3ns340XConstantRandomVariableRegistrationClassC1Ev
   fun:_Z41__static_initialization_and_destruction_0ii
   fun:_GLOBAL__I_random_variable_stream.cc
   obj:/home/tazaki/hgworks/ns-3-dce-thehajime/build/lib/libns3-dev-core-debug.so
   obj:/home/tazaki/hgworks/ns-3-dce-thehajime/build/lib/libns3-dev-core-debug.so
   fun:vdl_list_iterate
   fun:vdl_init_call
}
{
   <insert_a_suppression_name_here>
   Memcheck:Leak
   fun:_Znwm
   fun:_ZN3ns323DoMakeAccessorHelperOneINS_12IntegerValueENS_24SequentialRandomVariableEjEENS_3PtrIKNS_17AttributeAccessorEEEMT0_T1_
   fun:_ZN3ns318MakeAccessorHelperINS_12IntegerValueEMNS_24SequentialRandomVariableEjEENS_3PtrIKNS_17AttributeAccessorEEET0_
   fun:_ZN3ns319MakeIntegerAccessorIMNS_24SequentialRandomVariableEjEENS_3PtrIKNS_17AttributeAccessorEEET_
   fun:_ZN3ns324SequentialRandomVariable9GetTypeIdEv
   fun:_ZN3ns342XSequentialRandomVariableRegistrationClassC1Ev
   fun:_Z41__static_initialization_and_destruction_0ii
   fun:_GLOBAL__I_random_variable_stream.cc
   obj:/home/tazaki/hgworks/ns-3-dce-thehajime/build/lib/libns3-dev-core-debug.so
   obj:/home/tazaki/hgworks/ns-3-dce-thehajime/build/lib/libns3-dev-core-debug.so
   fun:vdl_list_iterate
   fun:vdl_init_call
}
{
   <insert_a_suppression_name_here>
   Memcheck:Leak
   fun:_Znwm
   fun:_ZN3ns323DoMakeAccessorHelperOneINS_12PointerValueENS_24SequentialRandomVariableENS_3PtrINS_20RandomVariableStreamEEEEENS3_IKNS_17AttributeAccessorEEEMT0_T1_
   fun:_ZN3ns318MakeAccessorHelperINS_12PointerValueEMNS_24SequentialRandomVariableENS_3PtrINS_20RandomVariableStreamEEEEENS3_IKNS_17AttributeAccessorEEET0_
   fun:_ZN3ns319MakePointerAccessorIMNS_24SequentialRandomVariableENS_3PtrINS_20RandomVariableStreamEEEEENS2_IKNS_17AttributeAccessorEEET_
   fun:_ZN3ns324SequentialRandomVariable9GetTypeIdEv
   fun:_ZN3ns342XSequentialRandomVariableRegistrationClassC1Ev
   fun:_Z41__static_initialization_and_destruction_0ii
   fun:_GLOBAL__I_random_variable_stream.cc
   obj:/home/tazaki/hgworks/ns-3-dce-thehajime/build/lib/libns3-dev-core-debug.so
   obj:/home/tazaki/hgworks/ns-3-dce-thehajime/build/lib/libns3-dev-core-debug.so
   fun:vdl_list_iterate
   fun:vdl_init_call
}
{
   <insert_a_suppression_name_here>
   Memcheck:Leak
   fun:_Znwm
   fun:_ZN3ns323DoMakeAccessorHelperOneINS_11DoubleValueENS_24SequentialRandomVariableEdEENS_3PtrIKNS_17AttributeAccessorEEEMT0_T1_
   fun:_ZN3ns318MakeAccessorHelperINS_11DoubleValueEMNS_24SequentialRandomVariableEdEENS_3PtrIKNS_17AttributeAccessorEEET0_
   fun:_ZN3ns318MakeDoubleAccessorIMNS_24SequentialRandomVariableEdEENS_3PtrIKNS_17AttributeAccessorEEET_
   fun:_ZN3ns324SequentialRandomVariable9GetTypeIdEv
   fun:_ZN3ns342XSequentialRandomVariableRegistrationClassC1Ev
   fun:_Z41__static_initialization_and_destruction_0ii
   fun:_GLOBAL__I_random_variable_stream.cc
   obj:/home/tazaki/hgworks/ns-3-dce-thehajime/build/lib/libns3-dev-core-debug.so
   obj:/home/tazaki/hgworks/ns-3-dce-thehajime/build/lib/libns3-dev-core-debug.so
   fun:vdl_list_iterate
   fun:vdl_init_call
}
{
   <insert_a_suppression_name_here>
   Memcheck:Leak
   fun:_Znwm
   fun:_ZN3ns36CreateINS_19FunctorCallbackImplIPFPNS_10ObjectBaseEvES3_NS_5emptyES6_S6_S6_S6_S6_S6_S6_S6_EES5_EENS_3PtrIT_EET0_
   fun:_ZN3ns38CallbackIPNS_10ObjectBaseENS_5emptyES3_S3_S3_S3_S3_S3_S3_S3_EC1IPFS2_vEEERKT_bb
   fun:_ZN3ns312MakeCallbackIPNS_10ObjectBaseEEENS_8CallbackIT_NS_5emptyES5_S5_S5_S5_S5_S5_S5_S5_EEPFS4_vE
   fun:_ZN3ns36TypeId14AddConstructorINS_24SequentialRandomVariableEEES0_v
   fun:_ZN3ns324SequentialRandomVariable9GetTypeIdEv
   fun:_ZN3ns342XSequentialRandomVariableRegistrationClassC1Ev
   fun:_Z41__static_initialization_and_destruction_0ii
   fun:_GLOBAL__I_random_variable_stream.cc
   obj:/home/tazaki/hgworks/ns-3-dce-thehajime/build/lib/libns3-dev-core-debug.so
   obj:/home/tazaki/hgworks/ns-3-dce-thehajime/build/lib/libns3-dev-core-debug.so
   fun:vdl_list_iterate
}
{
   <insert_a_suppression_name_here>
   Memcheck:Leak
   fun:_Znwm
   fun:_ZN3ns36CreateINS_11DoubleValueES1_EENS_3PtrIT_EET0_
   fun:_ZNK3ns311DoubleValue4CopyEv
   fun:_ZN3ns36TypeId12AddAttributeESsSsRKNS_14AttributeValueENS_3PtrIKNS_17AttributeAccessorEEENS4_IKNS_16AttributeCheckerEEE
   fun:_ZN3ns324SequentialRandomVariable9GetTypeIdEv
   fun:_ZN3ns342XSequentialRandomVariableRegistrationClassC1Ev
   fun:_Z41__static_initialization_and_destruction_0ii
   fun:_GLOBAL__I_random_variable_stream.cc
   obj:/home/tazaki/hgworks/ns-3-dce-thehajime/build/lib/libns3-dev-core-debug.so
   obj:/home/tazaki/hgworks/ns-3-dce-thehajime/build/lib/libns3-dev-core-debug.so
   fun:vdl_list_iterate
   fun:vdl_init_call
}
{
   <insert_a_suppression_name_here>
   Memcheck:Leak
   fun:_Znwm
   fun:_ZN3ns36CreateINS_11StringValueES1_EENS_3PtrIT_EET0_
   fun:_ZNK3ns311StringValue4CopyEv
   fun:_ZN3ns36TypeId12AddAttributeESsSsRKNS_14AttributeValueENS_3PtrIKNS_17AttributeAccessorEEENS4_IKNS_16AttributeCheckerEEE
   fun:_ZN3ns324SequentialRandomVariable9GetTypeIdEv
   fun:_ZN3ns342XSequentialRandomVariableRegistrationClassC1Ev
   fun:_Z41__static_initialization_and_destruction_0ii
   fun:_GLOBAL__I_random_variable_stream.cc
   obj:/home/tazaki/hgworks/ns-3-dce-thehajime/build/lib/libns3-dev-core-debug.so
   obj:/home/tazaki/hgworks/ns-3-dce-thehajime/build/lib/libns3-dev-core-debug.so
   fun:vdl_list_iterate
   fun:vdl_init_call
}
{
   <insert_a_suppression_name_here>
   Memcheck:Leak
   fun:_Znwm
   fun:_ZN3ns36CreateINS_12IntegerValueES1_EENS_3PtrIT_EET0_
   fun:_ZNK3ns312IntegerValue4CopyEv
   fun:_ZN3ns36TypeId12AddAttributeESsSsRKNS_14AttributeValueENS_3PtrIKNS_17AttributeAccessorEEENS4_IKNS_16AttributeCheckerEEE
   fun:_ZN3ns324SequentialRandomVariable9GetTypeIdEv
   fun:_ZN3ns342XSequentialRandomVariableRegistrationClassC1Ev
   fun:_Z41__static_initialization_and_destruction_0ii
   fun:_GLOBAL__I_random_variable_stream.cc
   obj:/home/tazaki/hgworks/ns-3-dce-thehajime/build/lib/libns3-dev-core-debug.so
   obj:/home/tazaki/hgworks/ns-3-dce-thehajime/build/lib/libns3-dev-core-debug.so
   fun:vdl_list_iterate
   fun:vdl_init_call
}
{
   <insert_a_suppression_name_here>
   Memcheck:Leak
   fun:_Znwm
   fun:_ZN3ns323DoMakeAccessorHelperOneINS_11DoubleValueENS_25ExponentialRandomVariableEdEENS_3PtrIKNS_17AttributeAccessorEEEMT0_T1_
   fun:_ZN3ns318MakeAccessorHelperINS_11DoubleValueEMNS_25ExponentialRandomVariableEdEENS_3PtrIKNS_17AttributeAccessorEEET0_
   fun:_ZN3ns318MakeDoubleAccessorIMNS_25ExponentialRandomVariableEdEENS_3PtrIKNS_17AttributeAccessorEEET_
   fun:_ZN3ns325ExponentialRandomVariable9GetTypeIdEv
   fun:_ZN3ns343XExponentialRandomVariableRegistrationClassC1Ev
   fun:_Z41__static_initialization_and_destruction_0ii
   fun:_GLOBAL__I_random_variable_stream.cc
   obj:/home/tazaki/hgworks/ns-3-dce-thehajime/build/lib/libns3-dev-core-debug.so
   obj:/home/tazaki/hgworks/ns-3-dce-thehajime/build/lib/libns3-dev-core-debug.so
   fun:vdl_list_iterate
   fun:vdl_init_call
}
{
   <insert_a_suppression_name_here>
   Memcheck:Leak
   fun:_Znwm
   fun:_ZN3ns36CreateINS_19FunctorCallbackImplIPFPNS_10ObjectBaseEvES3_NS_5emptyES6_S6_S6_S6_S6_S6_S6_S6_EES5_EENS_3PtrIT_EET0_
   fun:_ZN3ns38CallbackIPNS_10ObjectBaseENS_5emptyES3_S3_S3_S3_S3_S3_S3_S3_EC1IPFS2_vEEERKT_bb
   fun:_ZN3ns312MakeCallbackIPNS_10ObjectBaseEEENS_8CallbackIT_NS_5emptyES5_S5_S5_S5_S5_S5_S5_S5_EEPFS4_vE
   fun:_ZN3ns36TypeId14AddConstructorINS_25ExponentialRandomVariableEEES0_v
   fun:_ZN3ns325ExponentialRandomVariable9GetTypeIdEv
   fun:_ZN3ns343XExponentialRandomVariableRegistrationClassC1Ev
   fun:_Z41__static_initialization_and_destruction_0ii
   fun:_GLOBAL__I_random_variable_stream.cc
   obj:/home/tazaki/hgworks/ns-3-dce-thehajime/build/lib/libns3-dev-core-debug.so
   obj:/home/tazaki/hgworks/ns-3-dce-thehajime/build/lib/libns3-dev-core-debug.so
   fun:vdl_list_iterate
}
{
   <insert_a_suppression_name_here>
   Memcheck:Leak
   fun:_Znwm
   fun:_ZN3ns36CreateINS_11DoubleValueES1_EENS_3PtrIT_EET0_
   fun:_ZNK3ns311DoubleValue4CopyEv
   fun:_ZN3ns36TypeId12AddAttributeESsSsRKNS_14AttributeValueENS_3PtrIKNS_17AttributeAccessorEEENS4_IKNS_16AttributeCheckerEEE
   fun:_ZN3ns325ExponentialRandomVariable9GetTypeIdEv
   fun:_ZN3ns343XExponentialRandomVariableRegistrationClassC1Ev
   fun:_Z41__static_initialization_and_destruction_0ii
   fun:_GLOBAL__I_random_variable_stream.cc
   obj:/home/tazaki/hgworks/ns-3-dce-thehajime/build/lib/libns3-dev-core-debug.so
   obj:/home/tazaki/hgworks/ns-3-dce-thehajime/build/lib/libns3-dev-core-debug.so
   fun:vdl_list_iterate
   fun:vdl_init_call
}
{
   <insert_a_suppression_name_here>
   Memcheck:Leak
   fun:_Znwm
   fun:_ZN3ns323DoMakeAccessorHelperOneINS_11DoubleValueENS_20ParetoRandomVariableEdEENS_3PtrIKNS_17AttributeAccessorEEEMT0_T1_
   fun:_ZN3ns318MakeAccessorHelperINS_11DoubleValueEMNS_20ParetoRandomVariableEdEENS_3PtrIKNS_17AttributeAccessorEEET0_
   fun:_ZN3ns318MakeDoubleAccessorIMNS_20ParetoRandomVariableEdEENS_3PtrIKNS_17AttributeAccessorEEET_
   fun:_ZN3ns320ParetoRandomVariable9GetTypeIdEv
   fun:_ZN3ns338XParetoRandomVariableRegistrationClassC1Ev
   fun:_Z41__static_initialization_and_destruction_0ii
   fun:_GLOBAL__I_random_variable_stream.cc
   obj:/home/tazaki/hgworks/ns-3-dce-thehajime/build/lib/libns3-dev-core-debug.so
   obj:/home/tazaki/hgworks/ns-3-dce-thehajime/build/lib/libns3-dev-core-debug.so
   fun:vdl_list_iterate
   fun:vdl_init_call
}
{
   <insert_a_suppression_name_here>
   Memcheck:Leak
   fun:_Znwm
   fun:_ZN3ns36CreateINS_11StringValueES1_EENS_3PtrIT_EET0_
   fun:_ZNK3ns311StringValue4CopyEv
   fun:_ZN3ns313ObjectFactory3SetESsRKNS_14AttributeValueE
   fun:_ZN3ns316DceManagerHelper15SetNetworkStackESsSsRKNS_14AttributeValueE
   fun:main
}
{
   <insert_a_suppression_name_here>
   Memcheck:Leak
   fun:_Znwm
   fun:_ZN3ns36CreateINS_19FunctorCallbackImplIPFPNS_10ObjectBaseEvES3_NS_5emptyES6_S6_S6_S6_S6_S6_S6_S6_EES5_EENS_3PtrIT_EET0_
   fun:_ZN3ns38CallbackIPNS_10ObjectBaseENS_5emptyES3_S3_S3_S3_S3_S3_S3_S3_EC1IPFS2_vEEERKT_bb
   fun:_ZN3ns312MakeCallbackIPNS_10ObjectBaseEEENS_8CallbackIT_NS_5emptyES5_S5_S5_S5_S5_S5_S5_S5_EEPFS4_vE
   fun:_ZN3ns36TypeId14AddConstructorINS_10OspfConfigEEES0_v
   fun:_ZN3ns310OspfConfig9GetTypeIdEv
   fun:_ZNK3ns36Object9GetObjectINS_10OspfConfigEEENS_3PtrIT_EEv
   fun:_ZN3ns312QuaggaHelper11InstallPrivENS_3PtrINS_4NodeEEE
   fun:_ZN3ns312QuaggaHelper7InstallENS_13NodeContainerE
   fun:main
}
{
   <insert_a_suppression_name_here>
   Memcheck:Leak
   fun:_Znwm
   fun:_ZN3ns36CreateINS_19FunctorCallbackImplIPFPNS_10ObjectBaseEvES3_NS_5emptyES6_S6_S6_S6_S6_S6_S6_S6_EES5_EENS_3PtrIT_EET0_
   fun:_ZN3ns38CallbackIPNS_10ObjectBaseENS_5emptyES3_S3_S3_S3_S3_S3_S3_S3_EC1IPFS2_vEEERKT_bb
   fun:_ZN3ns312MakeCallbackIPNS_10ObjectBaseEEENS_8CallbackIT_NS_5emptyES5_S5_S5_S5_S5_S5_S5_S5_EEPFS4_vE
   fun:_ZN3ns36TypeId14AddConstructorINS_11Ospf6ConfigEEES0_v
   fun:_ZN3ns311Ospf6Config9GetTypeIdEv
   fun:_ZNK3ns36Object9GetObjectINS_11Ospf6ConfigEEENS_3PtrIT_EEv
   fun:_ZN3ns312QuaggaHelper11InstallPrivENS_3PtrINS_4NodeEEE
   fun:_ZN3ns312QuaggaHelper7InstallENS_13NodeContainerE
   fun:main
}
{
   <insert_a_suppression_name_here>
   Memcheck:Leak
   fun:_Znwm
   fun:_ZN3ns36CreateINS_19FunctorCallbackImplIPFPNS_10ObjectBaseEvES3_NS_5emptyES6_S6_S6_S6_S6_S6_S6_S6_EES5_EENS_3PtrIT_EET0_
   fun:_ZN3ns38CallbackIPNS_10ObjectBaseENS_5emptyES3_S3_S3_S3_S3_S3_S3_S3_EC1IPFS2_vEEERKT_bb
   fun:_ZN3ns312MakeCallbackIPNS_10ObjectBaseEEENS_8CallbackIT_NS_5emptyES5_S5_S5_S5_S5_S5_S5_S5_EEPFS4_vE
   fun:_ZN3ns36TypeId14AddConstructorINS_9RipConfigEEES0_v
   fun:_ZN3ns39RipConfig9GetTypeIdEv
   fun:_ZNK3ns36Object9GetObjectINS_9RipConfigEEENS_3PtrIT_EEv
   fun:_ZN3ns312QuaggaHelper11InstallPrivENS_3PtrINS_4NodeEEE
   fun:_ZN3ns312QuaggaHelper7InstallENS_13NodeContainerE
   fun:main
}
{
   <insert_a_suppression_name_here>
   Memcheck:Leak
   fun:_Znwm
   fun:_ZN3ns36CreateINS_19FunctorCallbackImplIPFPNS_10ObjectBaseEvES3_NS_5emptyES6_S6_S6_S6_S6_S6_S6_S6_EES5_EENS_3PtrIT_EET0_
   fun:_ZN3ns38CallbackIPNS_10ObjectBaseENS_5emptyES3_S3_S3_S3_S3_S3_S3_S3_EC1IPFS2_vEEERKT_bb
   fun:_ZN3ns312MakeCallbackIPNS_10ObjectBaseEEENS_8CallbackIT_NS_5emptyES5_S5_S5_S5_S5_S5_S5_S5_EEPFS4_vE
   fun:_ZN3ns36TypeId14AddConstructorINS_11RipngConfigEEES0_v
   fun:_ZN3ns311RipngConfig9GetTypeIdEv
   fun:_ZNK3ns36Object9GetObjectINS_11RipngConfigEEENS_3PtrIT_EEv
   fun:_ZN3ns312QuaggaHelper11InstallPrivENS_3PtrINS_4NodeEEE
   fun:_ZN3ns312QuaggaHelper7InstallENS_13NodeContainerE
   fun:main
}
{
   <insert_a_suppression_name_here>
   Memcheck:Leak
   fun:_Znwm
   fun:_ZN3ns36CreateINS_19FunctorCallbackImplIPFPNS_10ObjectBaseEvES3_NS_5emptyES6_S6_S6_S6_S6_S6_S6_S6_EES5_EENS_3PtrIT_EET0_
   fun:_ZN3ns38CallbackIPNS_10ObjectBaseENS_5emptyES3_S3_S3_S3_S3_S3_S3_S3_EC1IPFS2_vEEERKT_bb
   fun:_ZN3ns312MakeCallbackIPNS_10ObjectBaseEEENS_8CallbackIT_NS_5emptyES5_S5_S5_S5_S5_S5_S5_S5_EEPFS4_vE
   fun:_ZN3ns36TypeId14AddConstructorINS_13UdpL4ProtocolEEES0_v
   fun:_ZN3ns313UdpL4Protocol9GetTypeIdEv
   fun:_ZN3ns331XUdpL4ProtocolRegistrationClassC1Ev
   fun:_Z41__static_initialization_and_destruction_0ii
   fun:_GLOBAL__I_udp_l4_protocol.cc
   obj:/home/tazaki/hgworks/ns-3-dce-thehajime/build/lib/libns3-dev-internet-debug.so
   obj:/home/tazaki/hgworks/ns-3-dce-thehajime/build/lib/libns3-dev-internet-debug.so
   fun:vdl_list_iterate
}
{
   <insert_a_suppression_name_here>
   Memcheck:Leak
   fun:_Znwm
   fun:_ZN3ns324MakeObjectVectorAccessorINS_14Ipv4L3ProtocolESt6vectorINS_3PtrINS_13Ipv4InterfaceEEESaIS5_EEEENS3_IKNS_17AttributeAccessorEEEMT_T0_
   fun:_ZN3ns314Ipv4L3Protocol9GetTypeIdEv
   fun:_ZN3ns332XIpv4L3ProtocolRegistrationClassC1Ev
   fun:_Z41__static_initialization_and_destruction_0ii
   fun:_GLOBAL__I_ipv4_l3_protocol.cc
   obj:/home/tazaki/hgworks/ns-3-dce-thehajime/build/lib/libns3-dev-internet-debug.so
   obj:/home/tazaki/hgworks/ns-3-dce-thehajime/build/lib/libns3-dev-internet-debug.so
   fun:vdl_list_iterate
   fun:vdl_init_call
   fun:dlopen_with_context
   fun:vdl_dlmopen
}
{
   <insert_a_suppression_name_here>
   Memcheck:Leak
   fun:_Znwm
   fun:_ZN3ns36CreateINS_19FunctorCallbackImplIPFPNS_10ObjectBaseEvES3_NS_5emptyES6_S6_S6_S6_S6_S6_S6_S6_EES5_EENS_3PtrIT_EET0_
   fun:_ZN3ns38CallbackIPNS_10ObjectBaseENS_5emptyES3_S3_S3_S3_S3_S3_S3_S3_EC1IPFS2_vEEERKT_bb
   fun:_ZN3ns312MakeCallbackIPNS_10ObjectBaseEEENS_8CallbackIT_NS_5emptyES5_S5_S5_S5_S5_S5_S5_S5_EEPFS4_vE
   fun:_ZN3ns36TypeId14AddConstructorINS_14Ipv4L3ProtocolEEES0_v
   fun:_ZN3ns314Ipv4L3Protocol9GetTypeIdEv
   fun:_ZN3ns332XIpv4L3ProtocolRegistrationClassC1Ev
   fun:_Z41__static_initialization_and_destruction_0ii
   fun:_GLOBAL__I_ipv4_l3_protocol.cc
   obj:/home/tazaki/hgworks/ns-3-dce-thehajime/build/lib/libns3-dev-internet-debug.so
   obj:/home/tazaki/hgworks/ns-3-dce-thehajime/build/lib/libns3-dev-internet-debug.so
   fun:vdl_list_iterate
}
{
   <insert_a_suppression_name_here>
   Memcheck:Leak
   fun:_Znwm
   fun:_ZN3ns36CreateINS_13UintegerValueES1_EENS_3PtrIT_EET0_
   fun:_ZNK3ns313UintegerValue4CopyEv
   fun:_ZN3ns36TypeId12AddAttributeESsSsRKNS_14AttributeValueENS_3PtrIKNS_17AttributeAccessorEEENS4_IKNS_16AttributeCheckerEEE
   fun:_ZN3ns314Ipv4L3Protocol9GetTypeIdEv
   fun:_ZN3ns332XIpv4L3ProtocolRegistrationClassC1Ev
   fun:_Z41__static_initialization_and_destruction_0ii
   fun:_GLOBAL__I_ipv4_l3_protocol.cc
   obj:/home/tazaki/hgworks/ns-3-dce-thehajime/build/lib/libns3-dev-internet-debug.so
   obj:/home/tazaki/hgworks/ns-3-dce-thehajime/build/lib/libns3-dev-internet-debug.so
   fun:vdl_list_iterate
   fun:vdl_init_call
}
{
   <insert_a_suppression_name_here>
   Memcheck:Leak
   fun:_Znwm
   fun:_ZN3ns36CreateINS_9TimeValueES1_EENS_3PtrIT_EET0_
   fun:_ZNK3ns39TimeValue4CopyEv
   fun:_ZN3ns36TypeId12AddAttributeESsSsRKNS_14AttributeValueENS_3PtrIKNS_17AttributeAccessorEEENS4_IKNS_16AttributeCheckerEEE
   fun:_ZN3ns314Ipv4L3Protocol9GetTypeIdEv
   fun:_ZN3ns332XIpv4L3ProtocolRegistrationClassC1Ev
   fun:_Z41__static_initialization_and_destruction_0ii
   fun:_GLOBAL__I_ipv4_l3_protocol.cc
   obj:/home/tazaki/hgworks/ns-3-dce-thehajime/build/lib/libns3-dev-internet-debug.so
   obj:/home/tazaki/hgworks/ns-3-dce-thehajime/build/lib/libns3-dev-internet-debug.so
   fun:vdl_list_iterate
   fun:vdl_init_call
}
{
   <insert_a_suppression_name_here>
   Memcheck:Leak
   fun:_Znwm
   fun:_ZN3ns36CreateINS_19FunctorCallbackImplIPFPNS_10ObjectBaseEvES3_NS_5emptyES6_S6_S6_S6_S6_S6_S6_S6_EES5_EENS_3PtrIT_EET0_
   fun:_ZN3ns38CallbackIPNS_10ObjectBaseENS_5emptyES3_S3_S3_S3_S3_S3_S3_S3_EC1IPFS2_vEEERKT_bb
   fun:_ZN3ns312MakeCallbackIPNS_10ObjectBaseEEENS_8CallbackIT_NS_5emptyES5_S5_S5_S5_S5_S5_S5_S5_EEPFS4_vE
   fun:_ZN3ns36TypeId14AddConstructorINS_9TcpHeaderEEES0_v
   fun:_ZN3ns39TcpHeader9GetTypeIdEv
   fun:_ZN3ns327XTcpHeaderRegistrationClassC1Ev
   fun:_Z41__static_initialization_and_destruction_0ii
   fun:_GLOBAL__I_tcp_header.cc
   obj:/home/tazaki/hgworks/ns-3-dce-thehajime/build/lib/libns3-dev-internet-debug.so
   obj:/home/tazaki/hgworks/ns-3-dce-thehajime/build/lib/libns3-dev-internet-debug.so
   fun:vdl_list_iterate
}
{
   <insert_a_suppression_name_here>
   Memcheck:Leak
   fun:_Znwm
   fun:_ZN3ns36CreateINS_19FunctorCallbackImplIPFPNS_10ObjectBaseEvES3_NS_5emptyES6_S6_S6_S6_S6_S6_S6_S6_EES5_EENS_3PtrIT_EET0_
   fun:_ZN3ns38CallbackIPNS_10ObjectBaseENS_5emptyES3_S3_S3_S3_S3_S3_S3_S3_EC1IPFS2_vEEERKT_bb
   fun:_ZN3ns312MakeCallbackIPNS_10ObjectBaseEEENS_8CallbackIT_NS_5emptyES5_S5_S5_S5_S5_S5_S5_S5_EEPFS4_vE
   fun:_ZN3ns36TypeId14AddConstructorINS_20ParetoRandomVariableEEES0_v
   fun:_ZN3ns320ParetoRandomVariable9GetTypeIdEv
   fun:_ZN3ns338XParetoRandomVariableRegistrationClassC1Ev
   fun:_Z41__static_initialization_and_destruction_0ii
   fun:_GLOBAL__I_random_variable_stream.cc
   obj:/home/tazaki/hgworks/ns-3-dce-thehajime/build/lib/libns3-dev-core-debug.so
   obj:/home/tazaki/hgworks/ns-3-dce-thehajime/build/lib/libns3-dev-core-debug.so
   fun:vdl_list_iterate
}
{
   <insert_a_suppression_name_here>
   Memcheck:Leak
   fun:_Znwm
   fun:_ZN3ns36CreateINS_11DoubleValueES1_EENS_3PtrIT_EET0_
   fun:_ZNK3ns311DoubleValue4CopyEv
   fun:_ZN3ns36TypeId12AddAttributeESsSsRKNS_14AttributeValueENS_3PtrIKNS_17AttributeAccessorEEENS4_IKNS_16AttributeCheckerEEE
   fun:_ZN3ns320ParetoRandomVariable9GetTypeIdEv
   fun:_ZN3ns338XParetoRandomVariableRegistrationClassC1Ev
   fun:_Z41__static_initialization_and_destruction_0ii
   fun:_GLOBAL__I_random_variable_stream.cc
   obj:/home/tazaki/hgworks/ns-3-dce-thehajime/build/lib/libns3-dev-core-debug.so
   obj:/home/tazaki/hgworks/ns-3-dce-thehajime/build/lib/libns3-dev-core-debug.so
   fun:vdl_list_iterate
   fun:vdl_init_call
}
{
   <insert_a_suppression_name_here>
   Memcheck:Leak
   fun:_Znwm
   fun:_ZN3ns323DoMakeAccessorHelperOneINS_11DoubleValueENS_21WeibullRandomVariableEdEENS_3PtrIKNS_17AttributeAccessorEEEMT0_T1_
   fun:_ZN3ns318MakeAccessorHelperINS_11DoubleValueEMNS_21WeibullRandomVariableEdEENS_3PtrIKNS_17AttributeAccessorEEET0_
   fun:_ZN3ns318MakeDoubleAccessorIMNS_21WeibullRandomVariableEdEENS_3PtrIKNS_17AttributeAccessorEEET_
   fun:_ZN3ns321WeibullRandomVariable9GetTypeIdEv
   fun:_ZN3ns339XWeibullRandomVariableRegistrationClassC1Ev
   fun:_Z41__static_initialization_and_destruction_0ii
   fun:_GLOBAL__I_random_variable_stream.cc
   obj:/home/tazaki/hgworks/ns-3-dce-thehajime/build/lib/libns3-dev-core-debug.so
   obj:/home/tazaki/hgworks/ns-3-dce-thehajime/build/lib/libns3-dev-core-debug.so
   fun:vdl_list_iterate
   fun:vdl_init_call
}
{
   <insert_a_suppression_name_here>
   Memcheck:Leak
   fun:_Znwm
   fun:_ZN3ns36CreateINS_19FunctorCallbackImplIPFPNS_10ObjectBaseEvES3_NS_5emptyES6_S6_S6_S6_S6_S6_S6_S6_EES5_EENS_3PtrIT_EET0_
   fun:_ZN3ns38CallbackIPNS_10ObjectBaseENS_5emptyES3_S3_S3_S3_S3_S3_S3_S3_EC1IPFS2_vEEERKT_bb
   fun:_ZN3ns312MakeCallbackIPNS_10ObjectBaseEEENS_8CallbackIT_NS_5emptyES5_S5_S5_S5_S5_S5_S5_S5_EEPFS4_vE
   fun:_ZN3ns36TypeId14AddConstructorINS_21WeibullRandomVariableEEES0_v
   fun:_ZN3ns321WeibullRandomVariable9GetTypeIdEv
   fun:_ZN3ns339XWeibullRandomVariableRegistrationClassC1Ev
   fun:_Z41__static_initialization_and_destruction_0ii
   fun:_GLOBAL__I_random_variable_stream.cc
   obj:/home/tazaki/hgworks/ns-3-dce-thehajime/build/lib/libns3-dev-core-debug.so
   obj:/home/tazaki/hgworks/ns-3-dce-thehajime/build/lib/libns3-dev-core-debug.so
   fun:vdl_list_iterate
}
{
   <insert_a_suppression_name_here>
   Memcheck:Leak
   fun:_Znwm
   fun:_ZN3ns36CreateINS_11DoubleValueES1_EENS_3PtrIT_EET0_
   fun:_ZNK3ns311DoubleValue4CopyEv
   fun:_ZN3ns36TypeId12AddAttributeESsSsRKNS_14AttributeValueENS_3PtrIKNS_17AttributeAccessorEEENS4_IKNS_16AttributeCheckerEEE
   fun:_ZN3ns321WeibullRandomVariable9GetTypeIdEv
   fun:_ZN3ns339XWeibullRandomVariableRegistrationClassC1Ev
   fun:_Z41__static_initialization_and_destruction_0ii
   fun:_GLOBAL__I_random_variable_stream.cc
   obj:/home/tazaki/hgworks/ns-3-dce-thehajime/build/lib/libns3-dev-core-debug.so
   obj:/home/tazaki/hgworks/ns-3-dce-thehajime/build/lib/libns3-dev-core-debug.so
   fun:vdl_list_iterate
   fun:vdl_init_call
}
{
   <insert_a_suppression_name_here>
   Memcheck:Leak
   fun:_Znwm
   fun:_ZN3ns323DoMakeAccessorHelperOneINS_11DoubleValueENS_20NormalRandomVariableEdEENS_3PtrIKNS_17AttributeAccessorEEEMT0_T1_
   fun:_ZN3ns318MakeAccessorHelperINS_11DoubleValueEMNS_20NormalRandomVariableEdEENS_3PtrIKNS_17AttributeAccessorEEET0_
   fun:_ZN3ns318MakeDoubleAccessorIMNS_20NormalRandomVariableEdEENS_3PtrIKNS_17AttributeAccessorEEET_
   fun:_ZN3ns320NormalRandomVariable9GetTypeIdEv
   fun:_ZN3ns338XNormalRandomVariableRegistrationClassC1Ev
   fun:_Z41__static_initialization_and_destruction_0ii
   fun:_GLOBAL__I_random_variable_stream.cc
   obj:/home/tazaki/hgworks/ns-3-dce-thehajime/build/lib/libns3-dev-core-debug.so
   obj:/home/tazaki/hgworks/ns-3-dce-thehajime/build/lib/libns3-dev-core-debug.so
   fun:vdl_list_iterate
   fun:vdl_init_call
}
{
   <insert_a_suppression_name_here>
   Memcheck:Leak
   fun:_Znwm
   fun:_ZN3ns36CreateINS_19FunctorCallbackImplIPFPNS_10ObjectBaseEvES3_NS_5emptyES6_S6_S6_S6_S6_S6_S6_S6_EES5_EENS_3PtrIT_EET0_
   fun:_ZN3ns38CallbackIPNS_10ObjectBaseENS_5emptyES3_S3_S3_S3_S3_S3_S3_S3_EC1IPFS2_vEEERKT_bb
   fun:_ZN3ns312MakeCallbackIPNS_10ObjectBaseEEENS_8CallbackIT_NS_5emptyES5_S5_S5_S5_S5_S5_S5_S5_EEPFS4_vE
   fun:_ZN3ns36TypeId14AddConstructorINS_20NormalRandomVariableEEES0_v
   fun:_ZN3ns320NormalRandomVariable9GetTypeIdEv
   fun:_ZN3ns338XNormalRandomVariableRegistrationClassC1Ev
   fun:_Z41__static_initialization_and_destruction_0ii
   fun:_GLOBAL__I_random_variable_stream.cc
   obj:/home/tazaki/hgworks/ns-3-dce-thehajime/build/lib/libns3-dev-core-debug.so
   obj:/home/tazaki/hgworks/ns-3-dce-thehajime/build/lib/libns3-dev-core-debug.so
   fun:vdl_list_iterate
}
{
   <insert_a_suppression_name_here>
   Memcheck:Leak
   fun:_Znwm
   fun:_ZN3ns36CreateINS_11DoubleValueES1_EENS_3PtrIT_EET0_
   fun:_ZNK3ns311DoubleValue4CopyEv
   fun:_ZN3ns36TypeId12AddAttributeESsSsRKNS_14AttributeValueENS_3PtrIKNS_17AttributeAccessorEEENS4_IKNS_16AttributeCheckerEEE
   fun:_ZN3ns320NormalRandomVariable9GetTypeIdEv
   fun:_ZN3ns338XNormalRandomVariableRegistrationClassC1Ev
   fun:_Z41__static_initialization_and_destruction_0ii
   fun:_GLOBAL__I_random_variable_stream.cc
   obj:/home/tazaki/hgworks/ns-3-dce-thehajime/build/lib/libns3-dev-core-debug.so
   obj:/home/tazaki/hgworks/ns-3-dce-thehajime/build/lib/libns3-dev-core-debug.so
   fun:vdl_list_iterate
   fun:vdl_init_call
}
{
   <insert_a_suppression_name_here>
   Memcheck:Leak
   fun:_Znwm
   fun:_ZN3ns323DoMakeAccessorHelperOneINS_11DoubleValueENS_23LogNormalRandomVariableEdEENS_3PtrIKNS_17AttributeAccessorEEEMT0_T1_
   fun:_ZN3ns318MakeAccessorHelperINS_11DoubleValueEMNS_23LogNormalRandomVariableEdEENS_3PtrIKNS_17AttributeAccessorEEET0_
   fun:_ZN3ns318MakeDoubleAccessorIMNS_23LogNormalRandomVariableEdEENS_3PtrIKNS_17AttributeAccessorEEET_
   fun:_ZN3ns323LogNormalRandomVariable9GetTypeIdEv
   fun:_ZN3ns341XLogNormalRandomVariableRegistrationClassC1Ev
   fun:_Z41__static_initialization_and_destruction_0ii
   fun:_GLOBAL__I_random_variable_stream.cc
   obj:/home/tazaki/hgworks/ns-3-dce-thehajime/build/lib/libns3-dev-core-debug.so
   obj:/home/tazaki/hgworks/ns-3-dce-thehajime/build/lib/libns3-dev-core-debug.so
   fun:vdl_list_iterate
   fun:vdl_init_call
}
{
   <insert_a_suppression_name_here>
   Memcheck:Leak
   fun:_Znwm
   fun:_ZN3ns36CreateINS_19FunctorCallbackImplIPFPNS_10ObjectBaseEvES3_NS_5emptyES6_S6_S6_S6_S6_S6_S6_S6_EES5_EENS_3PtrIT_EET0_
   fun:_ZN3ns38CallbackIPNS_10ObjectBaseENS_5emptyES3_S3_S3_S3_S3_S3_S3_S3_EC1IPFS2_vEEERKT_bb
   fun:_ZN3ns312MakeCallbackIPNS_10ObjectBaseEEENS_8CallbackIT_NS_5emptyES5_S5_S5_S5_S5_S5_S5_S5_EEPFS4_vE
   fun:_ZN3ns36TypeId14AddConstructorINS_23LogNormalRandomVariableEEES0_v
   fun:_ZN3ns323LogNormalRandomVariable9GetTypeIdEv
   fun:_ZN3ns341XLogNormalRandomVariableRegistrationClassC1Ev
   fun:_Z41__static_initialization_and_destruction_0ii
   fun:_GLOBAL__I_random_variable_stream.cc
   obj:/home/tazaki/hgworks/ns-3-dce-thehajime/build/lib/libns3-dev-core-debug.so
   obj:/home/tazaki/hgworks/ns-3-dce-thehajime/build/lib/libns3-dev-core-debug.so
   fun:vdl_list_iterate
}
{
   <insert_a_suppression_name_here>
   Memcheck:Leak
   fun:_Znwm
   fun:_ZN3ns36CreateINS_11DoubleValueES1_EENS_3PtrIT_EET0_
   fun:_ZNK3ns311DoubleValue4CopyEv
   fun:_ZN3ns36TypeId12AddAttributeESsSsRKNS_14AttributeValueENS_3PtrIKNS_17AttributeAccessorEEENS4_IKNS_16AttributeCheckerEEE
   fun:_ZN3ns323LogNormalRandomVariable9GetTypeIdEv
   fun:_ZN3ns341XLogNormalRandomVariableRegistrationClassC1Ev
   fun:_Z41__static_initialization_and_destruction_0ii
   fun:_GLOBAL__I_random_variable_stream.cc
   obj:/home/tazaki/hgworks/ns-3-dce-thehajime/build/lib/libns3-dev-core-debug.so
   obj:/home/tazaki/hgworks/ns-3-dce-thehajime/build/lib/libns3-dev-core-debug.so
   fun:vdl_list_iterate
   fun:vdl_init_call
}
{
   <insert_a_suppression_name_here>
   Memcheck:Leak
   fun:_Znwm
   fun:_ZN3ns323DoMakeAccessorHelperOneINS_11DoubleValueENS_19GammaRandomVariableEdEENS_3PtrIKNS_17AttributeAccessorEEEMT0_T1_
   fun:_ZN3ns318MakeAccessorHelperINS_11DoubleValueEMNS_19GammaRandomVariableEdEENS_3PtrIKNS_17AttributeAccessorEEET0_
   fun:_ZN3ns318MakeDoubleAccessorIMNS_19GammaRandomVariableEdEENS_3PtrIKNS_17AttributeAccessorEEET_
   fun:_ZN3ns319GammaRandomVariable9GetTypeIdEv
   fun:_ZN3ns337XGammaRandomVariableRegistrationClassC1Ev
   fun:_Z41__static_initialization_and_destruction_0ii
   fun:_GLOBAL__I_random_variable_stream.cc
   obj:/home/tazaki/hgworks/ns-3-dce-thehajime/build/lib/libns3-dev-core-debug.so
   obj:/home/tazaki/hgworks/ns-3-dce-thehajime/build/lib/libns3-dev-core-debug.so
   fun:vdl_list_iterate
   fun:vdl_init_call
}
{
   <insert_a_suppression_name_here>
   Memcheck:Leak
   fun:_Znwm
   fun:_ZN3ns36CreateINS_19FunctorCallbackImplIPFPNS_10ObjectBaseEvES3_NS_5emptyES6_S6_S6_S6_S6_S6_S6_S6_EES5_EENS_3PtrIT_EET0_
   fun:_ZN3ns38CallbackIPNS_10ObjectBaseENS_5emptyES3_S3_S3_S3_S3_S3_S3_S3_EC1IPFS2_vEEERKT_bb
   fun:_ZN3ns312MakeCallbackIPNS_10ObjectBaseEEENS_8CallbackIT_NS_5emptyES5_S5_S5_S5_S5_S5_S5_S5_EEPFS4_vE
   fun:_ZN3ns36TypeId14AddConstructorINS_19GammaRandomVariableEEES0_v
   fun:_ZN3ns319GammaRandomVariable9GetTypeIdEv
   fun:_ZN3ns337XGammaRandomVariableRegistrationClassC1Ev
   fun:_Z41__static_initialization_and_destruction_0ii
   fun:_GLOBAL__I_random_variable_stream.cc
   obj:/home/tazaki/hgworks/ns-3-dce-thehajime/build/lib/libns3-dev-core-debug.so
   obj:/home/tazaki/hgworks/ns-3-dce-thehajime/build/lib/libns3-dev-core-debug.so
   fun:vdl_list_iterate
}
{
   <insert_a_suppression_name_here>
   Memcheck:Leak
   fun:_Znwm
   fun:_ZN3ns36CreateINS_11DoubleValueES1_EENS_3PtrIT_EET0_
   fun:_ZNK3ns311DoubleValue4CopyEv
   fun:_ZN3ns36TypeId12AddAttributeESsSsRKNS_14AttributeValueENS_3PtrIKNS_17AttributeAccessorEEENS4_IKNS_16AttributeCheckerEEE
   fun:_ZN3ns319GammaRandomVariable9GetTypeIdEv
   fun:_ZN3ns337XGammaRandomVariableRegistrationClassC1Ev
   fun:_Z41__static_initialization_and_destruction_0ii
   fun:_GLOBAL__I_random_variable_stream.cc
   obj:/home/tazaki/hgworks/ns-3-dce-thehajime/build/lib/libns3-dev-core-debug.so
   obj:/home/tazaki/hgworks/ns-3-dce-thehajime/build/lib/libns3-dev-core-debug.so
   fun:vdl_list_iterate
   fun:vdl_init_call
}
{
   <insert_a_suppression_name_here>
   Memcheck:Leak
   fun:_Znwm
   fun:_ZN3ns323DoMakeAccessorHelperOneINS_11DoubleValueENS_20ErlangRandomVariableEdEENS_3PtrIKNS_17AttributeAccessorEEEMT0_T1_
   fun:_ZN3ns318MakeAccessorHelperINS_11DoubleValueEMNS_20ErlangRandomVariableEdEENS_3PtrIKNS_17AttributeAccessorEEET0_
   fun:_ZN3ns318MakeDoubleAccessorIMNS_20ErlangRandomVariableEdEENS_3PtrIKNS_17AttributeAccessorEEET_
   fun:_ZN3ns320ErlangRandomVariable9GetTypeIdEv
   fun:_ZN3ns338XErlangRandomVariableRegistrationClassC1Ev
   fun:_Z41__static_initialization_and_destruction_0ii
   fun:_GLOBAL__I_random_variable_stream.cc
   obj:/home/tazaki/hgworks/ns-3-dce-thehajime/build/lib/libns3-dev-core-debug.so
   obj:/home/tazaki/hgworks/ns-3-dce-thehajime/build/lib/libns3-dev-core-debug.so
   fun:vdl_list_iterate
   fun:vdl_init_call
}
{
   <insert_a_suppression_name_here>
   Memcheck:Leak
   fun:_Znwm
   fun:_ZN3ns323DoMakeAccessorHelperOneINS_12IntegerValueENS_20ErlangRandomVariableEjEENS_3PtrIKNS_17AttributeAccessorEEEMT0_T1_
   fun:_ZN3ns318MakeAccessorHelperINS_12IntegerValueEMNS_20ErlangRandomVariableEjEENS_3PtrIKNS_17AttributeAccessorEEET0_
   fun:_ZN3ns319MakeIntegerAccessorIMNS_20ErlangRandomVariableEjEENS_3PtrIKNS_17AttributeAccessorEEET_
   fun:_ZN3ns320ErlangRandomVariable9GetTypeIdEv
   fun:_ZN3ns338XErlangRandomVariableRegistrationClassC1Ev
   fun:_Z41__static_initialization_and_destruction_0ii
   fun:_GLOBAL__I_random_variable_stream.cc
   obj:/home/tazaki/hgworks/ns-3-dce-thehajime/build/lib/libns3-dev-core-debug.so
   obj:/home/tazaki/hgworks/ns-3-dce-thehajime/build/lib/libns3-dev-core-debug.so
   fun:vdl_list_iterate
   fun:vdl_init_call
}
{
   <insert_a_suppression_name_here>
   Memcheck:Leak
   fun:_Znwm
   fun:_ZN3ns36CreateINS_19FunctorCallbackImplIPFPNS_10ObjectBaseEvES3_NS_5emptyES6_S6_S6_S6_S6_S6_S6_S6_EES5_EENS_3PtrIT_EET0_
   fun:_ZN3ns38CallbackIPNS_10ObjectBaseENS_5emptyES3_S3_S3_S3_S3_S3_S3_S3_EC1IPFS2_vEEERKT_bb
   fun:_ZN3ns312MakeCallbackIPNS_10ObjectBaseEEENS_8CallbackIT_NS_5emptyES5_S5_S5_S5_S5_S5_S5_S5_EEPFS4_vE
   fun:_ZN3ns36TypeId14AddConstructorINS_20ErlangRandomVariableEEES0_v
   fun:_ZN3ns320ErlangRandomVariable9GetTypeIdEv
   fun:_ZN3ns338XErlangRandomVariableRegistrationClassC1Ev
   fun:_Z41__static_initialization_and_destruction_0ii
   fun:_GLOBAL__I_random_variable_stream.cc
   obj:/home/tazaki/hgworks/ns-3-dce-thehajime/build/lib/libns3-dev-core-debug.so
   obj:/home/tazaki/hgworks/ns-3-dce-thehajime/build/lib/libns3-dev-core-debug.so
   fun:vdl_list_iterate
}
{
   <insert_a_suppression_name_here>
   Memcheck:Leak
   fun:_Znwm
   fun:_ZN3ns36CreateINS_12IntegerValueES1_EENS_3PtrIT_EET0_
   fun:_ZNK3ns312IntegerValue4CopyEv
   fun:_ZN3ns36TypeId12AddAttributeESsSsRKNS_14AttributeValueENS_3PtrIKNS_17AttributeAccessorEEENS4_IKNS_16AttributeCheckerEEE
   fun:_ZN3ns320ErlangRandomVariable9GetTypeIdEv
   fun:_ZN3ns338XErlangRandomVariableRegistrationClassC1Ev
   fun:_Z41__static_initialization_and_destruction_0ii
   fun:_GLOBAL__I_random_variable_stream.cc
   obj:/home/tazaki/hgworks/ns-3-dce-thehajime/build/lib/libns3-dev-core-debug.so
   obj:/home/tazaki/hgworks/ns-3-dce-thehajime/build/lib/libns3-dev-core-debug.so
   fun:vdl_list_iterate
   fun:vdl_init_call
}
{
   <insert_a_suppression_name_here>
   Memcheck:Leak
   fun:_Znwm
   fun:_ZN3ns36CreateINS_11DoubleValueES1_EENS_3PtrIT_EET0_
   fun:_ZNK3ns311DoubleValue4CopyEv
   fun:_ZN3ns36TypeId12AddAttributeESsSsRKNS_14AttributeValueENS_3PtrIKNS_17AttributeAccessorEEENS4_IKNS_16AttributeCheckerEEE
   fun:_ZN3ns320ErlangRandomVariable9GetTypeIdEv
   fun:_ZN3ns338XErlangRandomVariableRegistrationClassC1Ev
   fun:_Z41__static_initialization_and_destruction_0ii
   fun:_GLOBAL__I_random_variable_stream.cc
   obj:/home/tazaki/hgworks/ns-3-dce-thehajime/build/lib/libns3-dev-core-debug.so
   obj:/home/tazaki/hgworks/ns-3-dce-thehajime/build/lib/libns3-dev-core-debug.so
   fun:vdl_list_iterate
   fun:vdl_init_call
}
{
   <insert_a_suppression_name_here>
   Memcheck:Leak
   fun:_Znwm
   fun:_ZN3ns323DoMakeAccessorHelperOneINS_11DoubleValueENS_24TriangularRandomVariableEdEENS_3PtrIKNS_17AttributeAccessorEEEMT0_T1_
   fun:_ZN3ns318MakeAccessorHelperINS_11DoubleValueEMNS_24TriangularRandomVariableEdEENS_3PtrIKNS_17AttributeAccessorEEET0_
   fun:_ZN3ns318MakeDoubleAccessorIMNS_24TriangularRandomVariableEdEENS_3PtrIKNS_17AttributeAccessorEEET_
   fun:_ZN3ns324TriangularRandomVariable9GetTypeIdEv
   fun:_ZN3ns342XTriangularRandomVariableRegistrationClassC1Ev
   fun:_Z41__static_initialization_and_destruction_0ii
   fun:_GLOBAL__I_random_variable_stream.cc
   obj:/home/tazaki/hgworks/ns-3-dce-thehajime/build/lib/libns3-dev-core-debug.so
   obj:/home/tazaki/hgworks/ns-3-dce-thehajime/build/lib/libns3-dev-core-debug.so
   fun:vdl_list_iterate
   fun:vdl_init_call
}
{
   <insert_a_suppression_name_here>
   Memcheck:Leak
   fun:_Znwm
   fun:_ZN3ns36CreateINS_19FunctorCallbackImplIPFPNS_10ObjectBaseEvES3_NS_5emptyES6_S6_S6_S6_S6_S6_S6_S6_EES5_EENS_3PtrIT_EET0_
   fun:_ZN3ns38CallbackIPNS_10ObjectBaseENS_5emptyES3_S3_S3_S3_S3_S3_S3_S3_EC1IPFS2_vEEERKT_bb
   fun:_ZN3ns312MakeCallbackIPNS_10ObjectBaseEEENS_8CallbackIT_NS_5emptyES5_S5_S5_S5_S5_S5_S5_S5_EEPFS4_vE
   fun:_ZN3ns36TypeId14AddConstructorINS_24TriangularRandomVariableEEES0_v
   fun:_ZN3ns324TriangularRandomVariable9GetTypeIdEv
   fun:_ZN3ns342XTriangularRandomVariableRegistrationClassC1Ev
   fun:_Z41__static_initialization_and_destruction_0ii
   fun:_GLOBAL__I_random_variable_stream.cc
   obj:/home/tazaki/hgworks/ns-3-dce-thehajime/build/lib/libns3-dev-core-debug.so
   obj:/home/tazaki/hgworks/ns-3-dce-thehajime/build/lib/libns3-dev-core-debug.so
   fun:vdl_list_iterate
}
{
   <insert_a_suppression_name_here>
   Memcheck:Leak
   fun:_Znwm
   fun:_ZN3ns36CreateINS_11DoubleValueES1_EENS_3PtrIT_EET0_
   fun:_ZNK3ns311DoubleValue4CopyEv
   fun:_ZN3ns36TypeId12AddAttributeESsSsRKNS_14AttributeValueENS_3PtrIKNS_17AttributeAccessorEEENS4_IKNS_16AttributeCheckerEEE
   fun:_ZN3ns324TriangularRandomVariable9GetTypeIdEv
   fun:_ZN3ns342XTriangularRandomVariableRegistrationClassC1Ev
   fun:_Z41__static_initialization_and_destruction_0ii
   fun:_GLOBAL__I_random_variable_stream.cc
   obj:/home/tazaki/hgworks/ns-3-dce-thehajime/build/lib/libns3-dev-core-debug.so
   obj:/home/tazaki/hgworks/ns-3-dce-thehajime/build/lib/libns3-dev-core-debug.so
   fun:vdl_list_iterate
   fun:vdl_init_call
}
{
   <insert_a_suppression_name_here>
   Memcheck:Leak
   fun:_Znwm
   fun:_ZN3ns323DoMakeAccessorHelperOneINS_11DoubleValueENS_18ZipfRandomVariableEdEENS_3PtrIKNS_17AttributeAccessorEEEMT0_T1_
   fun:_ZN3ns318MakeAccessorHelperINS_11DoubleValueEMNS_18ZipfRandomVariableEdEENS_3PtrIKNS_17AttributeAccessorEEET0_
   fun:_ZN3ns318MakeDoubleAccessorIMNS_18ZipfRandomVariableEdEENS_3PtrIKNS_17AttributeAccessorEEET_
   fun:_ZN3ns318ZipfRandomVariable9GetTypeIdEv
   fun:_ZN3ns336XZipfRandomVariableRegistrationClassC1Ev
   fun:_Z41__static_initialization_and_destruction_0ii
   fun:_GLOBAL__I_random_variable_stream.cc
   obj:/home/tazaki/hgworks/ns-3-dce-thehajime/build/lib/libns3-dev-core-debug.so
   obj:/home/tazaki/hgworks/ns-3-dce-thehajime/build/lib/libns3-dev-core-debug.so
   fun:vdl_list_iterate
   fun:vdl_init_call
}
{
   <insert_a_suppression_name_here>
   Memcheck:Leak
   fun:_Znwm
   fun:_ZN3ns323DoMakeAccessorHelperOneINS_12IntegerValueENS_18ZipfRandomVariableEjEENS_3PtrIKNS_17AttributeAccessorEEEMT0_T1_
   fun:_ZN3ns318MakeAccessorHelperINS_12IntegerValueEMNS_18ZipfRandomVariableEjEENS_3PtrIKNS_17AttributeAccessorEEET0_
   fun:_ZN3ns319MakeIntegerAccessorIMNS_18ZipfRandomVariableEjEENS_3PtrIKNS_17AttributeAccessorEEET_
   fun:_ZN3ns318ZipfRandomVariable9GetTypeIdEv
   fun:_ZN3ns336XZipfRandomVariableRegistrationClassC1Ev
   fun:_Z41__static_initialization_and_destruction_0ii
   fun:_GLOBAL__I_random_variable_stream.cc
   obj:/home/tazaki/hgworks/ns-3-dce-thehajime/build/lib/libns3-dev-core-debug.so
   obj:/home/tazaki/hgworks/ns-3-dce-thehajime/build/lib/libns3-dev-core-debug.so
   fun:vdl_list_iterate
   fun:vdl_init_call
}
{
   <insert_a_suppression_name_here>
   Memcheck:Leak
   fun:_Znwm
   fun:_ZN3ns36CreateINS_19FunctorCallbackImplIPFPNS_10ObjectBaseEvES3_NS_5emptyES6_S6_S6_S6_S6_S6_S6_S6_EES5_EENS_3PtrIT_EET0_
   fun:_ZN3ns38CallbackIPNS_10ObjectBaseENS_5emptyES3_S3_S3_S3_S3_S3_S3_S3_EC1IPFS2_vEEERKT_bb
   fun:_ZN3ns312MakeCallbackIPNS_10ObjectBaseEEENS_8CallbackIT_NS_5emptyES5_S5_S5_S5_S5_S5_S5_S5_EEPFS4_vE
   fun:_ZN3ns36TypeId14AddConstructorINS_18ZipfRandomVariableEEES0_v
   fun:_ZN3ns318ZipfRandomVariable9GetTypeIdEv
   fun:_ZN3ns336XZipfRandomVariableRegistrationClassC1Ev
   fun:_Z41__static_initialization_and_destruction_0ii
   fun:_GLOBAL__I_random_variable_stream.cc
   obj:/home/tazaki/hgworks/ns-3-dce-thehajime/build/lib/libns3-dev-core-debug.so
   obj:/home/tazaki/hgworks/ns-3-dce-thehajime/build/lib/libns3-dev-core-debug.so
   fun:vdl_list_iterate
}
{
   <insert_a_suppression_name_here>
   Memcheck:Leak
   fun:_Znwm
   fun:_ZN3ns36CreateINS_12IntegerValueES1_EENS_3PtrIT_EET0_
   fun:_ZNK3ns312IntegerValue4CopyEv
   fun:_ZN3ns36TypeId12AddAttributeESsSsRKNS_14AttributeValueENS_3PtrIKNS_17AttributeAccessorEEENS4_IKNS_16AttributeCheckerEEE
   fun:_ZN3ns318ZipfRandomVariable9GetTypeIdEv
   fun:_ZN3ns336XZipfRandomVariableRegistrationClassC1Ev
   fun:_Z41__static_initialization_and_destruction_0ii
   fun:_GLOBAL__I_random_variable_stream.cc
   obj:/home/tazaki/hgworks/ns-3-dce-thehajime/build/lib/libns3-dev-core-debug.so
   obj:/home/tazaki/hgworks/ns-3-dce-thehajime/build/lib/libns3-dev-core-debug.so
   fun:vdl_list_iterate
   fun:vdl_init_call
}
{
   <insert_a_suppression_name_here>
   Memcheck:Leak
   fun:_Znwm
   fun:_ZN3ns36CreateINS_11DoubleValueES1_EENS_3PtrIT_EET0_
   fun:_ZNK3ns311DoubleValue4CopyEv
   fun:_ZN3ns36TypeId12AddAttributeESsSsRKNS_14AttributeValueENS_3PtrIKNS_17AttributeAccessorEEENS4_IKNS_16AttributeCheckerEEE
   fun:_ZN3ns318ZipfRandomVariable9GetTypeIdEv
   fun:_ZN3ns336XZipfRandomVariableRegistrationClassC1Ev
   fun:_Z41__static_initialization_and_destruction_0ii
   fun:_GLOBAL__I_random_variable_stream.cc
   obj:/home/tazaki/hgworks/ns-3-dce-thehajime/build/lib/libns3-dev-core-debug.so
   obj:/home/tazaki/hgworks/ns-3-dce-thehajime/build/lib/libns3-dev-core-debug.so
   fun:vdl_list_iterate
   fun:vdl_init_call
}
{
   <insert_a_suppression_name_here>
   Memcheck:Leak
   fun:_Znwm
   fun:_ZN3ns323DoMakeAccessorHelperOneINS_11DoubleValueENS_18ZetaRandomVariableEdEENS_3PtrIKNS_17AttributeAccessorEEEMT0_T1_
   fun:_ZN3ns318MakeAccessorHelperINS_11DoubleValueEMNS_18ZetaRandomVariableEdEENS_3PtrIKNS_17AttributeAccessorEEET0_
   fun:_ZN3ns318MakeDoubleAccessorIMNS_18ZetaRandomVariableEdEENS_3PtrIKNS_17AttributeAccessorEEET_
   fun:_ZN3ns318ZetaRandomVariable9GetTypeIdEv
   fun:_ZN3ns336XZetaRandomVariableRegistrationClassC1Ev
   fun:_Z41__static_initialization_and_destruction_0ii
   fun:_GLOBAL__I_random_variable_stream.cc
   obj:/home/tazaki/hgworks/ns-3-dce-thehajime/build/lib/libns3-dev-core-debug.so
   obj:/home/tazaki/hgworks/ns-3-dce-thehajime/build/lib/libns3-dev-core-debug.so
   fun:vdl_list_iterate
   fun:vdl_init_call
}
{
   <insert_a_suppression_name_here>
   Memcheck:Leak
   fun:_Znwm
   fun:_ZN3ns36CreateINS_19FunctorCallbackImplIPFPNS_10ObjectBaseEvES3_NS_5emptyES6_S6_S6_S6_S6_S6_S6_S6_EES5_EENS_3PtrIT_EET0_
   fun:_ZN3ns38CallbackIPNS_10ObjectBaseENS_5emptyES3_S3_S3_S3_S3_S3_S3_S3_EC1IPFS2_vEEERKT_bb
   fun:_ZN3ns312MakeCallbackIPNS_10ObjectBaseEEENS_8CallbackIT_NS_5emptyES5_S5_S5_S5_S5_S5_S5_S5_EEPFS4_vE
   fun:_ZN3ns36TypeId14AddConstructorINS_18ZetaRandomVariableEEES0_v
   fun:_ZN3ns318ZetaRandomVariable9GetTypeIdEv
   fun:_ZN3ns336XZetaRandomVariableRegistrationClassC1Ev
   fun:_Z41__static_initialization_and_destruction_0ii
   fun:_GLOBAL__I_random_variable_stream.cc
   obj:/home/tazaki/hgworks/ns-3-dce-thehajime/build/lib/libns3-dev-core-debug.so
   obj:/home/tazaki/hgworks/ns-3-dce-thehajime/build/lib/libns3-dev-core-debug.so
   fun:vdl_list_iterate
}
{
   <insert_a_suppression_name_here>
   Memcheck:Leak
   fun:_Znwm
   fun:_ZN3ns36CreateINS_11DoubleValueES1_EENS_3PtrIT_EET0_
   fun:_ZNK3ns311DoubleValue4CopyEv
   fun:_ZN3ns36TypeId12AddAttributeESsSsRKNS_14AttributeValueENS_3PtrIKNS_17AttributeAccessorEEENS4_IKNS_16AttributeCheckerEEE
   fun:_ZN3ns318ZetaRandomVariable9GetTypeIdEv
   fun:_ZN3ns336XZetaRandomVariableRegistrationClassC1Ev
   fun:_Z41__static_initialization_and_destruction_0ii
   fun:_GLOBAL__I_random_variable_stream.cc
   obj:/home/tazaki/hgworks/ns-3-dce-thehajime/build/lib/libns3-dev-core-debug.so
   obj:/home/tazaki/hgworks/ns-3-dce-thehajime/build/lib/libns3-dev-core-debug.so
   fun:vdl_list_iterate
   fun:vdl_init_call
}
{
   <insert_a_suppression_name_here>
   Memcheck:Leak
   fun:_Znwm
   fun:_ZN3ns36CreateINS_19FunctorCallbackImplIPFPNS_10ObjectBaseEvES3_NS_5emptyES6_S6_S6_S6_S6_S6_S6_S6_EES5_EENS_3PtrIT_EET0_
   fun:_ZN3ns38CallbackIPNS_10ObjectBaseENS_5emptyES3_S3_S3_S3_S3_S3_S3_S3_EC1IPFS2_vEEERKT_bb
   fun:_ZN3ns312MakeCallbackIPNS_10ObjectBaseEEENS_8CallbackIT_NS_5emptyES5_S5_S5_S5_S5_S5_S5_S5_EEPFS4_vE
   fun:_ZN3ns36TypeId14AddConstructorINS_27DeterministicRandomVariableEEES0_v
   fun:_ZN3ns327DeterministicRandomVariable9GetTypeIdEv
   fun:_ZN3ns345XDeterministicRandomVariableRegistrationClassC1Ev
   fun:_Z41__static_initialization_and_destruction_0ii
   fun:_GLOBAL__I_random_variable_stream.cc
   obj:/home/tazaki/hgworks/ns-3-dce-thehajime/build/lib/libns3-dev-core-debug.so
   obj:/home/tazaki/hgworks/ns-3-dce-thehajime/build/lib/libns3-dev-core-debug.so
   fun:vdl_list_iterate
}
{
   <insert_a_suppression_name_here>
   Memcheck:Leak
   fun:_Znwm
   fun:_ZN3ns36CreateINS_19FunctorCallbackImplIPFPNS_10ObjectBaseEvES3_NS_5emptyES6_S6_S6_S6_S6_S6_S6_S6_EES5_EENS_3PtrIT_EET0_
   fun:_ZN3ns38CallbackIPNS_10ObjectBaseENS_5emptyES3_S3_S3_S3_S3_S3_S3_S3_EC1IPFS2_vEEERKT_bb
   fun:_ZN3ns312MakeCallbackIPNS_10ObjectBaseEEENS_8CallbackIT_NS_5emptyES5_S5_S5_S5_S5_S5_S5_S5_EEPFS4_vE
   fun:_ZN3ns36TypeId14AddConstructorINS_23EmpiricalRandomVariableEEES0_v
   fun:_ZN3ns323EmpiricalRandomVariable9GetTypeIdEv
   fun:_ZN3ns341XEmpiricalRandomVariableRegistrationClassC1Ev
   fun:_Z41__static_initialization_and_destruction_0ii
   fun:_GLOBAL__I_random_variable_stream.cc
   obj:/home/tazaki/hgworks/ns-3-dce-thehajime/build/lib/libns3-dev-core-debug.so
   obj:/home/tazaki/hgworks/ns-3-dce-thehajime/build/lib/libns3-dev-core-debug.so
   fun:vdl_list_iterate
}
{
   <insert_a_suppression_name_here>
   Memcheck:Leak
   fun:_Znwm
   fun:_ZN3ns36CreateINS_19FunctorCallbackImplIPFPNS_10ObjectBaseEvES3_NS_5emptyES6_S6_S6_S6_S6_S6_S6_S6_EES5_EENS_3PtrIT_EET0_
   fun:_ZN3ns38CallbackIPNS_10ObjectBaseENS_5emptyES3_S3_S3_S3_S3_S3_S3_S3_EC1IPFS2_vEEERKT_bb
   fun:_ZN3ns312MakeCallbackIPNS_10ObjectBaseEEENS_8CallbackIT_NS_5emptyES5_S5_S5_S5_S5_S5_S5_S5_EEPFS4_vE
   fun:_ZN3ns36TypeId14AddConstructorINS_20DefaultSimulatorImplEEES0_v
   fun:_ZN3ns320DefaultSimulatorImpl9GetTypeIdEv
   fun:_ZN3ns338XDefaultSimulatorImplRegistrationClassC1Ev
   fun:_Z41__static_initialization_and_destruction_0ii
   fun:_GLOBAL__I_default_simulator_impl.cc
   obj:/home/tazaki/hgworks/ns-3-dce-thehajime/build/lib/libns3-dev-core-debug.so
   obj:/home/tazaki/hgworks/ns-3-dce-thehajime/build/lib/libns3-dev-core-debug.so
   fun:vdl_list_iterate
}
{
   <insert_a_suppression_name_here>
   Memcheck:Leak
   fun:_Znwm
   fun:_ZN3ns36CreateINS_11StringValueES1_EENS_3PtrIT_EET0_
   fun:_ZNK3ns311StringValue4CopyEv
   fun:_ZNK3ns316AttributeChecker16CreateValidValueERKNS_14AttributeValueE
   fun:_ZN3ns311GlobalValueC1ESsSsRKNS_14AttributeValueENS_3PtrIKNS_16AttributeCheckerEEE
   fun:_Z41__static_initialization_and_destruction_0ii
   fun:_GLOBAL__I_simulator.cc
   obj:/home/tazaki/hgworks/ns-3-dce-thehajime/build/lib/libns3-dev-core-debug.so
   obj:/home/tazaki/hgworks/ns-3-dce-thehajime/build/lib/libns3-dev-core-debug.so
   fun:vdl_list_iterate
   fun:vdl_init_call
   fun:dlopen_with_context
}
{
   <insert_a_suppression_name_here>
   Memcheck:Leak
   fun:_Znwm
   fun:_ZN3ns36CreateINS_19FunctorCallbackImplIPFPNS_10ObjectBaseEvES3_NS_5emptyES6_S6_S6_S6_S6_S6_S6_S6_EES5_EENS_3PtrIT_EET0_
   fun:_ZN3ns38CallbackIPNS_10ObjectBaseENS_5emptyES3_S3_S3_S3_S3_S3_S3_S3_EC1IPFS2_vEEERKT_bb
   fun:_ZN3ns312MakeCallbackIPNS_10ObjectBaseEEENS_8CallbackIT_NS_5emptyES5_S5_S5_S5_S5_S5_S5_S5_EEPFS4_vE
   fun:_ZN3ns36TypeId14AddConstructorINS_12MapSchedulerEEES0_v
   fun:_ZN3ns312MapScheduler9GetTypeIdEv
   fun:_Z41__static_initialization_and_destruction_0ii
   fun:_GLOBAL__I_simulator.cc
   obj:/home/tazaki/hgworks/ns-3-dce-thehajime/build/lib/libns3-dev-core-debug.so
   obj:/home/tazaki/hgworks/ns-3-dce-thehajime/build/lib/libns3-dev-core-debug.so
   fun:vdl_list_iterate
   fun:vdl_init_call
}
{
   <insert_a_suppression_name_here>
   Memcheck:Leak
   fun:_Znwm
   fun:_ZN3ns36CreateINS_19FunctorCallbackImplIPFPNS_10ObjectBaseEvES3_NS_5emptyES6_S6_S6_S6_S6_S6_S6_S6_EES5_EENS_3PtrIT_EET0_
   fun:_ZN3ns38CallbackIPNS_10ObjectBaseENS_5emptyES3_S3_S3_S3_S3_S3_S3_S3_EC1IPFS2_vEEERKT_bb
   fun:_ZN3ns312MakeCallbackIPNS_10ObjectBaseEEENS_8CallbackIT_NS_5emptyES5_S5_S5_S5_S5_S5_S5_S5_EEPFS4_vE
   fun:_ZN3ns36TypeId14AddConstructorINS_17CalendarSchedulerEEES0_v
   fun:_ZN3ns317CalendarScheduler9GetTypeIdEv
   fun:_ZN3ns335XCalendarSchedulerRegistrationClassC1Ev
   fun:_Z41__static_initialization_and_destruction_0ii
   fun:_GLOBAL__I_calendar_scheduler.cc
   obj:/home/tazaki/hgworks/ns-3-dce-thehajime/build/lib/libns3-dev-core-debug.so
   obj:/home/tazaki/hgworks/ns-3-dce-thehajime/build/lib/libns3-dev-core-debug.so
   fun:vdl_list_iterate
}
{
   <insert_a_suppression_name_here>
   Memcheck:Leak
   fun:_Znwm
   fun:_ZN3ns36CreateINS_19FunctorCallbackImplIPFPNS_10ObjectBaseEvES3_NS_5emptyES6_S6_S6_S6_S6_S6_S6_S6_EES5_EENS_3PtrIT_EET0_
   fun:_ZN3ns38CallbackIPNS_10ObjectBaseENS_5emptyES3_S3_S3_S3_S3_S3_S3_S3_EC1IPFS2_vEEERKT_bb
   fun:_ZN3ns312MakeCallbackIPNS_10ObjectBaseEEENS_8CallbackIT_NS_5emptyES5_S5_S5_S5_S5_S5_S5_S5_EEPFS4_vE
   fun:_ZN3ns36TypeId14AddConstructorINS_13HeapSchedulerEEES0_v
   fun:_ZN3ns313HeapScheduler9GetTypeIdEv
   fun:_ZN3ns331XHeapSchedulerRegistrationClassC1Ev
   fun:_Z41__static_initialization_and_destruction_0ii
   fun:_GLOBAL__I_heap_scheduler.cc
   obj:/home/tazaki/hgworks/ns-3-dce-thehajime/build/lib/libns3-dev-core-debug.so
   obj:/home/tazaki/hgworks/ns-3-dce-thehajime/build/lib/libns3-dev-core-debug.so
   fun:vdl_list_iterate
}
{
   <insert_a_suppression_name_here>
   Memcheck:Leak
   fun:_Znwm
   fun:_ZN3ns36CreateINS_19FunctorCallbackImplIPFPNS_10ObjectBaseEvES3_NS_5emptyES6_S6_S6_S6_S6_S6_S6_S6_EES5_EENS_3PtrIT_EET0_
   fun:_ZN3ns38CallbackIPNS_10ObjectBaseENS_5emptyES3_S3_S3_S3_S3_S3_S3_S3_EC1IPFS2_vEEERKT_bb
   fun:_ZN3ns312MakeCallbackIPNS_10ObjectBaseEEENS_8CallbackIT_NS_5emptyES5_S5_S5_S5_S5_S5_S5_S5_EEPFS4_vE
   fun:_ZN3ns36TypeId14AddConstructorINS_13ListSchedulerEEES0_v
   fun:_ZN3ns313ListScheduler9GetTypeIdEv
   fun:_ZN3ns331XListSchedulerRegistrationClassC1Ev
   fun:_Z41__static_initialization_and_destruction_0ii
   fun:_GLOBAL__I_list_scheduler.cc
   obj:/home/tazaki/hgworks/ns-3-dce-thehajime/build/lib/libns3-dev-core-debug.so
   obj:/home/tazaki/hgworks/ns-3-dce-thehajime/build/lib/libns3-dev-core-debug.so
   fun:vdl_list_iterate
}
{
   <insert_a_suppression_name_here>
   Memcheck:Leak
   fun:_Znwm
   fun:_ZN3ns36CreateINS_19FunctorCallbackImplIPFPNS_10ObjectBaseEvES3_NS_5emptyES6_S6_S6_S6_S6_S6_S6_S6_EES5_EENS_3PtrIT_EET0_
   fun:_ZN3ns38CallbackIPNS_10ObjectBaseENS_5emptyES3_S3_S3_S3_S3_S3_S3_S3_EC1IPFS2_vEEERKT_bb
   fun:_ZN3ns312MakeCallbackIPNS_10ObjectBaseEEENS_8CallbackIT_NS_5emptyES5_S5_S5_S5_S5_S5_S5_S5_EEPFS4_vE
   fun:_ZN3ns36TypeId14AddConstructorINS_14GeneralMessageEEES0_v
   fun:_ZN3ns314GeneralMessage9GetTypeIdEv
   fun:_ZN3ns332XGeneralMessageRegistrationClassC1Ev
   fun:_Z41__static_initialization_and_destruction_0ii
   fun:_GLOBAL__I_netlink_message_route.cc
   obj:/home/tazaki/hgworks/ns-3-dce-thehajime/build/lib/libns3-netlink.so
   obj:/home/tazaki/hgworks/ns-3-dce-thehajime/build/lib/libns3-netlink.so
   fun:vdl_list_iterate
}
{
   <insert_a_suppression_name_here>
   Memcheck:Leak
   fun:_Znwm
   fun:_ZN3ns36CreateINS_19FunctorCallbackImplIPFPNS_10ObjectBaseEvES3_NS_5emptyES6_S6_S6_S6_S6_S6_S6_S6_EES5_EENS_3PtrIT_EET0_
   fun:_ZN3ns38CallbackIPNS_10ObjectBaseENS_5emptyES3_S3_S3_S3_S3_S3_S3_S3_EC1IPFS2_vEEERKT_bb
   fun:_ZN3ns312MakeCallbackIPNS_10ObjectBaseEEENS_8CallbackIT_NS_5emptyES5_S5_S5_S5_S5_S5_S5_S5_EEPFS4_vE
   fun:_ZN3ns36TypeId14AddConstructorINS_20InterfaceInfoMessageEEES0_v
   fun:_ZN3ns320InterfaceInfoMessage9GetTypeIdEv
   fun:_ZN3ns338XInterfaceInfoMessageRegistrationClassC1Ev
   fun:_Z41__static_initialization_and_destruction_0ii
   fun:_GLOBAL__I_netlink_message_route.cc
   obj:/home/tazaki/hgworks/ns-3-dce-thehajime/build/lib/libns3-netlink.so
   obj:/home/tazaki/hgworks/ns-3-dce-thehajime/build/lib/libns3-netlink.so
   fun:vdl_list_iterate
}
{
   <insert_a_suppression_name_here>
   Memcheck:Leak
   fun:_Znwm
   fun:_ZN3ns36CreateINS_19FunctorCallbackImplIPFPNS_10ObjectBaseEvES3_NS_5emptyES6_S6_S6_S6_S6_S6_S6_S6_EES5_EENS_3PtrIT_EET0_
   fun:_ZN3ns38CallbackIPNS_10ObjectBaseENS_5emptyES3_S3_S3_S3_S3_S3_S3_S3_EC1IPFS2_vEEERKT_bb
   fun:_ZN3ns312MakeCallbackIPNS_10ObjectBaseEEENS_8CallbackIT_NS_5emptyES5_S5_S5_S5_S5_S5_S5_S5_EEPFS4_vE
   fun:_ZN3ns36TypeId14AddConstructorINS_23InterfaceAddressMessageEEES0_v
   fun:_ZN3ns323InterfaceAddressMessage9GetTypeIdEv
   fun:_ZN3ns341XInterfaceAddressMessageRegistrationClassC1Ev
   fun:_Z41__static_initialization_and_destruction_0ii
   fun:_GLOBAL__I_netlink_message_route.cc
   obj:/home/tazaki/hgworks/ns-3-dce-thehajime/build/lib/libns3-netlink.so
   obj:/home/tazaki/hgworks/ns-3-dce-thehajime/build/lib/libns3-netlink.so
   fun:vdl_list_iterate
}
{
   <insert_a_suppression_name_here>
   Memcheck:Leak
   fun:_Znwm
   fun:_ZN3ns36CreateINS_19FunctorCallbackImplIPFPNS_10ObjectBaseEvES3_NS_5emptyES6_S6_S6_S6_S6_S6_S6_S6_EES5_EENS_3PtrIT_EET0_
   fun:_ZN3ns38CallbackIPNS_10ObjectBaseENS_5emptyES3_S3_S3_S3_S3_S3_S3_S3_EC1IPFS2_vEEERKT_bb
   fun:_ZN3ns312MakeCallbackIPNS_10ObjectBaseEEENS_8CallbackIT_NS_5emptyES5_S5_S5_S5_S5_S5_S5_S5_EEPFS4_vE
   fun:_ZN3ns36TypeId14AddConstructorINS_12RouteMessageEEES0_v
   fun:_ZN3ns312RouteMessage9GetTypeIdEv
   fun:_ZN3ns330XRouteMessageRegistrationClassC1Ev
   fun:_Z41__static_initialization_and_destruction_0ii
   fun:_GLOBAL__I_netlink_message_route.cc
   obj:/home/tazaki/hgworks/ns-3-dce-thehajime/build/lib/libns3-netlink.so
   obj:/home/tazaki/hgworks/ns-3-dce-thehajime/build/lib/libns3-netlink.so
   fun:vdl_list_iterate
}
{
   <insert_a_suppression_name_here>
   Memcheck:Leak
   fun:_Znwm
   fun:_ZN3ns36CreateINS_19FunctorCallbackImplIPFPNS_10ObjectBaseEvES3_NS_5emptyES6_S6_S6_S6_S6_S6_S6_S6_EES5_EENS_3PtrIT_EET0_
   fun:_ZN3ns38CallbackIPNS_10ObjectBaseENS_5emptyES3_S3_S3_S3_S3_S3_S3_S3_EC1IPFS2_vEEERKT_bb
   fun:_ZN3ns312MakeCallbackIPNS_10ObjectBaseEEENS_8CallbackIT_NS_5emptyES5_S5_S5_S5_S5_S5_S5_S5_EEPFS4_vE
   fun:_ZN3ns36TypeId14AddConstructorINS_20NetlinkMessageHeaderEEES0_v
   fun:_ZN3ns320NetlinkMessageHeader9GetTypeIdEv
   fun:_ZN3ns338XNetlinkMessageHeaderRegistrationClassC1Ev
   fun:_Z41__static_initialization_and_destruction_0ii
   fun:_GLOBAL__I_netlink_message.cc
   obj:/home/tazaki/hgworks/ns-3-dce-thehajime/build/lib/libns3-netlink.so
   obj:/home/tazaki/hgworks/ns-3-dce-thehajime/build/lib/libns3-netlink.so
   fun:vdl_list_iterate
}
{
   <insert_a_suppression_name_here>
   Memcheck:Leak
   fun:_Znwm
   fun:_ZN3ns36CreateINS_19FunctorCallbackImplIPFPNS_10ObjectBaseEvES3_NS_5emptyES6_S6_S6_S6_S6_S6_S6_S6_EES5_EENS_3PtrIT_EET0_
   fun:_ZN3ns38CallbackIPNS_10ObjectBaseENS_5emptyES3_S3_S3_S3_S3_S3_S3_S3_EC1IPFS2_vEEERKT_bb
   fun:_ZN3ns312MakeCallbackIPNS_10ObjectBaseEEENS_8CallbackIT_NS_5emptyES5_S5_S5_S5_S5_S5_S5_S5_EEPFS4_vE
   fun:_ZN3ns36TypeId14AddConstructorINS_14NetlinkMessageEEES0_v
   fun:_ZN3ns314NetlinkMessage9GetTypeIdEv
   fun:_ZN3ns332XNetlinkMessageRegistrationClassC1Ev
   fun:_Z41__static_initialization_and_destruction_0ii
   fun:_GLOBAL__I_netlink_message.cc
   obj:/home/tazaki/hgworks/ns-3-dce-thehajime/build/lib/libns3-netlink.so
   obj:/home/tazaki/hgworks/ns-3-dce-thehajime/build/lib/libns3-netlink.so
   fun:vdl_list_iterate
}
{
   <insert_a_suppression_name_here>
   Memcheck:Leak
   fun:_Znwm
   fun:_ZN3ns36CreateINS_19FunctorCallbackImplIPFPNS_10ObjectBaseEvES3_NS_5emptyES6_S6_S6_S6_S6_S6_S6_S6_EES5_EENS_3PtrIT_EET0_
   fun:_ZN3ns38CallbackIPNS_10ObjectBaseENS_5emptyES3_S3_S3_S3_S3_S3_S3_S3_EC1IPFS2_vEEERKT_bb
   fun:_ZN3ns312MakeCallbackIPNS_10ObjectBaseEEENS_8CallbackIT_NS_5emptyES5_S5_S5_S5_S5_S5_S5_S5_EEPFS4_vE
   fun:_ZN3ns36TypeId14AddConstructorINS_20NetlinkSocketFactoryEEES0_v
   fun:_ZN3ns320NetlinkSocketFactory9GetTypeIdEv
   fun:_ZN3ns338XNetlinkSocketFactoryRegistrationClassC1Ev
   fun:_Z41__static_initialization_and_destruction_0ii
   fun:_GLOBAL__I_netlink_socket_factory.cc
   obj:/home/tazaki/hgworks/ns-3-dce-thehajime/build/lib/libns3-netlink.so
   obj:/home/tazaki/hgworks/ns-3-dce-thehajime/build/lib/libns3-netlink.so
   fun:vdl_list_iterate
}
{
   <insert_a_suppression_name_here>
   Memcheck:Leak
   fun:_Znwm
   fun:_ZN3ns323DoMakeAccessorHelperOneINS_13CallbackValueENS_13NetlinkSocketENS_8CallbackIvNS_11Ipv4AddressEhhhjNS_5emptyES5_S5_S5_EEEENS_3PtrIKNS_17AttributeAccessorEEEMT0_T1_
   fun:_ZN3ns318MakeAccessorHelperINS_13CallbackValueEMNS_13NetlinkSocketENS_8CallbackIvNS_11Ipv4AddressEhhhjNS_5emptyES5_S5_S5_EEEENS_3PtrIKNS_17AttributeAccessorEEET0_
   fun:_ZN3ns320MakeCallbackAccessorIMNS_13NetlinkSocketENS_8CallbackIvNS_11Ipv4AddressEhhhjNS_5emptyES4_S4_S4_EEEENS_3PtrIKNS_17AttributeAccessorEEET_
   fun:_ZN3ns313NetlinkSocket9GetTypeIdEv
   fun:_ZN3ns331XNetlinkSocketRegistrationClassC1Ev
   fun:_Z41__static_initialization_and_destruction_0ii
   fun:_GLOBAL__I_netlink_socket.cc
   obj:/home/tazaki/hgworks/ns-3-dce-thehajime/build/lib/libns3-netlink.so
   obj:/home/tazaki/hgworks/ns-3-dce-thehajime/build/lib/libns3-netlink.so
   fun:vdl_list_iterate
   fun:vdl_init_call
}
{
   <insert_a_suppression_name_here>
   Memcheck:Leak
   fun:_Znwm
   fun:_ZN3ns323DoMakeAccessorHelperOneINS_13UintegerValueENS_13NetlinkSocketEjEENS_3PtrIKNS_17AttributeAccessorEEEMT0_T1_
   fun:_ZN3ns318MakeAccessorHelperINS_13UintegerValueEMNS_13NetlinkSocketEjEENS_3PtrIKNS_17AttributeAccessorEEET0_
   fun:_ZN3ns320MakeUintegerAccessorIMNS_13NetlinkSocketEjEENS_3PtrIKNS_17AttributeAccessorEEET_
   fun:_ZN3ns313NetlinkSocket9GetTypeIdEv
   fun:_ZN3ns331XNetlinkSocketRegistrationClassC1Ev
   fun:_Z41__static_initialization_and_destruction_0ii
   fun:_GLOBAL__I_netlink_socket.cc
   obj:/home/tazaki/hgworks/ns-3-dce-thehajime/build/lib/libns3-netlink.so
   obj:/home/tazaki/hgworks/ns-3-dce-thehajime/build/lib/libns3-netlink.so
   fun:vdl_list_iterate
   fun:vdl_init_call
}
{
   <insert_a_suppression_name_here>
   Memcheck:Leak
   fun:_Znwm
   fun:_ZN3ns325DoMakeTraceSourceAccessorINS_13NetlinkSocketENS_14TracedCallbackINS_3PtrIKNS_6PacketEEENS_5emptyES7_S7_S7_S7_S7_S7_EEEENS3_IKNS_19TraceSourceAccessorEEEMT_T0_
   fun:_ZN3ns323MakeTraceSourceAccessorIMNS_13NetlinkSocketENS_14TracedCallbackINS_3PtrIKNS_6PacketEEENS_5emptyES7_S7_S7_S7_S7_S7_EEEENS3_IKNS_19TraceSourceAccessorEEET_
   fun:_ZN3ns313NetlinkSocket9GetTypeIdEv
   fun:_ZN3ns331XNetlinkSocketRegistrationClassC1Ev
   fun:_Z41__static_initialization_and_destruction_0ii
   fun:_GLOBAL__I_netlink_socket.cc
   obj:/home/tazaki/hgworks/ns-3-dce-thehajime/build/lib/libns3-netlink.so
   obj:/home/tazaki/hgworks/ns-3-dce-thehajime/build/lib/libns3-netlink.so
   fun:vdl_list_iterate
   fun:vdl_init_call
   fun:dlopen_with_context
}
{
   <insert_a_suppression_name_here>
   Memcheck:Leak
   fun:_Znwm
   fun:_ZN3ns36CreateINS_19FunctorCallbackImplIPFPNS_10ObjectBaseEvES3_NS_5emptyES6_S6_S6_S6_S6_S6_S6_S6_EES5_EENS_3PtrIT_EET0_
   fun:_ZN3ns38CallbackIPNS_10ObjectBaseENS_5emptyES3_S3_S3_S3_S3_S3_S3_S3_EC1IPFS2_vEEERKT_bb
   fun:_ZN3ns312MakeCallbackIPNS_10ObjectBaseEEENS_8CallbackIT_NS_5emptyES5_S5_S5_S5_S5_S5_S5_S5_EEPFS4_vE
   fun:_ZN3ns36TypeId14AddConstructorINS_13NetlinkSocketEEES0_v
   fun:_ZN3ns313NetlinkSocket9GetTypeIdEv
   fun:_ZN3ns331XNetlinkSocketRegistrationClassC1Ev
   fun:_Z41__static_initialization_and_destruction_0ii
   fun:_GLOBAL__I_netlink_socket.cc
   obj:/home/tazaki/hgworks/ns-3-dce-thehajime/build/lib/libns3-netlink.so
   obj:/home/tazaki/hgworks/ns-3-dce-thehajime/build/lib/libns3-netlink.so
   fun:vdl_list_iterate
}
{
   <insert_a_suppression_name_here>
   Memcheck:Leak
   fun:_Znwm
   fun:_ZN9__gnu_cxx13new_allocatorIN3ns36TypeId22TraceSourceInformationEE8allocateEmPKv
   fun:_ZNSt12_Vector_baseIN3ns36TypeId22TraceSourceInformationESaIS2_EE11_M_allocateEm
   fun:_ZNSt6vectorIN3ns36TypeId22TraceSourceInformationESaIS2_EE13_M_insert_auxEN9__gnu_cxx17__normal_iteratorIPS2_S4_EERKS2_
   fun:_ZNSt6vectorIN3ns36TypeId22TraceSourceInformationESaIS2_EE9push_backERKS2_
   fun:_ZN12_GLOBAL__N_110IidManager14AddTraceSourceEtSsSsN3ns33PtrIKNS1_19TraceSourceAccessorEEE
   fun:_ZN3ns36TypeId14AddTraceSourceESsSsNS_3PtrIKNS_19TraceSourceAccessorEEE
   fun:_ZN3ns313NetlinkSocket9GetTypeIdEv
   fun:_ZN3ns331XNetlinkSocketRegistrationClassC1Ev
   fun:_Z41__static_initialization_and_destruction_0ii
   fun:_GLOBAL__I_netlink_socket.cc
   obj:/home/tazaki/hgworks/ns-3-dce-thehajime/build/lib/libns3-netlink.so
}
{
   <insert_a_suppression_name_here>
   Memcheck:Leak
   fun:_Znwm
   fun:_ZN3ns36CreateINS_13UintegerValueES1_EENS_3PtrIT_EET0_
   fun:_ZNK3ns313UintegerValue4CopyEv
   fun:_ZN3ns36TypeId12AddAttributeESsSsRKNS_14AttributeValueENS_3PtrIKNS_17AttributeAccessorEEENS4_IKNS_16AttributeCheckerEEE
   fun:_ZN3ns313NetlinkSocket9GetTypeIdEv
   fun:_ZN3ns331XNetlinkSocketRegistrationClassC1Ev
   fun:_Z41__static_initialization_and_destruction_0ii
   fun:_GLOBAL__I_netlink_socket.cc
   obj:/home/tazaki/hgworks/ns-3-dce-thehajime/build/lib/libns3-netlink.so
   obj:/home/tazaki/hgworks/ns-3-dce-thehajime/build/lib/libns3-netlink.so
   fun:vdl_list_iterate
   fun:vdl_init_call
}
{
   <insert_a_suppression_name_here>
   Memcheck:Leak
   fun:_Znwm
   fun:_ZN3ns36CreateINS_13CallbackValueENS_12CallbackBaseEEENS_3PtrIT_EET0_
   fun:_ZNK3ns313CallbackValue4CopyEv
   fun:_ZN3ns36TypeId12AddAttributeESsSsRKNS_14AttributeValueENS_3PtrIKNS_17AttributeAccessorEEENS4_IKNS_16AttributeCheckerEEE
   fun:_ZN3ns313NetlinkSocket9GetTypeIdEv
   fun:_ZN3ns331XNetlinkSocketRegistrationClassC1Ev
   fun:_Z41__static_initialization_and_destruction_0ii
   fun:_GLOBAL__I_netlink_socket.cc
   obj:/home/tazaki/hgworks/ns-3-dce-thehajime/build/lib/libns3-netlink.so
   obj:/home/tazaki/hgworks/ns-3-dce-thehajime/build/lib/libns3-netlink.so
   fun:vdl_list_iterate
   fun:vdl_init_call
}
{
   <insert_a_suppression_name_here>
   Memcheck:Leak
   fun:_Znwm
   fun:_ZN3ns323DoMakeAccessorHelperOneINS_19RandomVariableValueENS_20LinuxSocketFdFactoryENS_14RandomVariableEEENS_3PtrIKNS_17AttributeAccessorEEEMT0_T1_
   fun:_ZN3ns318MakeAccessorHelperINS_19RandomVariableValueEMNS_20LinuxSocketFdFactoryENS_14RandomVariableEEENS_3PtrIKNS_17AttributeAccessorEEET0_
   fun:_ZN3ns326MakeRandomVariableAccessorIMNS_20LinuxSocketFdFactoryENS_14RandomVariableEEENS_3PtrIKNS_17AttributeAccessorEEET_
   fun:_ZN3ns320LinuxSocketFdFactory9GetTypeIdEv
   fun:_ZN3ns338XLinuxSocketFdFactoryRegistrationClassC1Ev
   fun:_Z41__static_initialization_and_destruction_0ii
   fun:_GLOBAL__I_linux_socket_fd_factory.cc
   obj:/home/tazaki/hgworks/ns-3-dce-thehajime/build/lib/libns3-dce.so
   obj:/home/tazaki/hgworks/ns-3-dce-thehajime/build/lib/libns3-dce.so
   fun:vdl_list_iterate
   fun:vdl_init_call
}
{
   <insert_a_suppression_name_here>
   Memcheck:Leak
   fun:_Znwm
   fun:_ZN3ns323DoMakeAccessorHelperOneINS_11DoubleValueENS_20LinuxSocketFdFactoryEdEENS_3PtrIKNS_17AttributeAccessorEEEMT0_T1_
   fun:_ZN3ns318MakeAccessorHelperINS_11DoubleValueEMNS_20LinuxSocketFdFactoryEdEENS_3PtrIKNS_17AttributeAccessorEEET0_
   fun:_ZN3ns318MakeDoubleAccessorIMNS_20LinuxSocketFdFactoryEdEENS_3PtrIKNS_17AttributeAccessorEEET_
   fun:_ZN3ns320LinuxSocketFdFactory9GetTypeIdEv
   fun:_ZN3ns338XLinuxSocketFdFactoryRegistrationClassC1Ev
   fun:_Z41__static_initialization_and_destruction_0ii
   fun:_GLOBAL__I_linux_socket_fd_factory.cc
   obj:/home/tazaki/hgworks/ns-3-dce-thehajime/build/lib/libns3-dce.so
   obj:/home/tazaki/hgworks/ns-3-dce-thehajime/build/lib/libns3-dce.so
   fun:vdl_list_iterate
   fun:vdl_init_call
}
{
   <insert_a_suppression_name_here>
   Memcheck:Leak
   fun:_Znwm
   fun:_ZN3ns323DoMakeAccessorHelperOneINS_11StringValueENS_20LinuxSocketFdFactoryESsEENS_3PtrIKNS_17AttributeAccessorEEEMT0_T1_
   fun:_ZN3ns318MakeAccessorHelperINS_11StringValueEMNS_20LinuxSocketFdFactoryESsEENS_3PtrIKNS_17AttributeAccessorEEET0_
   fun:_ZN3ns318MakeStringAccessorIMNS_20LinuxSocketFdFactoryESsEENS_3PtrIKNS_17AttributeAccessorEEET_
   fun:_ZN3ns320LinuxSocketFdFactory9GetTypeIdEv
   fun:_ZN3ns338XLinuxSocketFdFactoryRegistrationClassC1Ev
   fun:_Z41__static_initialization_and_destruction_0ii
   fun:_GLOBAL__I_linux_socket_fd_factory.cc
   obj:/home/tazaki/hgworks/ns-3-dce-thehajime/build/lib/libns3-dce.so
   obj:/home/tazaki/hgworks/ns-3-dce-thehajime/build/lib/libns3-dce.so
   fun:vdl_list_iterate
   fun:vdl_init_call
}
{
   <insert_a_suppression_name_here>
   Memcheck:Leak
   fun:_Znwm
   fun:_ZN3ns36CreateINS_19FunctorCallbackImplIPFPNS_10ObjectBaseEvES3_NS_5emptyES6_S6_S6_S6_S6_S6_S6_S6_EES5_EENS_3PtrIT_EET0_
   fun:_ZN3ns38CallbackIPNS_10ObjectBaseENS_5emptyES3_S3_S3_S3_S3_S3_S3_S3_EC1IPFS2_vEEERKT_bb
   fun:_ZN3ns312MakeCallbackIPNS_10ObjectBaseEEENS_8CallbackIT_NS_5emptyES5_S5_S5_S5_S5_S5_S5_S5_EEPFS4_vE
   fun:_ZN3ns36TypeId14AddConstructorINS_20LinuxSocketFdFactoryEEES0_v
   fun:_ZN3ns320LinuxSocketFdFactory9GetTypeIdEv
   fun:_ZN3ns338XLinuxSocketFdFactoryRegistrationClassC1Ev
   fun:_Z41__static_initialization_and_destruction_0ii
   fun:_GLOBAL__I_linux_socket_fd_factory.cc
   obj:/home/tazaki/hgworks/ns-3-dce-thehajime/build/lib/libns3-dce.so
   obj:/home/tazaki/hgworks/ns-3-dce-thehajime/build/lib/libns3-dce.so
   fun:vdl_list_iterate
}
{
   <insert_a_suppression_name_here>
   Memcheck:Leak
   fun:_Znwm
   fun:_ZN3ns36CreateINS_11StringValueES1_EENS_3PtrIT_EET0_
   fun:_ZNK3ns311StringValue4CopyEv
   fun:_ZN3ns36TypeId12AddAttributeESsSsRKNS_14AttributeValueENS_3PtrIKNS_17AttributeAccessorEEENS4_IKNS_16AttributeCheckerEEE
   fun:_ZN3ns320LinuxSocketFdFactory9GetTypeIdEv
   fun:_ZN3ns338XLinuxSocketFdFactoryRegistrationClassC1Ev
   fun:_Z41__static_initialization_and_destruction_0ii
   fun:_GLOBAL__I_linux_socket_fd_factory.cc
   obj:/home/tazaki/hgworks/ns-3-dce-thehajime/build/lib/libns3-dce.so
   obj:/home/tazaki/hgworks/ns-3-dce-thehajime/build/lib/libns3-dce.so
   fun:vdl_list_iterate
   fun:vdl_init_call
}
{
   <insert_a_suppression_name_here>
   Memcheck:Leak
   fun:_Znwm
   fun:_ZN3ns36CreateINS_11DoubleValueES1_EENS_3PtrIT_EET0_
   fun:_ZNK3ns311DoubleValue4CopyEv
   fun:_ZN3ns36TypeId12AddAttributeESsSsRKNS_14AttributeValueENS_3PtrIKNS_17AttributeAccessorEEENS4_IKNS_16AttributeCheckerEEE
   fun:_ZN3ns320LinuxSocketFdFactory9GetTypeIdEv
   fun:_ZN3ns338XLinuxSocketFdFactoryRegistrationClassC1Ev
   fun:_Z41__static_initialization_and_destruction_0ii
   fun:_GLOBAL__I_linux_socket_fd_factory.cc
   obj:/home/tazaki/hgworks/ns-3-dce-thehajime/build/lib/libns3-dce.so
   obj:/home/tazaki/hgworks/ns-3-dce-thehajime/build/lib/libns3-dce.so
   fun:vdl_list_iterate
   fun:vdl_init_call
}
{
   <insert_a_suppression_name_here>
   Memcheck:Leak
   fun:_Znwm
   fun:_ZN3ns36CreateINS_19RandomVariableValueES1_EENS_3PtrIT_EET0_
   fun:_ZNK3ns319RandomVariableValue4CopyEv
   fun:_ZN3ns36TypeId12AddAttributeESsSsRKNS_14AttributeValueENS_3PtrIKNS_17AttributeAccessorEEENS4_IKNS_16AttributeCheckerEEE
   fun:_ZN3ns320LinuxSocketFdFactory9GetTypeIdEv
   fun:_ZN3ns338XLinuxSocketFdFactoryRegistrationClassC1Ev
   fun:_Z41__static_initialization_and_destruction_0ii
   fun:_GLOBAL__I_linux_socket_fd_factory.cc
   obj:/home/tazaki/hgworks/ns-3-dce-thehajime/build/lib/libns3-dce.so
   obj:/home/tazaki/hgworks/ns-3-dce-thehajime/build/lib/libns3-dce.so
   fun:vdl_list_iterate
   fun:vdl_init_call
}
{
   <insert_a_suppression_name_here>
   Memcheck:Leak
   fun:_Znwm
   fun:_ZN3ns323DoMakeAccessorHelperOneINS_18ObjectFactoryValueENS_16DceManagerHelperENS_13ObjectFactoryEEENS_3PtrIKNS_17AttributeAccessorEEEMT0_T1_
   fun:_ZN3ns318MakeAccessorHelperINS_18ObjectFactoryValueEMNS_16DceManagerHelperENS_13ObjectFactoryEEENS_3PtrIKNS_17AttributeAccessorEEET0_
   fun:_ZN3ns325MakeObjectFactoryAccessorIMNS_16DceManagerHelperENS_13ObjectFactoryEEENS_3PtrIKNS_17AttributeAccessorEEET_
   fun:_ZN3ns316DceManagerHelper9GetTypeIdEv
   fun:_ZN3ns334XDceManagerHelperRegistrationClassC1Ev
   fun:_Z41__static_initialization_and_destruction_0ii
   fun:_GLOBAL__I_dce_manager_helper.cc
   obj:/home/tazaki/hgworks/ns-3-dce-thehajime/build/lib/libns3-dce.so
   obj:/home/tazaki/hgworks/ns-3-dce-thehajime/build/lib/libns3-dce.so
   fun:vdl_list_iterate
   fun:vdl_init_call
}
{
   <insert_a_suppression_name_here>
   Memcheck:Leak
   fun:_Znwm
   fun:_ZN3ns36CreateINS_11StringValueES1_EENS_3PtrIT_EET0_
   fun:_ZNK3ns311StringValue4CopyEv
   fun:_ZN3ns36TypeId12AddAttributeESsSsRKNS_14AttributeValueENS_3PtrIKNS_17AttributeAccessorEEENS4_IKNS_16AttributeCheckerEEE
   fun:_ZN3ns316DceManagerHelper9GetTypeIdEv
   fun:_ZN3ns334XDceManagerHelperRegistrationClassC1Ev
   fun:_Z41__static_initialization_and_destruction_0ii
   fun:_GLOBAL__I_dce_manager_helper.cc
   obj:/home/tazaki/hgworks/ns-3-dce-thehajime/build/lib/libns3-dce.so
   obj:/home/tazaki/hgworks/ns-3-dce-thehajime/build/lib/libns3-dce.so
   fun:vdl_list_iterate
   fun:vdl_init_call
}
{
   <insert_a_suppression_name_here>
   Memcheck:Leak
   fun:_Znwm
   fun:_ZN3ns323DoMakeAccessorHelperOneINS_13UintegerValueENS_15LinuxSocketImplEtEENS_3PtrIKNS_17AttributeAccessorEEEMT0_T1_
   fun:_ZN3ns318MakeAccessorHelperINS_13UintegerValueEMNS_15LinuxSocketImplEtEENS_3PtrIKNS_17AttributeAccessorEEET0_
   fun:_ZN3ns320MakeUintegerAccessorIMNS_15LinuxSocketImplEtEENS_3PtrIKNS_17AttributeAccessorEEET_
   fun:_ZN3ns315LinuxSocketImpl9GetTypeIdEv
   fun:_ZN3ns333XLinuxSocketImplRegistrationClassC1Ev
   fun:_Z41__static_initialization_and_destruction_0ii
   fun:_GLOBAL__I_linux_socket_impl.cc
   obj:/home/tazaki/hgworks/ns-3-dce-thehajime/build/lib/libns3-dce.so
   obj:/home/tazaki/hgworks/ns-3-dce-thehajime/build/lib/libns3-dce.so
   fun:vdl_list_iterate
   fun:vdl_init_call
}
{
   <insert_a_suppression_name_here>
   Memcheck:Leak
   fun:_Znwm
   fun:_ZN3ns36CreateINS_19FunctorCallbackImplIPFPNS_10ObjectBaseEvES3_NS_5emptyES6_S6_S6_S6_S6_S6_S6_S6_EES5_EENS_3PtrIT_EET0_
   fun:_ZN3ns38CallbackIPNS_10ObjectBaseENS_5emptyES3_S3_S3_S3_S3_S3_S3_S3_EC1IPFS2_vEEERKT_bb
   fun:_ZN3ns312MakeCallbackIPNS_10ObjectBaseEEENS_8CallbackIT_NS_5emptyES5_S5_S5_S5_S5_S5_S5_S5_EEPFS4_vE
   fun:_ZN3ns36TypeId14AddConstructorINS_15LinuxSocketImplEEES0_v
   fun:_ZN3ns315LinuxSocketImpl9GetTypeIdEv
   fun:_ZN3ns333XLinuxSocketImplRegistrationClassC1Ev
   fun:_Z41__static_initialization_and_destruction_0ii
   fun:_GLOBAL__I_linux_socket_impl.cc
   obj:/home/tazaki/hgworks/ns-3-dce-thehajime/build/lib/libns3-dce.so
   obj:/home/tazaki/hgworks/ns-3-dce-thehajime/build/lib/libns3-dce.so
   fun:vdl_list_iterate
}
{
   <insert_a_suppression_name_here>
   Memcheck:Leak
   fun:_Znwm
   fun:_ZN3ns36CreateINS_13UintegerValueES1_EENS_3PtrIT_EET0_
   fun:_ZNK3ns313UintegerValue4CopyEv
   fun:_ZN3ns36TypeId12AddAttributeESsSsRKNS_14AttributeValueENS_3PtrIKNS_17AttributeAccessorEEENS4_IKNS_16AttributeCheckerEEE
   fun:_ZN3ns315LinuxSocketImpl9GetTypeIdEv
   fun:_ZN3ns333XLinuxSocketImplRegistrationClassC1Ev
   fun:_Z41__static_initialization_and_destruction_0ii
   fun:_GLOBAL__I_linux_socket_impl.cc
   obj:/home/tazaki/hgworks/ns-3-dce-thehajime/build/lib/libns3-dce.so
   obj:/home/tazaki/hgworks/ns-3-dce-thehajime/build/lib/libns3-dce.so
   fun:vdl_list_iterate
   fun:vdl_init_call
}
{
   <insert_a_suppression_name_here>
   Memcheck:Leak
   fun:_Znwm
   fun:_ZN3ns323DoMakeAccessorHelperOneINS_19RandomVariableValueENS_23RandomProcessDelayModelENS_14RandomVariableEEENS_3PtrIKNS_17AttributeAccessorEEEMT0_T1_
   fun:_ZN3ns318MakeAccessorHelperINS_19RandomVariableValueEMNS_23RandomProcessDelayModelENS_14RandomVariableEEENS_3PtrIKNS_17AttributeAccessorEEET0_
   fun:_ZN3ns326MakeRandomVariableAccessorIMNS_23RandomProcessDelayModelENS_14RandomVariableEEENS_3PtrIKNS_17AttributeAccessorEEET_
   fun:_ZN3ns323RandomProcessDelayModel9GetTypeIdEv
   fun:_ZN3ns341XRandomProcessDelayModelRegistrationClassC1Ev
   fun:_Z41__static_initialization_and_destruction_0ii
   fun:_GLOBAL__I_process_delay_model.cc
   obj:/home/tazaki/hgworks/ns-3-dce-thehajime/build/lib/libns3-dce.so
   obj:/home/tazaki/hgworks/ns-3-dce-thehajime/build/lib/libns3-dce.so
   fun:vdl_list_iterate
   fun:vdl_init_call
}
{
   <insert_a_suppression_name_here>
   Memcheck:Leak
   fun:_Znwm
   fun:_ZN3ns36CreateINS_19FunctorCallbackImplIPFPNS_10ObjectBaseEvES3_NS_5emptyES6_S6_S6_S6_S6_S6_S6_S6_EES5_EENS_3PtrIT_EET0_
   fun:_ZN3ns38CallbackIPNS_10ObjectBaseENS_5emptyES3_S3_S3_S3_S3_S3_S3_S3_EC1IPFS2_vEEERKT_bb
   fun:_ZN3ns312MakeCallbackIPNS_10ObjectBaseEEENS_8CallbackIT_NS_5emptyES5_S5_S5_S5_S5_S5_S5_S5_EEPFS4_vE
   fun:_ZN3ns36TypeId14AddConstructorINS_23RandomProcessDelayModelEEES0_v
   fun:_ZN3ns323RandomProcessDelayModel9GetTypeIdEv
   fun:_ZN3ns341XRandomProcessDelayModelRegistrationClassC1Ev
   fun:_Z41__static_initialization_and_destruction_0ii
   fun:_GLOBAL__I_process_delay_model.cc
   obj:/home/tazaki/hgworks/ns-3-dce-thehajime/build/lib/libns3-dce.so
   obj:/home/tazaki/hgworks/ns-3-dce-thehajime/build/lib/libns3-dce.so
   fun:vdl_list_iterate
}
{
   <insert_a_suppression_name_here>
   Memcheck:Leak
   fun:_Znwm
   fun:_ZN3ns36CreateINS_19RandomVariableValueES1_EENS_3PtrIT_EET0_
   fun:_ZNK3ns319RandomVariableValue4CopyEv
   fun:_ZN3ns36TypeId12AddAttributeESsSsRKNS_14AttributeValueENS_3PtrIKNS_17AttributeAccessorEEENS4_IKNS_16AttributeCheckerEEE
   fun:_ZN3ns323RandomProcessDelayModel9GetTypeIdEv
   fun:_ZN3ns341XRandomProcessDelayModelRegistrationClassC1Ev
   fun:_Z41__static_initialization_and_destruction_0ii
   fun:_GLOBAL__I_process_delay_model.cc
   obj:/home/tazaki/hgworks/ns-3-dce-thehajime/build/lib/libns3-dce.so
   obj:/home/tazaki/hgworks/ns-3-dce-thehajime/build/lib/libns3-dce.so
   fun:vdl_list_iterate
   fun:vdl_init_call
}
{
   <insert_a_suppression_name_here>
   Memcheck:Leak
   fun:_Znwm
   fun:_ZNK3ns320ConstantVariableImpl4CopyEv
   fun:_ZN3ns314RandomVariableC1ERKS0_
   fun:_ZN3ns319RandomVariableValueC1ERKS0_
   fun:_ZN3ns36CreateINS_19RandomVariableValueES1_EENS_3PtrIT_EET0_
   fun:_ZNK3ns319RandomVariableValue4CopyEv
   fun:_ZN3ns36TypeId12AddAttributeESsSsRKNS_14AttributeValueENS_3PtrIKNS_17AttributeAccessorEEENS4_IKNS_16AttributeCheckerEEE
   fun:_ZN3ns323RandomProcessDelayModel9GetTypeIdEv
   fun:_ZN3ns341XRandomProcessDelayModelRegistrationClassC1Ev
   fun:_Z41__static_initialization_and_destruction_0ii
   fun:_GLOBAL__I_process_delay_model.cc
   obj:/home/tazaki/hgworks/ns-3-dce-thehajime/build/lib/libns3-dce.so
}
{
   <insert_a_suppression_name_here>
   Memcheck:Leak
   fun:_Znwm
   fun:_ZN3ns36CreateINS_19FunctorCallbackImplIPFPNS_10ObjectBaseEvES3_NS_5emptyES6_S6_S6_S6_S6_S6_S6_S6_EES5_EENS_3PtrIT_EET0_
   fun:_ZN3ns38CallbackIPNS_10ObjectBaseENS_5emptyES3_S3_S3_S3_S3_S3_S3_S3_EC1IPFS2_vEEERKT_bb
   fun:_ZN3ns312MakeCallbackIPNS_10ObjectBaseEEENS_8CallbackIT_NS_5emptyES5_S5_S5_S5_S5_S5_S5_S5_EEPFS4_vE
   fun:_ZN3ns36TypeId14AddConstructorINS_26TimeOfDayProcessDelayModelEEES0_v
   fun:_ZN3ns326TimeOfDayProcessDelayModel9GetTypeIdEv
   fun:_ZN3ns344XTimeOfDayProcessDelayModelRegistrationClassC1Ev
   fun:_Z41__static_initialization_and_destruction_0ii
   fun:_GLOBAL__I_process_delay_model.cc
   obj:/home/tazaki/hgworks/ns-3-dce-thehajime/build/lib/libns3-dce.so
   obj:/home/tazaki/hgworks/ns-3-dce-thehajime/build/lib/libns3-dce.so
   fun:vdl_list_iterate
}
{
   <insert_a_suppression_name_here>
   Memcheck:Leak
   fun:_Znwm
   fun:_ZN3ns36CreateINS_19FunctorCallbackImplIPFPNS_10ObjectBaseEvES3_NS_5emptyES6_S6_S6_S6_S6_S6_S6_S6_EES5_EENS_3PtrIT_EET0_
   fun:_ZN3ns38CallbackIPNS_10ObjectBaseENS_5emptyES3_S3_S3_S3_S3_S3_S3_S3_EC1IPFS2_vEEERKT_bb
   fun:_ZN3ns312MakeCallbackIPNS_10ObjectBaseEEENS_8CallbackIT_NS_5emptyES5_S5_S5_S5_S5_S5_S5_S5_EEPFS4_vE
   fun:_ZN3ns36TypeId14AddConstructorINS_9Ipv4LinuxEEES0_v
   fun:_ZN3ns39Ipv4Linux9GetTypeIdEv
   fun:_ZN3ns327XIpv4LinuxRegistrationClassC1Ev
   fun:_Z41__static_initialization_and_destruction_0ii
   fun:_GLOBAL__I_ipv4_linux.cc
   obj:/home/tazaki/hgworks/ns-3-dce-thehajime/build/lib/libns3-dce.so
   obj:/home/tazaki/hgworks/ns-3-dce-thehajime/build/lib/libns3-dce.so
   fun:vdl_list_iterate
}
{
   <insert_a_suppression_name_here>
   Memcheck:Leak
   fun:_Znwm
   fun:_ZN3ns36CreateINS_19FunctorCallbackImplIPFPNS_10ObjectBaseEvES3_NS_5emptyES6_S6_S6_S6_S6_S6_S6_S6_EES5_EENS_3PtrIT_EET0_
   fun:_ZN3ns38CallbackIPNS_10ObjectBaseENS_5emptyES3_S3_S3_S3_S3_S3_S3_S3_EC1IPFS2_vEEERKT_bb
   fun:_ZN3ns312MakeCallbackIPNS_10ObjectBaseEEENS_8CallbackIT_NS_5emptyES5_S5_S5_S5_S5_S5_S5_S5_EEPFS4_vE
   fun:_ZN3ns36TypeId14AddConstructorINS_14Ipv4DceRoutingEEES0_v
   fun:_ZN3ns314Ipv4DceRouting9GetTypeIdEv
   fun:_ZN3ns332XIpv4DceRoutingRegistrationClassC1Ev
   fun:_Z41__static_initialization_and_destruction_0ii
   fun:_GLOBAL__I_ipv4_dce_routing.cc
   obj:/home/tazaki/hgworks/ns-3-dce-thehajime/build/lib/libns3-dce.so
   obj:/home/tazaki/hgworks/ns-3-dce-thehajime/build/lib/libns3-dce.so
   fun:vdl_list_iterate
}
{
   <insert_a_suppression_name_here>
   Memcheck:Leak
   fun:_Znwm
   fun:_ZN3ns36CreateINS_19FunctorCallbackImplIPFPNS_10ObjectBaseEvES3_NS_5emptyES6_S6_S6_S6_S6_S6_S6_S6_EES5_EENS_3PtrIT_EET0_
   fun:_ZN3ns38CallbackIPNS_10ObjectBaseENS_5emptyES3_S3_S3_S3_S3_S3_S3_S3_EC1IPFS2_vEEERKT_bb
   fun:_ZN3ns312MakeCallbackIPNS_10ObjectBaseEEENS_8CallbackIT_NS_5emptyES5_S5_S5_S5_S5_S5_S5_S5_EEPFS4_vE
   fun:_ZN3ns36TypeId14AddConstructorINS_14DceNodeContextEEES0_v
   fun:_ZN3ns314DceNodeContext9GetTypeIdEv
   fun:_ZN3ns332XDceNodeContextRegistrationClassC1Ev
   fun:_Z41__static_initialization_and_destruction_0ii
   fun:_GLOBAL__I_dce_node_context.cc
   obj:/home/tazaki/hgworks/ns-3-dce-thehajime/build/lib/libns3-dce.so
   obj:/home/tazaki/hgworks/ns-3-dce-thehajime/build/lib/libns3-dce.so
   fun:vdl_list_iterate
}
{
   <insert_a_suppression_name_here>
   Memcheck:Leak
   fun:_Znwm
   fun:_ZN3ns36CreateINS_19FunctorCallbackImplIPFPNS_10ObjectBaseEvES3_NS_5emptyES6_S6_S6_S6_S6_S6_S6_S6_EES5_EENS_3PtrIT_EET0_
   fun:_ZN3ns38CallbackIPNS_10ObjectBaseENS_5emptyES3_S3_S3_S3_S3_S3_S3_S3_EC1IPFS2_vEEERKT_bb
   fun:_ZN3ns312MakeCallbackIPNS_10ObjectBaseEEENS_8CallbackIT_NS_5emptyES5_S5_S5_S5_S5_S5_S5_S5_EEPFS4_vE
   fun:_ZN3ns36TypeId14AddConstructorINS_20LocalSocketFdFactoryEEES0_v
   fun:_ZN3ns320LocalSocketFdFactory9GetTypeIdEv
   fun:_ZN3ns338XLocalSocketFdFactoryRegistrationClassC1Ev
   fun:_Z41__static_initialization_and_destruction_0ii
   fun:_GLOBAL__I_local_socket_fd_factory.cc
   obj:/home/tazaki/hgworks/ns-3-dce-thehajime/build/lib/libns3-dce.so
   obj:/home/tazaki/hgworks/ns-3-dce-thehajime/build/lib/libns3-dce.so
   fun:vdl_list_iterate
}
{
   <insert_a_suppression_name_here>
   Memcheck:Leak
   fun:_Znwm
   fun:_ZN3ns36CreateINS_19FunctorCallbackImplIPFPNS_10ObjectBaseEvES3_NS_5emptyES6_S6_S6_S6_S6_S6_S6_S6_EES5_EENS_3PtrIT_EET0_
   fun:_ZN3ns38CallbackIPNS_10ObjectBaseENS_5emptyES3_S3_S3_S3_S3_S3_S3_S3_EC1IPFS2_vEEERKT_bb
   fun:_ZN3ns312MakeCallbackIPNS_10ObjectBaseEEENS_8CallbackIT_NS_5emptyES5_S5_S5_S5_S5_S5_S5_S5_EEPFS4_vE
   fun:_ZN3ns36TypeId14AddConstructorINS_18Ns3SocketFdFactoryEEES0_v
   fun:_ZN3ns318Ns3SocketFdFactory9GetTypeIdEv
   fun:_ZN3ns336XNs3SocketFdFactoryRegistrationClassC1Ev
   fun:_Z41__static_initialization_and_destruction_0ii
   fun:_GLOBAL__I_ns3_socket_fd_factory.cc
   obj:/home/tazaki/hgworks/ns-3-dce-thehajime/build/lib/libns3-dce.so
   obj:/home/tazaki/hgworks/ns-3-dce-thehajime/build/lib/libns3-dce.so
   fun:vdl_list_iterate
}
{
   <insert_a_suppression_name_here>
   Memcheck:Leak
   fun:_Znwm
   fun:_ZN3ns36CreateINS_19FunctorCallbackImplIPFPNS_10ObjectBaseEvES3_NS_5emptyES6_S6_S6_S6_S6_S6_S6_S6_EES5_EENS_3PtrIT_EET0_
   fun:_ZN3ns38CallbackIPNS_10ObjectBaseENS_5emptyES3_S3_S3_S3_S3_S3_S3_S3_EC1IPFS2_vEEERKT_bb
   fun:_ZN3ns312MakeCallbackIPNS_10ObjectBaseEEENS_8CallbackIT_NS_5emptyES5_S5_S5_S5_S5_S5_S5_S5_EEPFS4_vE
   fun:_ZN3ns36TypeId14AddConstructorINS_16DlmLoaderFactoryEEES0_v
   fun:_ZN3ns316DlmLoaderFactory9GetTypeIdEv
   fun:_ZN3ns334XDlmLoaderFactoryRegistrationClassC1Ev
   fun:_Z41__static_initialization_and_destruction_0ii
   fun:_GLOBAL__I_dlm_loader_factory.cc
   obj:/home/tazaki/hgworks/ns-3-dce-thehajime/build/lib/libns3-dce.so
   obj:/home/tazaki/hgworks/ns-3-dce-thehajime/build/lib/libns3-dce.so
   fun:vdl_list_iterate
}
{
   <insert_a_suppression_name_here>
   Memcheck:Leak
   fun:_Znwm
   fun:_ZN3ns36CreateINS_19FunctorCallbackImplIPFPNS_10ObjectBaseEvES3_NS_5emptyES6_S6_S6_S6_S6_S6_S6_S6_EES5_EENS_3PtrIT_EET0_
   fun:_ZN3ns38CallbackIPNS_10ObjectBaseENS_5emptyES3_S3_S3_S3_S3_S3_S3_S3_EC1IPFS2_vEEERKT_bb
   fun:_ZN3ns312MakeCallbackIPNS_10ObjectBaseEEENS_8CallbackIT_NS_5emptyES5_S5_S5_S5_S5_S5_S5_S5_EEPFS4_vE
   fun:_ZN3ns36TypeId14AddConstructorINS_17CopyLoaderFactoryEEES0_v
   fun:_ZN3ns317CopyLoaderFactory9GetTypeIdEv
   fun:_ZN3ns335XCopyLoaderFactoryRegistrationClassC1Ev
   fun:_Z41__static_initialization_and_destruction_0ii
   fun:_GLOBAL__I_copy_loader_factory.cc
   obj:/home/tazaki/hgworks/ns-3-dce-thehajime/build/lib/libns3-dce.so
   obj:/home/tazaki/hgworks/ns-3-dce-thehajime/build/lib/libns3-dce.so
   fun:vdl_list_iterate
}
{
   <insert_a_suppression_name_here>
   Memcheck:Leak
   fun:_Znwm
   fun:_ZN3ns36CreateINS_19FunctorCallbackImplIPFPNS_10ObjectBaseEvES3_NS_5emptyES6_S6_S6_S6_S6_S6_S6_S6_EES5_EENS_3PtrIT_EET0_
   fun:_ZN3ns38CallbackIPNS_10ObjectBaseENS_5emptyES3_S3_S3_S3_S3_S3_S3_S3_EC1IPFS2_vEEERKT_bb
   fun:_ZN3ns312MakeCallbackIPNS_10ObjectBaseEEENS_8CallbackIT_NS_5emptyES5_S5_S5_S5_S5_S5_S5_S5_EEPFS4_vE
   fun:_ZN3ns36TypeId14AddConstructorINS_18CoojaLoaderFactoryEEES0_v
   fun:_ZN3ns318CoojaLoaderFactory9GetTypeIdEv
   fun:_ZN3ns336XCoojaLoaderFactoryRegistrationClassC1Ev
   fun:_Z41__static_initialization_and_destruction_0ii
   fun:_GLOBAL__I_cooja_loader_factory.cc
   obj:/home/tazaki/hgworks/ns-3-dce-thehajime/build/lib/libns3-dce.so
   obj:/home/tazaki/hgworks/ns-3-dce-thehajime/build/lib/libns3-dce.so
   fun:vdl_list_iterate
}
{
   <insert_a_suppression_name_here>
   Memcheck:Leak
   fun:_Znwm
   fun:_ZN3ns36CreateINS_19FunctorCallbackImplIPFPNS_10ObjectBaseEvES3_NS_5emptyES6_S6_S6_S6_S6_S6_S6_S6_EES5_EENS_3PtrIT_EET0_
   fun:_ZN3ns38CallbackIPNS_10ObjectBaseENS_5emptyES3_S3_S3_S3_S3_S3_S3_S3_EC1IPFS2_vEEERKT_bb
   fun:_ZN3ns312MakeCallbackIPNS_10ObjectBaseEEENS_8CallbackIT_NS_5emptyES5_S5_S5_S5_S5_S5_S5_S5_EEPFS4_vE
   fun:_ZN3ns36TypeId14AddConstructorINS_15RrTaskSchedulerEEES0_v
   fun:_ZN3ns315RrTaskScheduler9GetTypeIdEv
   fun:_ZN3ns333XRrTaskSchedulerRegistrationClassC1Ev
   fun:_Z41__static_initialization_and_destruction_0ii
   fun:_GLOBAL__I_rr_task_scheduler.cc
   obj:/home/tazaki/hgworks/ns-3-dce-thehajime/build/lib/libns3-dce.so
   obj:/home/tazaki/hgworks/ns-3-dce-thehajime/build/lib/libns3-dce.so
   fun:vdl_list_iterate
}
{
   <insert_a_suppression_name_here>
   Memcheck:Leak
   fun:_Znwm
   fun:_ZN3ns323DoMakeAccessorHelperOneINS_13UintegerValueENS_11TaskManagerEjEENS_3PtrIKNS_17AttributeAccessorEEEMT0_T1_
   fun:_ZN3ns318MakeAccessorHelperINS_13UintegerValueEMNS_11TaskManagerEjEENS_3PtrIKNS_17AttributeAccessorEEET0_
   fun:_ZN3ns320MakeUintegerAccessorIMNS_11TaskManagerEjEENS_3PtrIKNS_17AttributeAccessorEEET_
   fun:_ZN3ns311TaskManager9GetTypeIdEv
   fun:_ZN3ns329XTaskManagerRegistrationClassC1Ev
   fun:_Z41__static_initialization_and_destruction_0ii
   fun:_GLOBAL__I_task_manager.cc
   obj:/home/tazaki/hgworks/ns-3-dce-thehajime/build/lib/libns3-dce.so
   obj:/home/tazaki/hgworks/ns-3-dce-thehajime/build/lib/libns3-dce.so
   fun:vdl_list_iterate
   fun:vdl_init_call
}
{
   <insert_a_suppression_name_here>
   Memcheck:Leak
   fun:_Znwm
   fun:_ZN3ns36CreateINS_19FunctorCallbackImplIPFPNS_10ObjectBaseEvES3_NS_5emptyES6_S6_S6_S6_S6_S6_S6_S6_EES5_EENS_3PtrIT_EET0_
   fun:_ZN3ns38CallbackIPNS_10ObjectBaseENS_5emptyES3_S3_S3_S3_S3_S3_S3_S3_EC1IPFS2_vEEERKT_bb
   fun:_ZN3ns312MakeCallbackIPNS_10ObjectBaseEEENS_8CallbackIT_NS_5emptyES5_S5_S5_S5_S5_S5_S5_S5_EEPFS4_vE
   fun:_ZN3ns36TypeId14AddConstructorINS_11TaskManagerEEES0_v
   fun:_ZN3ns311TaskManager9GetTypeIdEv
   fun:_ZN3ns329XTaskManagerRegistrationClassC1Ev
   fun:_Z41__static_initialization_and_destruction_0ii
   fun:_GLOBAL__I_task_manager.cc
   obj:/home/tazaki/hgworks/ns-3-dce-thehajime/build/lib/libns3-dce.so
   obj:/home/tazaki/hgworks/ns-3-dce-thehajime/build/lib/libns3-dce.so
   fun:vdl_list_iterate
}
{
   <insert_a_suppression_name_here>
   Memcheck:Leak
   fun:_Znwm
   fun:_ZN3ns36CreateINS_13UintegerValueES1_EENS_3PtrIT_EET0_
   fun:_ZNK3ns313UintegerValue4CopyEv
   fun:_ZN3ns36TypeId12AddAttributeESsSsRKNS_14AttributeValueENS_3PtrIKNS_17AttributeAccessorEEENS4_IKNS_16AttributeCheckerEEE
   fun:_ZN3ns311TaskManager9GetTypeIdEv
   fun:_ZN3ns329XTaskManagerRegistrationClassC1Ev
   fun:_Z41__static_initialization_and_destruction_0ii
   fun:_GLOBAL__I_task_manager.cc
   obj:/home/tazaki/hgworks/ns-3-dce-thehajime/build/lib/libns3-dce.so
   obj:/home/tazaki/hgworks/ns-3-dce-thehajime/build/lib/libns3-dce.so
   fun:vdl_list_iterate
   fun:vdl_init_call
}
{
   <insert_a_suppression_name_here>
   Memcheck:Leak
   fun:_Znwm
   fun:_ZN3ns325DoMakeTraceSourceAccessorINS_14DceApplicationENS_14TracedCallbackItNS_5emptyES3_S3_S3_S3_S3_S3_EEEENS_3PtrIKNS_19TraceSourceAccessorEEEMT_T0_
   fun:_ZN3ns323MakeTraceSourceAccessorIMNS_14DceApplicationENS_14TracedCallbackItNS_5emptyES3_S3_S3_S3_S3_S3_EEEENS_3PtrIKNS_19TraceSourceAccessorEEET_
   fun:_ZN3ns314DceApplication9GetTypeIdEv
   fun:_ZN3ns332XDceApplicationRegistrationClassC1Ev
   fun:_Z41__static_initialization_and_destruction_0ii
   fun:_GLOBAL__I_dce_application.cc
   obj:/home/tazaki/hgworks/ns-3-dce-thehajime/build/lib/libns3-dce.so
   obj:/home/tazaki/hgworks/ns-3-dce-thehajime/build/lib/libns3-dce.so
   fun:vdl_list_iterate
   fun:vdl_init_call
   fun:dlopen_with_context
}
{
   <insert_a_suppression_name_here>
   Memcheck:Leak
   fun:_Znwm
   fun:_ZN3ns36CreateINS_19FunctorCallbackImplIPFPNS_10ObjectBaseEvES3_NS_5emptyES6_S6_S6_S6_S6_S6_S6_S6_EES5_EENS_3PtrIT_EET0_
   fun:_ZN3ns38CallbackIPNS_10ObjectBaseENS_5emptyES3_S3_S3_S3_S3_S3_S3_S3_EC1IPFS2_vEEERKT_bb
   fun:_ZN3ns312MakeCallbackIPNS_10ObjectBaseEEENS_8CallbackIT_NS_5emptyES5_S5_S5_S5_S5_S5_S5_S5_EEPFS4_vE
   fun:_ZN3ns36TypeId14AddConstructorINS_14DceApplicationEEES0_v
   fun:_ZN3ns314DceApplication9GetTypeIdEv
   fun:_ZN3ns332XDceApplicationRegistrationClassC1Ev
   fun:_Z41__static_initialization_and_destruction_0ii
   fun:_GLOBAL__I_dce_application.cc
   obj:/home/tazaki/hgworks/ns-3-dce-thehajime/build/lib/libns3-dce.so
   obj:/home/tazaki/hgworks/ns-3-dce-thehajime/build/lib/libns3-dce.so
   fun:vdl_list_iterate
}
{
   <insert_a_suppression_name_here>
   Memcheck:Leak
   fun:_Znwm
   fun:_ZN9__gnu_cxx13new_allocatorIN3ns36TypeId22TraceSourceInformationEE8allocateEmPKv
   fun:_ZNSt12_Vector_baseIN3ns36TypeId22TraceSourceInformationESaIS2_EE11_M_allocateEm
   fun:_ZNSt6vectorIN3ns36TypeId22TraceSourceInformationESaIS2_EE13_M_insert_auxEN9__gnu_cxx17__normal_iteratorIPS2_S4_EERKS2_
   fun:_ZNSt6vectorIN3ns36TypeId22TraceSourceInformationESaIS2_EE9push_backERKS2_
   fun:_ZN12_GLOBAL__N_110IidManager14AddTraceSourceEtSsSsN3ns33PtrIKNS1_19TraceSourceAccessorEEE
   fun:_ZN3ns36TypeId14AddTraceSourceESsSsNS_3PtrIKNS_19TraceSourceAccessorEEE
   fun:_ZN3ns314DceApplication9GetTypeIdEv
   fun:_ZN3ns332XDceApplicationRegistrationClassC1Ev
   fun:_Z41__static_initialization_and_destruction_0ii
   fun:_GLOBAL__I_dce_application.cc
   obj:/home/tazaki/hgworks/ns-3-dce-thehajime/build/lib/libns3-dce.so
}
{
   <insert_a_suppression_name_here>
   Memcheck:Leak
   fun:_Znwm
   fun:_ZN3ns323DoMakeAccessorHelperOneINS_12BooleanValueENS_10DceManagerEbEENS_3PtrIKNS_17AttributeAccessorEEEMT0_T1_
   fun:_ZN3ns318MakeAccessorHelperINS_12BooleanValueEMNS_10DceManagerEbEENS_3PtrIKNS_17AttributeAccessorEEET0_
   fun:_ZN3ns319MakeBooleanAccessorIMNS_10DceManagerEbEENS_3PtrIKNS_17AttributeAccessorEEET_
   fun:_ZN3ns310DceManager9GetTypeIdEv
   fun:_ZN3ns328XDceManagerRegistrationClassC1Ev
   fun:_Z41__static_initialization_and_destruction_0ii
   fun:_GLOBAL__I_dce_manager.cc
   obj:/home/tazaki/hgworks/ns-3-dce-thehajime/build/lib/libns3-dce.so
   obj:/home/tazaki/hgworks/ns-3-dce-thehajime/build/lib/libns3-dce.so
   fun:vdl_list_iterate
   fun:vdl_init_call
}
{
   <insert_a_suppression_name_here>
   Memcheck:Leak
   fun:_Znwm
   fun:_ZN3ns323DoMakeAccessorHelperOneINS_13UintegerValueENS_10DceManagerEtEENS_3PtrIKNS_17AttributeAccessorEEEMT0_T1_
   fun:_ZN3ns318MakeAccessorHelperINS_13UintegerValueEMNS_10DceManagerEtEENS_3PtrIKNS_17AttributeAccessorEEET0_
   fun:_ZN3ns320MakeUintegerAccessorIMNS_10DceManagerEtEENS_3PtrIKNS_17AttributeAccessorEEET_
   fun:_ZN3ns310DceManager9GetTypeIdEv
   fun:_ZN3ns328XDceManagerRegistrationClassC1Ev
   fun:_Z41__static_initialization_and_destruction_0ii
   fun:_GLOBAL__I_dce_manager.cc
   obj:/home/tazaki/hgworks/ns-3-dce-thehajime/build/lib/libns3-dce.so
   obj:/home/tazaki/hgworks/ns-3-dce-thehajime/build/lib/libns3-dce.so
   fun:vdl_list_iterate
   fun:vdl_init_call
}
{
   <insert_a_suppression_name_here>
   Memcheck:Leak
   fun:_Znwm
   fun:_ZN3ns325DoMakeTraceSourceAccessorINS_10DceManagerENS_14TracedCallbackItiNS_5emptyES3_S3_S3_S3_S3_EEEENS_3PtrIKNS_19TraceSourceAccessorEEEMT_T0_
   fun:_ZN3ns323MakeTraceSourceAccessorIMNS_10DceManagerENS_14TracedCallbackItiNS_5emptyES3_S3_S3_S3_S3_EEEENS_3PtrIKNS_19TraceSourceAccessorEEET_
   fun:_ZN3ns310DceManager9GetTypeIdEv
   fun:_ZN3ns328XDceManagerRegistrationClassC1Ev
   fun:_Z41__static_initialization_and_destruction_0ii
   fun:_GLOBAL__I_dce_manager.cc
   obj:/home/tazaki/hgworks/ns-3-dce-thehajime/build/lib/libns3-dce.so
   obj:/home/tazaki/hgworks/ns-3-dce-thehajime/build/lib/libns3-dce.so
   fun:vdl_list_iterate
   fun:vdl_init_call
   fun:dlopen_with_context
}
{
   <insert_a_suppression_name_here>
   Memcheck:Leak
   fun:_Znwm
   fun:_ZN3ns36CreateINS_19FunctorCallbackImplIPFPNS_10ObjectBaseEvES3_NS_5emptyES6_S6_S6_S6_S6_S6_S6_S6_EES5_EENS_3PtrIT_EET0_
   fun:_ZN3ns38CallbackIPNS_10ObjectBaseENS_5emptyES3_S3_S3_S3_S3_S3_S3_S3_EC1IPFS2_vEEERKT_bb
   fun:_ZN3ns312MakeCallbackIPNS_10ObjectBaseEEENS_8CallbackIT_NS_5emptyES5_S5_S5_S5_S5_S5_S5_S5_EEPFS4_vE
   fun:_ZN3ns36TypeId14AddConstructorINS_10DceManagerEEES0_v
   fun:_ZN3ns310DceManager9GetTypeIdEv
   fun:_ZN3ns328XDceManagerRegistrationClassC1Ev
   fun:_Z41__static_initialization_and_destruction_0ii
   fun:_GLOBAL__I_dce_manager.cc
   obj:/home/tazaki/hgworks/ns-3-dce-thehajime/build/lib/libns3-dce.so
   obj:/home/tazaki/hgworks/ns-3-dce-thehajime/build/lib/libns3-dce.so
   fun:vdl_list_iterate
}
{
   <insert_a_suppression_name_here>
   Memcheck:Leak
   fun:_Znwm
   fun:_ZN9__gnu_cxx13new_allocatorIN3ns36TypeId22TraceSourceInformationEE8allocateEmPKv
   fun:_ZNSt12_Vector_baseIN3ns36TypeId22TraceSourceInformationESaIS2_EE11_M_allocateEm
   fun:_ZNSt6vectorIN3ns36TypeId22TraceSourceInformationESaIS2_EE13_M_insert_auxEN9__gnu_cxx17__normal_iteratorIPS2_S4_EERKS2_
   fun:_ZNSt6vectorIN3ns36TypeId22TraceSourceInformationESaIS2_EE9push_backERKS2_
   fun:_ZN12_GLOBAL__N_110IidManager14AddTraceSourceEtSsSsN3ns33PtrIKNS1_19TraceSourceAccessorEEE
   fun:_ZN3ns36TypeId14AddTraceSourceESsSsNS_3PtrIKNS_19TraceSourceAccessorEEE
   fun:_ZN3ns310DceManager9GetTypeIdEv
   fun:_ZN3ns328XDceManagerRegistrationClassC1Ev
   fun:_Z41__static_initialization_and_destruction_0ii
   fun:_GLOBAL__I_dce_manager.cc
   obj:/home/tazaki/hgworks/ns-3-dce-thehajime/build/lib/libns3-dce.so
}
{
   <insert_a_suppression_name_here>
   Memcheck:Leak
   fun:_Znwm
   fun:_ZN3ns36CreateINS_13UintegerValueES1_EENS_3PtrIT_EET0_
   fun:_ZNK3ns313UintegerValue4CopyEv
   fun:_ZN3ns36TypeId12AddAttributeESsSsRKNS_14AttributeValueENS_3PtrIKNS_17AttributeAccessorEEENS4_IKNS_16AttributeCheckerEEE
   fun:_ZN3ns310DceManager9GetTypeIdEv
   fun:_ZN3ns328XDceManagerRegistrationClassC1Ev
   fun:_Z41__static_initialization_and_destruction_0ii
   fun:_GLOBAL__I_dce_manager.cc
   obj:/home/tazaki/hgworks/ns-3-dce-thehajime/build/lib/libns3-dce.so
   obj:/home/tazaki/hgworks/ns-3-dce-thehajime/build/lib/libns3-dce.so
   fun:vdl_list_iterate
   fun:vdl_init_call
}
{
   <insert_a_suppression_name_here>
   Memcheck:Leak
   fun:_Znwm
   fun:_ZN3ns36CreateINS_19FunctorCallbackImplIPFPNS_10ObjectBaseEvES3_NS_5emptyES6_S6_S6_S6_S6_S6_S6_S6_EES5_EENS_3PtrIT_EET0_
   fun:_ZN3ns38CallbackIPNS_10ObjectBaseENS_5emptyES3_S3_S3_S3_S3_S3_S3_S3_EC1IPFS2_vEEERKT_bb
   fun:_ZN3ns312MakeCallbackIPNS_10ObjectBaseEEENS_8CallbackIT_NS_5emptyES5_S5_S5_S5_S5_S5_S5_S5_EEPFS4_vE
   fun:_ZN3ns36TypeId14AddConstructorINS_9PppHeaderEEES0_v
   fun:_ZN3ns39PppHeader9GetTypeIdEv
   fun:_ZN3ns327XPppHeaderRegistrationClassC1Ev
   fun:_Z41__static_initialization_and_destruction_0ii
   fun:_GLOBAL__I_ppp_header.cc
   obj:/home/tazaki/hgworks/ns-3-dce-thehajime/build/lib/libns3-dev-point-to-point-debug.so
   obj:/home/tazaki/hgworks/ns-3-dce-thehajime/build/lib/libns3-dev-point-to-point-debug.so
   fun:vdl_list_iterate
}
{
   <insert_a_suppression_name_here>
   Memcheck:Leak
   fun:_Znwm
   fun:_ZN3ns325DoMakeTraceSourceAccessorINS_19PointToPointChannelENS_14TracedCallbackINS_3PtrIKNS_6PacketEEENS3_INS_9NetDeviceEEES8_NS_4TimeES9_NS_5emptyESA_SA_EEEENS3_IKNS_19TraceSourceAccessorEEEMT_T0_
   fun:_ZN3ns323MakeTraceSourceAccessorIMNS_19PointToPointChannelENS_14TracedCallbackINS_3PtrIKNS_6PacketEEENS3_INS_9NetDeviceEEES8_NS_4TimeES9_NS_5emptyESA_SA_EEEENS3_IKNS_19TraceSourceAccessorEEET_
   fun:_ZN3ns319PointToPointChannel9GetTypeIdEv
   fun:_ZN3ns36TypeId9SetParentINS_19PointToPointChannelEEES0_v
   fun:_ZN3ns325PointToPointRemoteChannel9GetTypeIdEv
   fun:_ZN3ns343XPointToPointRemoteChannelRegistrationClassC1Ev
   fun:_Z41__static_initialization_and_destruction_0ii
   fun:_GLOBAL__I_point_to_point_remote_channel.cc
   obj:/home/tazaki/hgworks/ns-3-dce-thehajime/build/lib/libns3-dev-point-to-point-debug.so
   obj:/home/tazaki/hgworks/ns-3-dce-thehajime/build/lib/libns3-dev-point-to-point-debug.so
   fun:vdl_list_iterate
}
{
   <insert_a_suppression_name_here>
   Memcheck:Leak
   fun:_Znwm
   fun:_ZN3ns323DoMakeAccessorHelperOneINS_9TimeValueENS_19PointToPointChannelENS_4TimeEEENS_3PtrIKNS_17AttributeAccessorEEEMT0_T1_
   fun:_ZN3ns318MakeAccessorHelperINS_9TimeValueEMNS_19PointToPointChannelENS_4TimeEEENS_3PtrIKNS_17AttributeAccessorEEET0_
   fun:_ZN3ns316MakeTimeAccessorIMNS_19PointToPointChannelENS_4TimeEEENS_3PtrIKNS_17AttributeAccessorEEET_
   fun:_ZN3ns319PointToPointChannel9GetTypeIdEv
   fun:_ZN3ns36TypeId9SetParentINS_19PointToPointChannelEEES0_v
   fun:_ZN3ns325PointToPointRemoteChannel9GetTypeIdEv
   fun:_ZN3ns343XPointToPointRemoteChannelRegistrationClassC1Ev
   fun:_Z41__static_initialization_and_destruction_0ii
   fun:_GLOBAL__I_point_to_point_remote_channel.cc
   obj:/home/tazaki/hgworks/ns-3-dce-thehajime/build/lib/libns3-dev-point-to-point-debug.so
   obj:/home/tazaki/hgworks/ns-3-dce-thehajime/build/lib/libns3-dev-point-to-point-debug.so
}
{
   <insert_a_suppression_name_here>
   Memcheck:Leak
   fun:_Znwm
   fun:_ZN3ns36CreateINS_19FunctorCallbackImplIPFPNS_10ObjectBaseEvES3_NS_5emptyES6_S6_S6_S6_S6_S6_S6_S6_EES5_EENS_3PtrIT_EET0_
   fun:_ZN3ns38CallbackIPNS_10ObjectBaseENS_5emptyES3_S3_S3_S3_S3_S3_S3_S3_EC1IPFS2_vEEERKT_bb
   fun:_ZN3ns312MakeCallbackIPNS_10ObjectBaseEEENS_8CallbackIT_NS_5emptyES5_S5_S5_S5_S5_S5_S5_S5_EEPFS4_vE
   fun:_ZN3ns36TypeId14AddConstructorINS_19PointToPointChannelEEES0_v
   fun:_ZN3ns319PointToPointChannel9GetTypeIdEv
   fun:_ZN3ns36TypeId9SetParentINS_19PointToPointChannelEEES0_v
   fun:_ZN3ns325PointToPointRemoteChannel9GetTypeIdEv
   fun:_ZN3ns343XPointToPointRemoteChannelRegistrationClassC1Ev
   fun:_Z41__static_initialization_and_destruction_0ii
   fun:_GLOBAL__I_point_to_point_remote_channel.cc
   obj:/home/tazaki/hgworks/ns-3-dce-thehajime/build/lib/libns3-dev-point-to-point-debug.so
}
{
   <insert_a_suppression_name_here>
   Memcheck:Leak
   fun:_Znwm
   fun:_ZN3ns36CreateINS_9TimeValueES1_EENS_3PtrIT_EET0_
   fun:_ZNK3ns39TimeValue4CopyEv
   fun:_ZN3ns36TypeId12AddAttributeESsSsRKNS_14AttributeValueENS_3PtrIKNS_17AttributeAccessorEEENS4_IKNS_16AttributeCheckerEEE
   fun:_ZN3ns319PointToPointChannel9GetTypeIdEv
   fun:_ZN3ns36TypeId9SetParentINS_19PointToPointChannelEEES0_v
   fun:_ZN3ns325PointToPointRemoteChannel9GetTypeIdEv
   fun:_ZN3ns343XPointToPointRemoteChannelRegistrationClassC1Ev
   fun:_Z41__static_initialization_and_destruction_0ii
   fun:_GLOBAL__I_point_to_point_remote_channel.cc
   obj:/home/tazaki/hgworks/ns-3-dce-thehajime/build/lib/libns3-dev-point-to-point-debug.so
   obj:/home/tazaki/hgworks/ns-3-dce-thehajime/build/lib/libns3-dev-point-to-point-debug.so
}
{
   <insert_a_suppression_name_here>
   Memcheck:Leak
   fun:_Znwm
   fun:_ZN9__gnu_cxx13new_allocatorIN3ns36TypeId22TraceSourceInformationEE8allocateEmPKv
   fun:_ZNSt12_Vector_baseIN3ns36TypeId22TraceSourceInformationESaIS2_EE11_M_allocateEm
   fun:_ZNSt6vectorIN3ns36TypeId22TraceSourceInformationESaIS2_EE13_M_insert_auxEN9__gnu_cxx17__normal_iteratorIPS2_S4_EERKS2_
   fun:_ZNSt6vectorIN3ns36TypeId22TraceSourceInformationESaIS2_EE9push_backERKS2_
   fun:_ZN12_GLOBAL__N_110IidManager14AddTraceSourceEtSsSsN3ns33PtrIKNS1_19TraceSourceAccessorEEE
   fun:_ZN3ns36TypeId14AddTraceSourceESsSsNS_3PtrIKNS_19TraceSourceAccessorEEE
   fun:_ZN3ns319PointToPointChannel9GetTypeIdEv
   fun:_ZN3ns36TypeId9SetParentINS_19PointToPointChannelEEES0_v
   fun:_ZN3ns325PointToPointRemoteChannel9GetTypeIdEv
   fun:_ZN3ns343XPointToPointRemoteChannelRegistrationClassC1Ev
   fun:_Z41__static_initialization_and_destruction_0ii
}
{
   <insert_a_suppression_name_here>
   Memcheck:Leak
   fun:_Znwm
   fun:_ZN3ns36CreateINS_19FunctorCallbackImplIPFPNS_10ObjectBaseEvES3_NS_5emptyES6_S6_S6_S6_S6_S6_S6_S6_EES5_EENS_3PtrIT_EET0_
   fun:_ZN3ns38CallbackIPNS_10ObjectBaseENS_5emptyES3_S3_S3_S3_S3_S3_S3_S3_EC1IPFS2_vEEERKT_bb
   fun:_ZN3ns312MakeCallbackIPNS_10ObjectBaseEEENS_8CallbackIT_NS_5emptyES5_S5_S5_S5_S5_S5_S5_S5_EEPFS4_vE
   fun:_ZN3ns36TypeId14AddConstructorINS_25PointToPointRemoteChannelEEES0_v
   fun:_ZN3ns325PointToPointRemoteChannel9GetTypeIdEv
   fun:_ZN3ns343XPointToPointRemoteChannelRegistrationClassC1Ev
   fun:_Z41__static_initialization_and_destruction_0ii
   fun:_GLOBAL__I_point_to_point_remote_channel.cc
   obj:/home/tazaki/hgworks/ns-3-dce-thehajime/build/lib/libns3-dev-point-to-point-debug.so
   obj:/home/tazaki/hgworks/ns-3-dce-thehajime/build/lib/libns3-dev-point-to-point-debug.so
   fun:vdl_list_iterate
}
{
   <insert_a_suppression_name_here>
   Memcheck:Leak
   fun:_Znwm
   fun:_ZN3ns325DoMakeTraceSourceAccessorINS_21PointToPointNetDeviceENS_14TracedCallbackINS_3PtrIKNS_6PacketEEENS_5emptyES7_S7_S7_S7_S7_S7_EEEENS3_IKNS_19TraceSourceAccessorEEEMT_T0_
   fun:_ZN3ns323MakeTraceSourceAccessorIMNS_21PointToPointNetDeviceENS_14TracedCallbackINS_3PtrIKNS_6PacketEEENS_5emptyES7_S7_S7_S7_S7_S7_EEEENS3_IKNS_19TraceSourceAccessorEEET_
   fun:_ZN3ns321PointToPointNetDevice9GetTypeIdEv
   fun:_ZN3ns339XPointToPointNetDeviceRegistrationClassC1Ev
   fun:_Z41__static_initialization_and_destruction_0ii
   fun:_GLOBAL__I_point_to_point_net_device.cc
   obj:/home/tazaki/hgworks/ns-3-dce-thehajime/build/lib/libns3-dev-point-to-point-debug.so
   obj:/home/tazaki/hgworks/ns-3-dce-thehajime/build/lib/libns3-dev-point-to-point-debug.so
   fun:vdl_list_iterate
   fun:vdl_init_call
   fun:dlopen_with_context
}
{
   <insert_a_suppression_name_here>
   Memcheck:Leak
   fun:_Znwm
   fun:_ZN3ns323DoMakeAccessorHelperOneINS_12PointerValueENS_21PointToPointNetDeviceENS_3PtrINS_5QueueEEEEENS3_IKNS_17AttributeAccessorEEEMT0_T1_
   fun:_ZN3ns318MakeAccessorHelperINS_12PointerValueEMNS_21PointToPointNetDeviceENS_3PtrINS_5QueueEEEEENS3_IKNS_17AttributeAccessorEEET0_
   fun:_ZN3ns319MakePointerAccessorIMNS_21PointToPointNetDeviceENS_3PtrINS_5QueueEEEEENS2_IKNS_17AttributeAccessorEEET_
   fun:_ZN3ns321PointToPointNetDevice9GetTypeIdEv
   fun:_ZN3ns339XPointToPointNetDeviceRegistrationClassC1Ev
   fun:_Z41__static_initialization_and_destruction_0ii
   fun:_GLOBAL__I_point_to_point_net_device.cc
   obj:/home/tazaki/hgworks/ns-3-dce-thehajime/build/lib/libns3-dev-point-to-point-debug.so
   obj:/home/tazaki/hgworks/ns-3-dce-thehajime/build/lib/libns3-dev-point-to-point-debug.so
   fun:vdl_list_iterate
   fun:vdl_init_call
}
{
   <insert_a_suppression_name_here>
   Memcheck:Leak
   fun:_Znwm
   fun:_ZN3ns323DoMakeAccessorHelperOneINS_9TimeValueENS_21PointToPointNetDeviceENS_4TimeEEENS_3PtrIKNS_17AttributeAccessorEEEMT0_T1_
   fun:_ZN3ns318MakeAccessorHelperINS_9TimeValueEMNS_21PointToPointNetDeviceENS_4TimeEEENS_3PtrIKNS_17AttributeAccessorEEET0_
   fun:_ZN3ns316MakeTimeAccessorIMNS_21PointToPointNetDeviceENS_4TimeEEENS_3PtrIKNS_17AttributeAccessorEEET_
   fun:_ZN3ns321PointToPointNetDevice9GetTypeIdEv
   fun:_ZN3ns339XPointToPointNetDeviceRegistrationClassC1Ev
   fun:_Z41__static_initialization_and_destruction_0ii
   fun:_GLOBAL__I_point_to_point_net_device.cc
   obj:/home/tazaki/hgworks/ns-3-dce-thehajime/build/lib/libns3-dev-point-to-point-debug.so
   obj:/home/tazaki/hgworks/ns-3-dce-thehajime/build/lib/libns3-dev-point-to-point-debug.so
   fun:vdl_list_iterate
   fun:vdl_init_call
}
{
   <insert_a_suppression_name_here>
   Memcheck:Leak
   fun:_Znwm
   fun:_ZN3ns323DoMakeAccessorHelperOneINS_12PointerValueENS_21PointToPointNetDeviceENS_3PtrINS_10ErrorModelEEEEENS3_IKNS_17AttributeAccessorEEEMT0_T1_
   fun:_ZN3ns318MakeAccessorHelperINS_12PointerValueEMNS_21PointToPointNetDeviceENS_3PtrINS_10ErrorModelEEEEENS3_IKNS_17AttributeAccessorEEET0_
   fun:_ZN3ns319MakePointerAccessorIMNS_21PointToPointNetDeviceENS_3PtrINS_10ErrorModelEEEEENS2_IKNS_17AttributeAccessorEEET_
   fun:_ZN3ns321PointToPointNetDevice9GetTypeIdEv
   fun:_ZN3ns339XPointToPointNetDeviceRegistrationClassC1Ev
   fun:_Z41__static_initialization_and_destruction_0ii
   fun:_GLOBAL__I_point_to_point_net_device.cc
   obj:/home/tazaki/hgworks/ns-3-dce-thehajime/build/lib/libns3-dev-point-to-point-debug.so
   obj:/home/tazaki/hgworks/ns-3-dce-thehajime/build/lib/libns3-dev-point-to-point-debug.so
   fun:vdl_list_iterate
   fun:vdl_init_call
}
{
   <insert_a_suppression_name_here>
   Memcheck:Leak
   fun:_Znwm
   fun:_ZN3ns323DoMakeAccessorHelperOneINS_13DataRateValueENS_21PointToPointNetDeviceENS_8DataRateEEENS_3PtrIKNS_17AttributeAccessorEEEMT0_T1_
   fun:_ZN3ns318MakeAccessorHelperINS_13DataRateValueEMNS_21PointToPointNetDeviceENS_8DataRateEEENS_3PtrIKNS_17AttributeAccessorEEET0_
   fun:_ZN3ns320MakeDataRateAccessorIMNS_21PointToPointNetDeviceENS_8DataRateEEENS_3PtrIKNS_17AttributeAccessorEEET_
   fun:_ZN3ns321PointToPointNetDevice9GetTypeIdEv
   fun:_ZN3ns339XPointToPointNetDeviceRegistrationClassC1Ev
   fun:_Z41__static_initialization_and_destruction_0ii
   fun:_GLOBAL__I_point_to_point_net_device.cc
   obj:/home/tazaki/hgworks/ns-3-dce-thehajime/build/lib/libns3-dev-point-to-point-debug.so
   obj:/home/tazaki/hgworks/ns-3-dce-thehajime/build/lib/libns3-dev-point-to-point-debug.so
   fun:vdl_list_iterate
   fun:vdl_init_call
}
{
   <insert_a_suppression_name_here>
   Memcheck:Leak
   fun:_Znwm
   fun:_ZN3ns323DoMakeAccessorHelperOneINS_17Mac48AddressValueENS_21PointToPointNetDeviceENS_12Mac48AddressEEENS_3PtrIKNS_17AttributeAccessorEEEMT0_T1_
   fun:_ZN3ns318MakeAccessorHelperINS_17Mac48AddressValueEMNS_21PointToPointNetDeviceENS_12Mac48AddressEEENS_3PtrIKNS_17AttributeAccessorEEET0_
   fun:_ZN3ns324MakeMac48AddressAccessorIMNS_21PointToPointNetDeviceENS_12Mac48AddressEEENS_3PtrIKNS_17AttributeAccessorEEET_
   fun:_ZN3ns321PointToPointNetDevice9GetTypeIdEv
   fun:_ZN3ns339XPointToPointNetDeviceRegistrationClassC1Ev
   fun:_Z41__static_initialization_and_destruction_0ii
   fun:_GLOBAL__I_point_to_point_net_device.cc
   obj:/home/tazaki/hgworks/ns-3-dce-thehajime/build/lib/libns3-dev-point-to-point-debug.so
   obj:/home/tazaki/hgworks/ns-3-dce-thehajime/build/lib/libns3-dev-point-to-point-debug.so
   fun:vdl_list_iterate
   fun:vdl_init_call
}
{
   <insert_a_suppression_name_here>
   Memcheck:Leak
   fun:_Znwm
   fun:_ZN3ns36CreateINS_19FunctorCallbackImplIPFPNS_10ObjectBaseEvES3_NS_5emptyES6_S6_S6_S6_S6_S6_S6_S6_EES5_EENS_3PtrIT_EET0_
   fun:_ZN3ns38CallbackIPNS_10ObjectBaseENS_5emptyES3_S3_S3_S3_S3_S3_S3_S3_EC1IPFS2_vEEERKT_bb
   fun:_ZN3ns312MakeCallbackIPNS_10ObjectBaseEEENS_8CallbackIT_NS_5emptyES5_S5_S5_S5_S5_S5_S5_S5_EEPFS4_vE
   fun:_ZN3ns36TypeId14AddConstructorINS_21PointToPointNetDeviceEEES0_v
   fun:_ZN3ns321PointToPointNetDevice9GetTypeIdEv
   fun:_ZN3ns339XPointToPointNetDeviceRegistrationClassC1Ev
   fun:_Z41__static_initialization_and_destruction_0ii
   fun:_GLOBAL__I_point_to_point_net_device.cc
   obj:/home/tazaki/hgworks/ns-3-dce-thehajime/build/lib/libns3-dev-point-to-point-debug.so
   obj:/home/tazaki/hgworks/ns-3-dce-thehajime/build/lib/libns3-dev-point-to-point-debug.so
   fun:vdl_list_iterate
}
{
   <insert_a_suppression_name_here>
   Memcheck:Leak
   fun:_Znwm
   fun:_ZN3ns36CreateINS_13UintegerValueES1_EENS_3PtrIT_EET0_
   fun:_ZNK3ns313UintegerValue4CopyEv
   fun:_ZN3ns36TypeId12AddAttributeESsSsRKNS_14AttributeValueENS_3PtrIKNS_17AttributeAccessorEEENS4_IKNS_16AttributeCheckerEEE
   fun:_ZN3ns321PointToPointNetDevice9GetTypeIdEv
   fun:_ZN3ns339XPointToPointNetDeviceRegistrationClassC1Ev
   fun:_Z41__static_initialization_and_destruction_0ii
   fun:_GLOBAL__I_point_to_point_net_device.cc
   obj:/home/tazaki/hgworks/ns-3-dce-thehajime/build/lib/libns3-dev-point-to-point-debug.so
   obj:/home/tazaki/hgworks/ns-3-dce-thehajime/build/lib/libns3-dev-point-to-point-debug.so
   fun:vdl_list_iterate
   fun:vdl_init_call
}
{
   <insert_a_suppression_name_here>
   Memcheck:Leak
   fun:_Znwm
   fun:_ZN3ns36CreateINS_17Mac48AddressValueES1_EENS_3PtrIT_EET0_
   fun:_ZNK3ns317Mac48AddressValue4CopyEv
   fun:_ZN3ns36TypeId12AddAttributeESsSsRKNS_14AttributeValueENS_3PtrIKNS_17AttributeAccessorEEENS4_IKNS_16AttributeCheckerEEE
   fun:_ZN3ns321PointToPointNetDevice9GetTypeIdEv
   fun:_ZN3ns339XPointToPointNetDeviceRegistrationClassC1Ev
   fun:_Z41__static_initialization_and_destruction_0ii
   fun:_GLOBAL__I_point_to_point_net_device.cc
   obj:/home/tazaki/hgworks/ns-3-dce-thehajime/build/lib/libns3-dev-point-to-point-debug.so
   obj:/home/tazaki/hgworks/ns-3-dce-thehajime/build/lib/libns3-dev-point-to-point-debug.so
   fun:vdl_list_iterate
   fun:vdl_init_call
}
{
   <insert_a_suppression_name_here>
   Memcheck:Leak
   fun:_Znwm
   fun:_ZN3ns36CreateINS_13DataRateValueES1_EENS_3PtrIT_EET0_
   fun:_ZNK3ns313DataRateValue4CopyEv
   fun:_ZN3ns36TypeId12AddAttributeESsSsRKNS_14AttributeValueENS_3PtrIKNS_17AttributeAccessorEEENS4_IKNS_16AttributeCheckerEEE
   fun:_ZN3ns321PointToPointNetDevice9GetTypeIdEv
   fun:_ZN3ns339XPointToPointNetDeviceRegistrationClassC1Ev
   fun:_Z41__static_initialization_and_destruction_0ii
   fun:_GLOBAL__I_point_to_point_net_device.cc
   obj:/home/tazaki/hgworks/ns-3-dce-thehajime/build/lib/libns3-dev-point-to-point-debug.so
   obj:/home/tazaki/hgworks/ns-3-dce-thehajime/build/lib/libns3-dev-point-to-point-debug.so
   fun:vdl_list_iterate
   fun:vdl_init_call
}
{
   <insert_a_suppression_name_here>
   Memcheck:Leak
   fun:_Znwm
   fun:_ZN3ns36CreateINS_12PointerValueES1_EENS_3PtrIT_EET0_
   fun:_ZNK3ns312PointerValue4CopyEv
   fun:_ZN3ns36TypeId12AddAttributeESsSsRKNS_14AttributeValueENS_3PtrIKNS_17AttributeAccessorEEENS4_IKNS_16AttributeCheckerEEE
   fun:_ZN3ns321PointToPointNetDevice9GetTypeIdEv
   fun:_ZN3ns339XPointToPointNetDeviceRegistrationClassC1Ev
   fun:_Z41__static_initialization_and_destruction_0ii
   fun:_GLOBAL__I_point_to_point_net_device.cc
   obj:/home/tazaki/hgworks/ns-3-dce-thehajime/build/lib/libns3-dev-point-to-point-debug.so
   obj:/home/tazaki/hgworks/ns-3-dce-thehajime/build/lib/libns3-dev-point-to-point-debug.so
   fun:vdl_list_iterate
   fun:vdl_init_call
}
{
   <insert_a_suppression_name_here>
   Memcheck:Leak
   fun:_Znwm
   fun:_ZN3ns36CreateINS_9TimeValueES1_EENS_3PtrIT_EET0_
   fun:_ZNK3ns39TimeValue4CopyEv
   fun:_ZN3ns36TypeId12AddAttributeESsSsRKNS_14AttributeValueENS_3PtrIKNS_17AttributeAccessorEEENS4_IKNS_16AttributeCheckerEEE
   fun:_ZN3ns321PointToPointNetDevice9GetTypeIdEv
   fun:_ZN3ns339XPointToPointNetDeviceRegistrationClassC1Ev
   fun:_Z41__static_initialization_and_destruction_0ii
   fun:_GLOBAL__I_point_to_point_net_device.cc
   obj:/home/tazaki/hgworks/ns-3-dce-thehajime/build/lib/libns3-dev-point-to-point-debug.so
   obj:/home/tazaki/hgworks/ns-3-dce-thehajime/build/lib/libns3-dev-point-to-point-debug.so
   fun:vdl_list_iterate
   fun:vdl_init_call
}
{
   <insert_a_suppression_name_here>
   Memcheck:Leak
   fun:_Znwm
   fun:_ZN9__gnu_cxx13new_allocatorISt10_List_nodeIPN3ns311CommandLine4ItemEEE8allocateEmPKv
   fun:_ZNSt10_List_baseIPN3ns311CommandLine4ItemESaIS3_EE11_M_get_nodeEv
   fun:_ZNSt4listIPN3ns311CommandLine4ItemESaIS3_EE14_M_create_nodeERKS3_
   fun:_ZNSt4listIPN3ns311CommandLine4ItemESaIS3_EE9_M_insertESt14_List_iteratorIS3_ERKS3_
   fun:_ZNSt4listIPN3ns311CommandLine4ItemESaIS3_EE9push_backERKS3_
   fun:_ZN3ns311CommandLine8AddValueIjEEvRKSsS3_RT_
   fun:main
}
{
   <insert_a_suppression_name_here>
   Memcheck:Leak
   fun:_Znwm
   fun:_ZN9__gnu_cxx13new_allocatorISt10_List_nodeIPN3ns311CommandLine4ItemEEE8allocateEmPKv
   fun:_ZNSt10_List_baseIPN3ns311CommandLine4ItemESaIS3_EE11_M_get_nodeEv
   fun:_ZNSt4listIPN3ns311CommandLine4ItemESaIS3_EE14_M_create_nodeERKS3_
   fun:_ZNSt4listIPN3ns311CommandLine4ItemESaIS3_EE9_M_insertESt14_List_iteratorIS3_ERKS3_
   fun:_ZNSt4listIPN3ns311CommandLine4ItemESaIS3_EE9push_backERKS3_
   fun:_ZN3ns311CommandLine8AddValueISsEEvRKSsS3_RT_
   fun:main
}
{
   <insert_a_suppression_name_here>
   Memcheck:Leak
   fun:_Znwm
   fun:_ZN3ns39MakeEventEPFvvE
   fun:_ZN3ns39Simulator15ScheduleDestroyEPFvvE
   fun:_ZN3ns312NodeListPriv5DoGetEv
   fun:_ZN3ns312NodeListPriv3GetEv
   fun:_ZN3ns38NodeList3AddENS_3PtrINS_4NodeEEE
   fun:_ZN3ns34Node9ConstructEv
   fun:_ZN3ns34NodeC1Ev
   fun:_ZN3ns312CreateObjectINS_4NodeEEENS_3PtrIT_EEv
   fun:_ZN3ns313NodeContainer6CreateEj
   fun:main
}
{
   <insert_a_suppression_name_here>
   Memcheck:Leak
   fun:_Znwm
   fun:_ZN3ns36CreateINS_11StringValueES1_EENS_3PtrIT_EET0_
   fun:_ZNK3ns311StringValue4CopyEv
   fun:_ZN3ns313ObjectFactory3SetESsRKNS_14AttributeValueE
   fun:_ZN3ns318PointToPointHelper18SetDeviceAttributeESsRKNS_14AttributeValueE
   fun:main
}
{
   <insert_a_suppression_name_here>
   Memcheck:Leak
   fun:_Znwm
   fun:_ZN3ns36CreateINS_11StringValueES1_EENS_3PtrIT_EET0_
   fun:_ZNK3ns311StringValue4CopyEv
   fun:_ZN3ns313ObjectFactory3SetESsRKNS_14AttributeValueE
   fun:_ZN3ns318PointToPointHelper19SetChannelAttributeESsRKNS_14AttributeValueE
   fun:main
}
{
   <insert_a_suppression_name_here>
   Memcheck:Leak
   fun:_Znwm
   fun:_ZN3ns39MakeEventEPFvvE
   fun:_ZN3ns39Simulator15ScheduleDestroyEPFvvE
   fun:_ZN3ns315ChannelListPriv5DoGetEv
   fun:_ZN3ns315ChannelListPriv3GetEv
   fun:_ZN3ns311ChannelList3AddENS_3PtrINS_7ChannelEEE
   fun:_ZN3ns37ChannelC2Ev
   fun:_ZN3ns319PointToPointChannelC1Ev
   fun:_ZZN3ns36TypeId14AddConstructorINS_19PointToPointChannelEEES0_vEN5Maker6CreateEv
   fun:_ZN3ns319FunctorCallbackImplIPFPNS_10ObjectBaseEvES2_NS_5emptyES5_S5_S5_S5_S5_S5_S5_S5_EclEv
   fun:_ZNK3ns38CallbackIPNS_10ObjectBaseENS_5emptyES3_S3_S3_S3_S3_S3_S3_S3_EclEv
   fun:_ZNK3ns313ObjectFactory6CreateEv
}
{
   <insert_a_suppression_name_here>
   Memcheck:Leak
   fun:_Znwm
   fun:_ZN3ns36CreateINS_19FunctorCallbackImplIPFPNS_10ObjectBaseEvES3_NS_5emptyES6_S6_S6_S6_S6_S6_S6_S6_EES5_EENS_3PtrIT_EET0_
   fun:_ZN3ns38CallbackIPNS_10ObjectBaseENS_5emptyES3_S3_S3_S3_S3_S3_S3_S3_EC1IPFS2_vEEERKT_bb
   fun:_ZN3ns312MakeCallbackIPNS_10ObjectBaseEEENS_8CallbackIT_NS_5emptyES5_S5_S5_S5_S5_S5_S5_S5_EEPFS4_vE
   fun:_ZN3ns36TypeId14AddConstructorINS_9BgpConfigEEES0_v
   fun:_ZN3ns39BgpConfig9GetTypeIdEv
   fun:_ZNK3ns36Object9GetObjectINS_9BgpConfigEEENS_3PtrIT_EEv
   fun:_ZN3ns312QuaggaHelper9EnableBgpENS_13NodeContainerE
   fun:main
}
{
   <insert_a_suppression_name_here>
   Memcheck:Leak
   fun:_Znwm
   fun:_ZN3ns36CreateINS_19FunctorCallbackImplIPFPNS_10ObjectBaseEvES3_NS_5emptyES6_S6_S6_S6_S6_S6_S6_S6_EES5_EENS_3PtrIT_EET0_
   fun:_ZN3ns38CallbackIPNS_10ObjectBaseENS_5emptyES3_S3_S3_S3_S3_S3_S3_S3_EC1IPFS2_vEEERKT_bb
   fun:_ZN3ns312MakeCallbackIPNS_10ObjectBaseEEENS_8CallbackIT_NS_5emptyES5_S5_S5_S5_S5_S5_S5_S5_EEPFS4_vE
   fun:_ZN3ns36TypeId14AddConstructorINS_12QuaggaConfigEEES0_v
   fun:_ZN3ns312QuaggaConfig9GetTypeIdEv
   fun:_ZNK3ns36Object9GetObjectINS_12QuaggaConfigEEENS_3PtrIT_EEv
   fun:_ZN3ns312QuaggaHelper11InstallPrivENS_3PtrINS_4NodeEEE
   fun:_ZN3ns312QuaggaHelper7InstallENS_13NodeContainerE
   fun:main
}
{
   <insert_a_suppression_name_here>
   Memcheck:Leak
   fun:_Znwm
   fun:_ZN3ns39MakeEventEPFvvE
   fun:_ZN3ns39Simulator8ScheduleERKNS_4TimeEPFvvE
   fun:_ZN3ns320DefaultSimulatorImpl4StopERKNS_4TimeE
   fun:_ZN3ns39Simulator4StopERKNS_4TimeE
   fun:main
}
{
   <insert_a_suppression_name_here>
   Memcheck:Leak
   fun:_Znwm
   fun:dce_socket
   fun:socket
   fun:netlink_socket
   fun:kernel_init
   fun:main
}
{
   <insert_a_suppression_name_here>
   Memcheck:Leak
   fun:_Znwm
   fun:_ZN3ns310DceManager21PrepareDoStartProcessEPNS_6ThreadE
   fun:_ZN3ns310DceManager14DoStartProcessEPv
   fun:_ZN3ns311TaskManager10TrampolineEPv
   fun:_ZN3ns320UcontextFiberManager10TrampolineEiiii
   obj:/lib/libc-2.11.1.so
   obj:*
   obj:*
   obj:*
   fun:_ZN3ns315RrTaskScheduler11DequeueNextEv
   obj:*
   obj:*
}
{
   <insert_a_suppression_name_here>
   Memcheck:Leak
   fun:_Znwm
   fun:dce_open
   fun:dce_creat
   fun:_ZN3ns310DceManager13CreatePidFileEPNS_6ThreadESs
   fun:_ZN3ns310DceManager21PrepareDoStartProcessEPNS_6ThreadE
   fun:_ZN3ns310DceManager14DoStartProcessEPv
   fun:_ZN3ns311TaskManager10TrampolineEPv
   fun:_ZN3ns320UcontextFiberManager10TrampolineEiiii
   obj:/lib/libc-2.11.1.so
   obj:*
   obj:*
   obj:*
}
{
   <insert_a_suppression_name_here>
   Memcheck:Leak
   fun:_Znwm
   fun:_ZN9__gnu_cxx13new_allocatorISt10_List_nodeImEE8allocateEmPKv
   fun:_ZNSt10_List_baseImSaImEE11_M_get_nodeEv
   fun:_ZNSt4listImSaImEE14_M_create_nodeERKm
   fun:_ZNSt4listImSaImEE9_M_insertESt14_List_iteratorImERKm
   fun:_ZNSt4listImSaImEE9push_backERKm
   fun:_ZN3ns320UcontextFiberManager13AllocateStackEj
   fun:_ZN3ns320UcontextFiberManager6CreateEPFvPvES1_j
   fun:_ZN3ns311TaskManager5StartEPFvPvES1_j
   fun:_ZN3ns320LinuxSocketFdFactory9TaskStartEP9SimKernelPFvPvES3_
   fun:sim_task_start
   fun:ensure_task_created
}
{
   <insert_a_suppression_name_here>
   Memcheck:Leak
   fun:_Znwm
   fun:_ZN9__gnu_cxx13new_allocatorISt10_List_nodeIPN3ns34TaskEEE8allocateEmPKv
   fun:_ZNSt10_List_baseIPN3ns34TaskESaIS2_EE11_M_get_nodeEv
   fun:_ZNSt4listIPN3ns34TaskESaIS2_EE14_M_create_nodeERKS2_
   fun:_ZNSt4listIPN3ns34TaskESaIS2_EE9_M_insertESt14_List_iteratorIS2_ERKS2_
   fun:_ZNSt4listIPN3ns34TaskESaIS2_EE9push_backERKS2_
   fun:_ZN3ns320LinuxSocketFdFactory9TaskStartEP9SimKernelPFvPvES3_
   fun:sim_task_start
   fun:ensure_task_created
   fun:open_softirq
   obj:/home/tazaki/hgworks/ns-3-dce-thehajime/net-next-sim/libsim-linux2.6.36.so
   fun:sim_init
}
{
   <insert_a_suppression_name_here>
   Memcheck:Leak
   fun:_Znwm
   fun:dce_open
   fun:dce_fopen
   fun:_Z11dce_openlogPKcii
   fun:openlog
   fun:openzlog
   fun:main
}
{
   <insert_a_suppression_name_here>
   Memcheck:Leak
   fun:calloc
   fun:zcalloc
   fun:listnode_new
   fun:listnode_add
   fun:work_queue_new
   fun:rib_queue_init
   fun:rib_init
   fun:main
}
{
   <insert_a_suppression_name_here>
   Memcheck:Leak
   fun:_Znwm
   fun:dce_socket
   fun:socket
   fun:rtadv_make_socket
   fun:rtadv_init
   fun:main
}
{
   <insert_a_suppression_name_here>
   Memcheck:Leak
   fun:calloc
   fun:zcalloc
   fun:listnode_new
   fun:listnode_add_sort
   fun:router_id_add_address
   fun:zebra_interface_address_add_update
   fun:connected_announce
   fun:connected_add_ipv4
   fun:netlink_interface_addr
   fun:netlink_parse_info
   fun:interface_lookup_netlink
   fun:interface_list
}
{
   <insert_a_suppression_name_here>
   Memcheck:Leak
   fun:_Znwm
   fun:dce_open
   fun:open
   fun:pid_output
   fun:main
}
{
   <insert_a_suppression_name_here>
   Memcheck:Leak
   fun:_Znwm
   fun:dce_socket
   fun:socket
   fun:zebra_serv_un
   fun:zebra_zserv_socket_init
   fun:main
}
{
   <insert_a_suppression_name_here>
   Memcheck:Leak
   fun:_Znwm
   fun:dce_socket
   fun:socket
   fun:vty_serv_sock_addrinfo
   fun:vty_serv_sock
   fun:main
}
{
   <insert_a_suppression_name_here>
   Memcheck:Leak
   fun:_Znwm
   fun:_ZN13KingsleyAlloc9MmapAllocEj
   fun:_ZN13KingsleyAlloc3BrkEj
   fun:_ZN13KingsleyAlloc6MallocEj
   fun:_ZN3ns320LinuxSocketFdFactory6MallocEP9SimKernelm
   fun:sim_malloc
   fun:sim_sock_poll
   fun:sim_sock_poll_forwarder
   fun:_ZN3ns320LinuxSocketFdFactory4PollEP9SimSocketPNS_9PollTableE
   fun:_ZN3ns313LinuxSocketFd4PollEPNS_9PollTableE
   fun:dce_poll
   fun:dce_select
}
{
   <insert_a_suppression_name_here>
   Memcheck:Leak
   fun:_Znwm
   fun:_ZN9__gnu_cxx13new_allocatorISt10_List_nodeIPN3ns34TaskEEE8allocateEmPKv
   fun:_ZNSt10_List_baseIPN3ns34TaskESaIS2_EE11_M_get_nodeEv
   fun:_ZNSt4listIPN3ns34TaskESaIS2_EE14_M_create_nodeERKS2_
   fun:_ZNSt4listIPN3ns34TaskESaIS2_EE9_M_insertESt14_List_iteratorIS2_ERKS2_
   fun:_ZNSt4listIPN3ns34TaskESaIS2_EE9push_backERKS2_
   fun:_ZN3ns315RrTaskScheduler7EnqueueEPNS_4TaskE
   fun:_ZN3ns311TaskManager6WakeupEPNS_4TaskE
   fun:_ZN3ns320LinuxSocketFdFactory10TaskWakeupEP9SimKernelP7SimTask
   fun:sim_task_wakeup
   fun:sim_softirq_wakeup
   fun:sim_sock_poll_forwarder
}
{
   <insert_a_suppression_name_here>
   Memcheck:Leak
   fun:malloc
   fun:zmalloc
   fun:hash_get
   fun:thread_call
   fun:main
}
{
   <insert_a_suppression_name_here>
   Memcheck:Leak
   fun:calloc
   fun:zcalloc
   fun:buffer_new
   fun:zclient_new
   fun:bgp_zebra_init
   fun:bgp_init
   fun:main
}
{
   <insert_a_suppression_name_here>
   Memcheck:Leak
   fun:calloc
   fun:zcalloc
   fun:buffer_new
   fun:zclient_new
   fun:bgp_scan_init
   fun:bgp_init
   fun:main
}
{
   <insert_a_suppression_name_here>
   Memcheck:Leak
   fun:calloc
   fun:zcalloc
   fun:stream_fifo_new
   fun:peer_new
   fun:bgp_create
   fun:bgp_get
   fun:router_bgp
   fun:cmd_execute_command_strict
   fun:config_from_file
   fun:vty_read_file
   fun:vty_read_config
   fun:main
}
{
   <insert_a_suppression_name_here>
   Memcheck:Leak
   fun:calloc
   fun:zcalloc
   fun:listnode_new
   fun:listnode_add
   fun:bgp_get
   fun:router_bgp
   fun:cmd_execute_command_strict
   fun:config_from_file
   fun:vty_read_file
   fun:vty_read_config
   fun:main
}
{
   <insert_a_suppression_name_here>
   Memcheck:Leak
   fun:calloc
   fun:zcalloc
   fun:stream_fifo_new
   fun:peer_new
   fun:peer_create
   fun:peer_remote_as
   fun:peer_remote_as_vty
   fun:neighbor_remote_as
   fun:cmd_execute_command_strict
   fun:config_from_file
   fun:vty_read_file
   fun:vty_read_config
}
{
   <insert_a_suppression_name_here>
   Memcheck:Leak
   fun:calloc
   fun:zcalloc
   fun:listnode_new
   fun:listnode_add_sort
   fun:peer_create
   fun:peer_remote_as
   fun:peer_remote_as_vty
   fun:neighbor_remote_as
   fun:cmd_execute_command_strict
   fun:config_from_file
   fun:vty_read_file
   fun:vty_read_config
}
{
   <insert_a_suppression_name_here>
   Memcheck:Leak
   fun:_Znwm
   fun:dce_socket
   fun:socket
   fun:zclient_socket_un
   fun:zclient_start
   fun:zclient_connect
   fun:thread_call
   fun:main
}
{
   <insert_a_suppression_name_here>
   Memcheck:Leak
   fun:_Znwm
   fun:_ZN3ns319LocalStreamSocketFd6AcceptEP8sockaddrPj
   fun:dce_accept
   fun:accept
   fun:zebra_accept
   fun:thread_call
   fun:main
}
{
   <insert_a_suppression_name_here>
   Memcheck:Leak
   fun:calloc
   fun:zcalloc
   fun:buffer_new
   fun:zebra_client_create
   fun:zebra_accept
   fun:thread_call
   fun:main
}
{
   <insert_a_suppression_name_here>
   Memcheck:Leak
   fun:_Znwm
   fun:dce_socket
   fun:socket
   fun:zclient_socket_un
   fun:zlookup_connect
   fun:thread_call
   fun:main
}
{
   <insert_a_suppression_name_here>
   Memcheck:Leak
   fun:calloc
   fun:zcalloc
   fun:aspath_dup
   fun:aspath_hash_alloc
   fun:hash_get
   fun:aspath_parse
   fun:aspath_empty
   fun:bgp_attr_default_set
   fun:bgp_redistribute_add
   fun:zebra_read_ipv4
   fun:zclient_read
   fun:thread_call
}
{
   <insert_a_suppression_name_here>
   Memcheck:Leak
   fun:malloc
   fun:zmalloc
   fun:hash_get
   fun:aspath_parse
   fun:aspath_empty
   fun:bgp_attr_default_set
   fun:bgp_redistribute_add
   fun:zebra_read_ipv4
   fun:zclient_read
   fun:thread_call
   fun:main
}
{
   <insert_a_suppression_name_here>
   Memcheck:Leak
   fun:calloc
   fun:zcalloc
   fun:listnode_new
   fun:listnode_add
   fun:work_queue_new
   fun:bgp_process_queue_init
   fun:bgp_process
   fun:bgp_redistribute_add
   fun:zebra_read_ipv4
   fun:zclient_read
   fun:thread_call
   fun:main
}
{
   <insert_a_suppression_name_here>
   Memcheck:Leak
   fun:_Znwm
   fun:_ZN3ns39PollTable8PollWaitEPNS_6UnixFdE
   fun:_ZN3ns319LocalStreamSocketFd4PollEPNS_9PollTableE
   fun:dce_poll
   fun:dce_select
   fun:select
   fun:thread_fetch
   fun:main
}
{
   <insert_a_suppression_name_here>
   Memcheck:Leak
   fun:_Znwm
   fun:_ZN9__gnu_cxx13new_allocatorISt10_List_nodeIPN3ns314PollTableEntryEEE8allocateEmPKv
   fun:_ZNSt10_List_baseIPN3ns314PollTableEntryESaIS2_EE11_M_get_nodeEv
   fun:_ZNSt4listIPN3ns314PollTableEntryESaIS2_EE14_M_create_nodeERKS2_
   fun:_ZNSt4listIPN3ns314PollTableEntryESaIS2_EE9_M_insertESt14_List_iteratorIS2_ERKS2_
   fun:_ZNSt4listIPN3ns314PollTableEntryESaIS2_EE9push_backERKS2_
   fun:_ZN3ns39PollTable8PollWaitEPNS_6UnixFdE
   fun:_ZN3ns319LocalStreamSocketFd4PollEPNS_9PollTableE
   fun:dce_poll
   fun:dce_select
   fun:select
   fun:thread_fetch
}
{
   <insert_a_suppression_name_here>
   Memcheck:Leak
   fun:_Znwm
   fun:_ZN9__gnu_cxx13new_allocatorISt10_List_nodeIPN3ns314WaitQueueEntryEEE8allocateEmPKv
   fun:_ZNSt10_List_baseIPN3ns314WaitQueueEntryESaIS2_EE11_M_get_nodeEv
   fun:_ZNSt4listIPN3ns314WaitQueueEntryESaIS2_EE14_M_create_nodeERKS2_
   fun:_ZNSt4listIPN3ns314WaitQueueEntryESaIS2_EE9_M_insertESt14_List_iteratorIS2_ERKS2_
   fun:_ZNSt4listIPN3ns314WaitQueueEntryESaIS2_EE9push_backERKS2_
   fun:_ZN3ns36UnixFd12AddWaitQueueEPNS_14WaitQueueEntryEb
   fun:_ZN3ns39PollTable8PollWaitEPNS_6UnixFdE
   fun:_ZN3ns319LocalStreamSocketFd4PollEPNS_9PollTableE
   fun:dce_poll
   fun:dce_select
   fun:select
}
{
   <insert_a_suppression_name_here>
   Memcheck:Leak
   fun:_Znwm
   fun:dce_socket
   fun:socket
   fun:sockunion_socket
   fun:bgp_connect
   fun:bgp_start
   fun:bgp_event
   fun:bgp_start_timer
   fun:thread_call
   fun:main
}
{
   <insert_a_suppression_name_here>
   Memcheck:Leak
   fun:_Znwm
   fun:_ZN3ns320LinuxSocketFdFactory6AcceptEP9SimSocketP8sockaddrPj
   fun:_ZN3ns313LinuxSocketFd6AcceptEP8sockaddrPj
   fun:dce_accept
   fun:accept
   fun:sockunion_accept
   fun:bgp_accept
   fun:thread_call
   fun:main
}
{
   <insert_a_suppression_name_here>
   Memcheck:Leak
   fun:malloc
   fun:zmalloc
   fun:hash_get
   fun:bgp_attr_intern
   fun:bgp_advertise_intern
   fun:bgp_adj_out_set
   fun:bgp_announce_table
   fun:bgp_announce_route
   fun:bgp_announce_route_all
   fun:bgp_establish
   fun:bgp_event
   fun:thread_call
}
{
   <insert_a_suppression_name_here>
   Memcheck:Leak
   fun:calloc
   fun:zcalloc
   fun:aspath_dup
   fun:aspath_hash_alloc
   fun:hash_get
   fun:aspath_parse
   fun:bgp_attr_aspath
   fun:bgp_attr_parse
   fun:bgp_update_receive
   fun:bgp_read
   fun:thread_call
   fun:main
}
{
   <insert_a_suppression_name_here>
   Memcheck:Leak
   fun:calloc
   fun:zcalloc
   fun:assegment_new
   fun:assegment_dup
   fun:assegment_dup_all
   fun:aspath_dup
   fun:aspath_hash_alloc
   fun:hash_get
   fun:aspath_parse
   fun:bgp_attr_aspath
   fun:bgp_attr_parse
   fun:bgp_update_receive
}
{
   <insert_a_suppression_name_here>
   Memcheck:Leak
   fun:malloc
   fun:zmalloc
   fun:hash_get
   fun:bgp_attr_intern
   fun:bgp_update_main
   fun:bgp_update
   fun:bgp_nlri_parse
   fun:bgp_update_receive
   fun:bgp_read
   fun:thread_call
   fun:main
}
{
   <insert_a_suppression_name_here>
   Memcheck:Leak
   fun:_Znwm
   fun:_ZN13KingsleyAlloc9MmapAllocEj
   fun:_ZN13KingsleyAlloc3BrkEj
   fun:_ZN13KingsleyAlloc6MallocEj
   fun:dce_malloc
   fun:dce_strdup
   fun:strdup
   fun:zstrdup
   fun:strip_funcname
   fun:thread_get
   fun:funcname_thread_add_timer_timeval
   fun:funcname_thread_add_background
}
{
   <insert_a_suppression_name_here>
   Memcheck:Leak
   fun:_Znwm
   fun:_ZN13KingsleyAlloc9MmapAllocEj
   fun:_ZN13KingsleyAlloc3BrkEj
   fun:_ZN13KingsleyAlloc6MallocEj
   fun:dce_malloc
   fun:dce_strdup
   fun:strdup
   fun:zstrdup
   fun:strip_funcname
   fun:thread_get
   fun:funcname_thread_add_timer_timeval
   fun:funcname_thread_add_timer
}
{
   <insert_a_suppression_name_here>
   Memcheck:Leak
   fun:_Znwm
   fun:_ZN13KingsleyAlloc9MmapAllocEj
   fun:_ZN13KingsleyAlloc3BrkEj
   fun:_ZN13KingsleyAlloc6MallocEj
   fun:dce_malloc
   fun:dce_strdup
   fun:strdup
   fun:zstrdup
   fun:strip_funcname
   fun:thread_get
   fun:funcname_thread_add_read
   fun:bgp_read
}
{
   <insert_a_suppression_name_here>
   Memcheck:Leak
   fun:_Znwm
   fun:_ZN13KingsleyAlloc9MmapAllocEj
   fun:_ZN13KingsleyAlloc3BrkEj
   fun:_ZN13KingsleyAlloc6MallocEj
   fun:dce_malloc
   fun:dce_strdup
   fun:strdup
   fun:zstrdup
   fun:strip_funcname
   fun:thread_get
   fun:funcname_thread_add_write
   fun:bgp_routeadv_timer
}
{
   <insert_a_suppression_name_here>
   Memcheck:Leak
   fun:_Znwm
   fun:_ZNSs4_Rep9_S_createEmmRKSaIcE
   obj:/usr/lib/libstdc++.so.6.0.13
   fun:_ZNSsC1EPKcRKSaIcE
   fun:_ZN3ns320ErlangRandomVariable9GetTypeIdEv
   fun:_ZN3ns338XErlangRandomVariableRegistrationClassC1Ev
   fun:_Z41__static_initialization_and_destruction_0ii
   fun:_GLOBAL__I_random_variable_stream.cc
   obj:/home/tazaki/hgworks/ns-3-dce-thehajime/build/lib/libns3-dev-core-debug.so
   obj:/home/tazaki/hgworks/ns-3-dce-thehajime/build/lib/libns3-dev-core-debug.so
   fun:vdl_list_iterate
   fun:vdl_init_call
}
{
   <insert_a_suppression_name_here>
   Memcheck:Leak
   fun:_Znwm
   fun:_ZNSs4_Rep9_S_createEmmRKSaIcE
   obj:/usr/lib/libstdc++.so.6.0.13
   fun:_ZNSsC1EPKcRKSaIcE
   fun:_ZN3ns318ZipfRandomVariable9GetTypeIdEv
   fun:_ZN3ns336XZipfRandomVariableRegistrationClassC1Ev
   fun:_Z41__static_initialization_and_destruction_0ii
   fun:_GLOBAL__I_random_variable_stream.cc
   obj:/home/tazaki/hgworks/ns-3-dce-thehajime/build/lib/libns3-dev-core-debug.so
   obj:/home/tazaki/hgworks/ns-3-dce-thehajime/build/lib/libns3-dev-core-debug.so
   fun:vdl_list_iterate
   fun:vdl_init_call
}
{
   <insert_a_suppression_name_here>
   Memcheck:Leak
   fun:_Znwm
   fun:_ZNSs4_Rep9_S_createEmmRKSaIcE
   obj:/usr/lib/libstdc++.so.6.0.13
   fun:_ZNSsC1EPKcRKSaIcE
   fun:_ZN3ns37Channel9GetTypeIdEv
   fun:_ZN3ns36TypeId9SetParentINS_7ChannelEEES0_v
   fun:_ZN3ns313SimpleChannel9GetTypeIdEv
   fun:_ZN3ns331XSimpleChannelRegistrationClassC1Ev
   fun:_Z41__static_initialization_and_destruction_0ii
   fun:_GLOBAL__I_simple_channel.cc
   obj:/home/tazaki/hgworks/ns-3-dce-thehajime/build/lib/libns3-dev-network-debug.so
   obj:/home/tazaki/hgworks/ns-3-dce-thehajime/build/lib/libns3-dev-network-debug.so
}
{
   <insert_a_suppression_name_here>
   Memcheck:Leak
   fun:_Znwm
   fun:_ZNSs4_Rep9_S_createEmmRKSaIcE
   obj:/usr/lib/libstdc++.so.6.0.13
   fun:_ZNSsC1EPKcRKSaIcE
   fun:_ZN3ns34Node9GetTypeIdEv
   fun:_ZN3ns322XNodeRegistrationClassC1Ev
   fun:_Z41__static_initialization_and_destruction_0ii
   fun:_GLOBAL__I_node.cc
   obj:/home/tazaki/hgworks/ns-3-dce-thehajime/build/lib/libns3-dev-network-debug.so
   obj:/home/tazaki/hgworks/ns-3-dce-thehajime/build/lib/libns3-dev-network-debug.so
   fun:vdl_list_iterate
   fun:vdl_init_call
}
{
   <insert_a_suppression_name_here>
   Memcheck:Leak
   fun:_Znwm
   fun:_ZNSs4_Rep9_S_createEmmRKSaIcE
   obj:/usr/lib/libstdc++.so.6.0.13
   fun:_ZNSsC1EPKcRKSaIcE
   fun:_ZN3ns38RedQueue9GetTypeIdEv
   fun:_ZN3ns326XRedQueueRegistrationClassC1Ev
   fun:_Z41__static_initialization_and_destruction_0ii
   fun:_GLOBAL__I_red_queue.cc
   obj:/home/tazaki/hgworks/ns-3-dce-thehajime/build/lib/libns3-dev-network-debug.so
   obj:/home/tazaki/hgworks/ns-3-dce-thehajime/build/lib/libns3-dev-network-debug.so
   fun:vdl_list_iterate
   fun:vdl_init_call
}
{
   <insert_a_suppression_name_here>
   Memcheck:Leak
   fun:_Znwm
   fun:_ZNSs4_Rep9_S_createEmmRKSaIcE
   obj:/usr/lib/libstdc++.so.6.0.13
   fun:_ZNSsC1EPKcRKSaIcE
   fun:_ZN3ns314Ipv6L3Protocol9GetTypeIdEv
   fun:_ZN3ns332XIpv6L3ProtocolRegistrationClassC1Ev
   fun:_Z41__static_initialization_and_destruction_0ii
   fun:_GLOBAL__I_ipv6_l3_protocol.cc
   obj:/home/tazaki/hgworks/ns-3-dce-thehajime/build/lib/libns3-dev-internet-debug.so
   obj:/home/tazaki/hgworks/ns-3-dce-thehajime/build/lib/libns3-dev-internet-debug.so
   fun:vdl_list_iterate
   fun:vdl_init_call
}
{
   <insert_a_suppression_name_here>
   Memcheck:Leak
   fun:_Znwm
   fun:_ZNSs4_Rep9_S_createEmmRKSaIcE
   obj:/usr/lib/libstdc++.so.6.0.13
   fun:_ZNSsC1EPKcRKSaIcE
   fun:_ZN3ns314Ipv4L3Protocol9GetTypeIdEv
   fun:_ZN3ns332XIpv4L3ProtocolRegistrationClassC1Ev
   fun:_Z41__static_initialization_and_destruction_0ii
   fun:_GLOBAL__I_ipv4_l3_protocol.cc
   obj:/home/tazaki/hgworks/ns-3-dce-thehajime/build/lib/libns3-dev-internet-debug.so
   obj:/home/tazaki/hgworks/ns-3-dce-thehajime/build/lib/libns3-dev-internet-debug.so
   fun:vdl_list_iterate
   fun:vdl_init_call
}
{
   <insert_a_suppression_name_here>
   Memcheck:Leak
   fun:_Znwm
   fun:_ZNSs4_Rep9_S_createEmmRKSaIcE
   obj:/usr/lib/libstdc++.so.6.0.13
   fun:_ZNSsC1ERKSsmm
   fun:_ZNKSs6substrEmm
   fun:_ZN3ns320DceApplicationHelper14ParseArgumentsESs
   fun:_ZL5RunIpN3ns33PtrINS_4NodeEEENS_4TimeESs
   fun:main
}
{
   <insert_a_suppression_name_here>
   Memcheck:Leak
   fun:_Znwm
   fun:_ZNSs4_Rep9_S_createEmmRKSaIcE
   obj:/usr/lib/libstdc++.so.6.0.13
   fun:_ZNSsC1EPKcRKSaIcE
   fun:_ZL5RunIpN3ns33PtrINS_4NodeEEENS_4TimeESs
   fun:main
}
{
   <insert_a_suppression_name_here>
   Memcheck:Leak
   fun:_Znwm
   fun:_ZNSs4_Rep9_S_createEmmRKSaIcE
   obj:/usr/lib/libstdc++.so.6.0.13
   fun:_ZNSsC1EPKcRKSaIcE
   fun:_ZL5RunIpN3ns33PtrINS_4NodeEEENS_4TimeESs
   fun:_ZL10AddAddressN3ns33PtrINS_4NodeEEENS_4TimeEPKcS5_
   fun:main
}
{
   <insert_a_suppression_name_here>
   Memcheck:Leak
   fun:_Znwm
   fun:_ZNSs4_Rep9_S_createEmmRKSaIcE
   obj:/usr/lib/libstdc++.so.6.0.13
   fun:_ZNSsC1EPKcRKSaIcE
   fun:_ZN3ns323LogNormalRandomVariable9GetTypeIdEv
   fun:_ZN3ns341XLogNormalRandomVariableRegistrationClassC1Ev
   fun:_Z41__static_initialization_and_destruction_0ii
   fun:_GLOBAL__I_random_variable_stream.cc
   obj:/home/tazaki/hgworks/ns-3-dce-thehajime/build/lib/libns3-dev-core-debug.so
   obj:/home/tazaki/hgworks/ns-3-dce-thehajime/build/lib/libns3-dev-core-debug.so
   fun:vdl_list_iterate
   fun:vdl_init_call
}
{
   <insert_a_suppression_name_here>
   Memcheck:Leak
   fun:calloc
   fun:zcalloc
   fun:sockunion_getsockname
   fun:bgp_getsockname
   fun:bgp_open_receive
   fun:bgp_read
   fun:thread_call
   fun:main
}
{
   <insert_a_suppression_name_here>
   Memcheck:Leak
   fun:calloc
   fun:zcalloc
   fun:sockunion_getpeername
   fun:bgp_getsockname
   fun:bgp_open_receive
   fun:bgp_read
   fun:thread_call
   fun:main
}
{
   <insert_a_suppression_name_here>
   Memcheck:Leak
   fun:malloc
   fun:zmalloc
   fun:cmd_make_descvec
   fun:install_element
   fun:bgp_filter_init
   fun:bgp_init
   fun:main
}
{
   <insert_a_suppression_name_here>
   Memcheck:Leak
   fun:_Znwm
   fun:_ZNSs4_Rep9_S_createEmmRKSaIcE
   obj:/usr/lib/libstdc++.so.6.0.13
   fun:_ZNSsC1EPKcRKSaIcE
   fun:_ZN3ns315BridgeNetDevice9GetTypeIdEv
   fun:_ZN3ns333XBridgeNetDeviceRegistrationClassC1Ev
   fun:_Z41__static_initialization_and_destruction_0ii
   fun:_GLOBAL__I_bridge_net_device.cc
   obj:/home/tazaki/hgworks/ns-3-dce-thehajime/build/lib/libns3-dev-bridge-debug.so
   obj:/home/tazaki/hgworks/ns-3-dce-thehajime/build/lib/libns3-dev-bridge-debug.so
   fun:vdl_list_iterate
   fun:vdl_init_call
}
{
   <insert_a_suppression_name_here>
   Memcheck:Leak
   fun:_Znwm
   fun:_ZNSs4_Rep9_S_createEmmRKSaIcE
   obj:/usr/lib/libstdc++.so.6.0.13
   fun:_ZNSsC1EPKcRKSaIcE
   fun:_ZN3ns313TcpSocketBase9GetTypeIdEv
   fun:_ZN3ns36TypeId9SetParentINS_13TcpSocketBaseEEES0_v
   fun:_ZN3ns310TcpNewReno9GetTypeIdEv
   fun:_ZN3ns328XTcpNewRenoRegistrationClassC1Ev
   fun:_Z41__static_initialization_and_destruction_0ii
   fun:_GLOBAL__I_tcp_newreno.cc
   obj:/home/tazaki/hgworks/ns-3-dce-thehajime/build/lib/libns3-dev-internet-debug.so
   obj:/home/tazaki/hgworks/ns-3-dce-thehajime/build/lib/libns3-dev-internet-debug.so
}
{
   <insert_a_suppression_name_here>
   Memcheck:Leak
   fun:_Znwm
   fun:_ZNSs4_Rep9_S_createEmmRKSaIcE
   obj:/usr/lib/libstdc++.so.6.0.13
   fun:_ZNSsC1EPKcRKSaIcE
   fun:_ZN3ns316Icmpv6L4Protocol9GetTypeIdEv
   fun:_ZN3ns334XIcmpv6L4ProtocolRegistrationClassC1Ev
   fun:_Z41__static_initialization_and_destruction_0ii
   fun:_GLOBAL__I_icmpv6_l4_protocol.cc
   obj:/home/tazaki/hgworks/ns-3-dce-thehajime/build/lib/libns3-dev-internet-debug.so
   obj:/home/tazaki/hgworks/ns-3-dce-thehajime/build/lib/libns3-dev-internet-debug.so
   fun:vdl_list_iterate
   fun:vdl_init_call
}
{
   <insert_a_suppression_name_here>
   Memcheck:Leak
   fun:_Znwm
   fun:_ZNSs4_Rep9_S_createEmmRKSaIcE
   obj:/usr/lib/libstdc++.so.6.0.13
   fun:_ZNSsC1EPKcRKSaIcE
   fun:_ZN3ns321UniformRandomVariable9GetTypeIdEv
   fun:_ZN3ns339XUniformRandomVariableRegistrationClassC1Ev
   fun:_Z41__static_initialization_and_destruction_0ii
   fun:_GLOBAL__I_random_variable_stream.cc
   obj:/home/tazaki/hgworks/ns-3-dce-thehajime/build/lib/libns3-dev-core-debug.so
   obj:/home/tazaki/hgworks/ns-3-dce-thehajime/build/lib/libns3-dev-core-debug.so
   fun:vdl_list_iterate
   fun:vdl_init_call
}
{
   <insert_a_suppression_name_here>
   Memcheck:Leak
   fun:_Znwm
   fun:_ZNSs4_Rep9_S_createEmmRKSaIcE
   obj:/usr/lib/libstdc++.so.6.0.13
   fun:_ZNSsC1EPKcRKSaIcE
   fun:_ZN3ns324SequentialRandomVariable9GetTypeIdEv
   fun:_ZN3ns342XSequentialRandomVariableRegistrationClassC1Ev
   fun:_Z41__static_initialization_and_destruction_0ii
   fun:_GLOBAL__I_random_variable_stream.cc
   obj:/home/tazaki/hgworks/ns-3-dce-thehajime/build/lib/libns3-dev-core-debug.so
   obj:/home/tazaki/hgworks/ns-3-dce-thehajime/build/lib/libns3-dev-core-debug.so
   fun:vdl_list_iterate
   fun:vdl_init_call
}
{
   <insert_a_suppression_name_here>
   Memcheck:Leak
   fun:_Znwm
   fun:_ZNSs4_Rep9_S_createEmmRKSaIcE
   obj:/usr/lib/libstdc++.so.6.0.13
   fun:_ZNSsC1EPKcRKSaIcE
   fun:_ZN3ns324TriangularRandomVariable9GetTypeIdEv
   fun:_ZN3ns342XTriangularRandomVariableRegistrationClassC1Ev
   fun:_Z41__static_initialization_and_destruction_0ii
   fun:_GLOBAL__I_random_variable_stream.cc
   obj:/home/tazaki/hgworks/ns-3-dce-thehajime/build/lib/libns3-dev-core-debug.so
   obj:/home/tazaki/hgworks/ns-3-dce-thehajime/build/lib/libns3-dev-core-debug.so
   fun:vdl_list_iterate
   fun:vdl_init_call
}
{
   <insert_a_suppression_name_here>
   Memcheck:Leak
   fun:_Znwm
   fun:_ZNSs4_Rep9_S_createEmmRKSaIcE
   obj:/usr/lib/libstdc++.so.6.0.13
   fun:_ZNSsC1EPKcRKSaIcE
   fun:_ZNSt4pairISsPN3ns312LogComponentEEC1IPKcS2_EERKS_IT_T0_E
   fun:_ZN3ns312LogComponentC1EPKc
   fun:_Z41__static_initialization_and_destruction_0ii
   fun:_GLOBAL__I_dce.cc
   obj:/home/tazaki/hgworks/ns-3-dce-thehajime/build/lib/libns3-dce.so
   obj:/home/tazaki/hgworks/ns-3-dce-thehajime/build/lib/libns3-dce.so
   fun:vdl_list_iterate
   fun:vdl_init_call
}
{
   <insert_a_suppression_name_here>
   Memcheck:Leak
   fun:_Znwm
   fun:_ZNSs4_Rep9_S_createEmmRKSaIcE
   obj:/usr/lib/libstdc++.so.6.0.13
   fun:_ZNSsC1EPKcRKSaIcE
   fun:_ZN3ns321PointToPointNetDevice9GetTypeIdEv
   fun:_ZN3ns339XPointToPointNetDeviceRegistrationClassC1Ev
   fun:_Z41__static_initialization_and_destruction_0ii
   fun:_GLOBAL__I_point_to_point_net_device.cc
   obj:/home/tazaki/hgworks/ns-3-dce-thehajime/build/lib/libns3-dev-point-to-point-debug.so
   obj:/home/tazaki/hgworks/ns-3-dce-thehajime/build/lib/libns3-dev-point-to-point-debug.so
   fun:vdl_list_iterate
   fun:vdl_init_call
}
{
   <insert_a_suppression_name_here>
   Memcheck:Leak
   fun:_Znwm
   fun:_ZNSs4_Rep9_S_createEmmRKSaIcE
   obj:/usr/lib/libstdc++.so.6.0.13
   fun:_ZNSsC1EPKcRKSaIcE
   fun:_ZN3ns315MakeTimeCheckerEv
   fun:_ZN3ns38RedQueue9GetTypeIdEv
   fun:_ZN3ns326XRedQueueRegistrationClassC1Ev
   fun:_Z41__static_initialization_and_destruction_0ii
   fun:_GLOBAL__I_red_queue.cc
   obj:/home/tazaki/hgworks/ns-3-dce-thehajime/build/lib/libns3-dev-network-debug.so
   obj:/home/tazaki/hgworks/ns-3-dce-thehajime/build/lib/libns3-dev-network-debug.so
   fun:vdl_list_iterate
}
{
   <insert_a_suppression_name_here>
   Memcheck:Leak
   fun:_Znwm
   fun:_ZNSs4_Rep9_S_createEmmRKSaIcE
   obj:/usr/lib/libstdc++.so.6.0.13
   fun:_ZNSsC1EPKcRKSaIcE
   fun:_ZNSt4pairISsPN3ns312LogComponentEEC1IPKcS2_EERKS_IT_T0_E
   fun:_ZN3ns312LogComponentC1EPKc
   fun:_Z41__static_initialization_and_destruction_0ii
   fun:_GLOBAL__I_node.cc
   obj:/home/tazaki/hgworks/ns-3-dce-thehajime/build/lib/libns3-dev-network-debug.so
   obj:/home/tazaki/hgworks/ns-3-dce-thehajime/build/lib/libns3-dev-network-debug.so
   fun:vdl_list_iterate
   fun:vdl_init_call
}
{
   <insert_a_suppression_name_here>
   Memcheck:Leak
   fun:_Znwm
   fun:_ZNSs4_Rep9_S_createEmmRKSaIcE
   obj:/usr/lib/libstdc++.so.6.0.13
   fun:_ZNSsC1EPKcRKSaIcE
   fun:_ZN3ns318MakeBooleanCheckerEv
   fun:_Z41__static_initialization_and_destruction_0ii
   fun:_GLOBAL__I_node.cc
   obj:/home/tazaki/hgworks/ns-3-dce-thehajime/build/lib/libns3-dev-network-debug.so
   obj:/home/tazaki/hgworks/ns-3-dce-thehajime/build/lib/libns3-dev-network-debug.so
   fun:vdl_list_iterate
   fun:vdl_init_call
   fun:dlopen_with_context
}
{
   <insert_a_suppression_name_here>
   Memcheck:Leak
   fun:_Znwm
   fun:_ZNSs4_Rep9_S_createEmmRKSaIcE
   obj:/usr/lib/libstdc++.so.6.0.13
   fun:_ZNSsC1EPKcRKSaIcE
   fun:_ZN3ns318MakeBooleanCheckerEv
   fun:_ZN3ns38RedQueue9GetTypeIdEv
   fun:_ZN3ns326XRedQueueRegistrationClassC1Ev
   fun:_Z41__static_initialization_and_destruction_0ii
   fun:_GLOBAL__I_red_queue.cc
   obj:/home/tazaki/hgworks/ns-3-dce-thehajime/build/lib/libns3-dev-network-debug.so
   obj:/home/tazaki/hgworks/ns-3-dce-thehajime/build/lib/libns3-dev-network-debug.so
   fun:vdl_list_iterate
}
{
   <insert_a_suppression_name_here>
   Memcheck:Leak
   fun:_Znwm
   fun:_ZNSs4_Rep9_S_createEmmRKSaIcE
   obj:/usr/lib/libstdc++.so.6.0.13
   fun:_ZNSsC1EPKcRKSaIcE
   fun:_ZN3ns35Queue9GetTypeIdEv
   fun:_ZN3ns36TypeId9SetParentINS_5QueueEEES0_v
   fun:_ZN3ns38RedQueue9GetTypeIdEv
   fun:_ZN3ns326XRedQueueRegistrationClassC1Ev
   fun:_Z41__static_initialization_and_destruction_0ii
   fun:_GLOBAL__I_red_queue.cc
   obj:/home/tazaki/hgworks/ns-3-dce-thehajime/build/lib/libns3-dev-network-debug.so
   obj:/home/tazaki/hgworks/ns-3-dce-thehajime/build/lib/libns3-dev-network-debug.so
}
{
   <insert_a_suppression_name_here>
   Memcheck:Leak
   fun:_Znwm
   fun:_ZNSs4_Rep9_S_createEmmRKSaIcE
   obj:/usr/lib/libstdc++.so.6.0.13
   fun:_ZNSsC1EPKcRKSaIcE
   fun:_ZN3ns312PacketSocket9GetTypeIdEv
   fun:_ZN3ns330XPacketSocketRegistrationClassC1Ev
   fun:_Z41__static_initialization_and_destruction_0ii
   fun:_GLOBAL__I_packet_socket.cc
   obj:/home/tazaki/hgworks/ns-3-dce-thehajime/build/lib/libns3-dev-network-debug.so
   obj:/home/tazaki/hgworks/ns-3-dce-thehajime/build/lib/libns3-dev-network-debug.so
   fun:vdl_list_iterate
   fun:vdl_init_call
}
{
   <insert_a_suppression_name_here>
   Memcheck:Leak
   fun:_Znwm
   fun:_ZNSs4_Rep9_S_createEmmRKSaIcE
   obj:/usr/lib/libstdc++.so.6.0.13
   fun:_ZNSsC1EPKcRKSaIcE
   fun:_ZN3ns318MakeBooleanCheckerEv
   fun:_ZN3ns310ErrorModel9GetTypeIdEv
   fun:_ZN3ns328XErrorModelRegistrationClassC1Ev
   fun:_Z41__static_initialization_and_destruction_0ii
   fun:_GLOBAL__I_error_model.cc
   obj:/home/tazaki/hgworks/ns-3-dce-thehajime/build/lib/libns3-dev-network-debug.so
   obj:/home/tazaki/hgworks/ns-3-dce-thehajime/build/lib/libns3-dev-network-debug.so
   fun:vdl_list_iterate
}
{
   <insert_a_suppression_name_here>
   Memcheck:Leak
   fun:_Znwm
   fun:_ZNSs4_Rep9_S_createEmmRKSaIcE
   obj:/usr/lib/libstdc++.so.6.0.13
   fun:_ZNSsC1EPKcRKSaIcE
   fun:_ZN3ns313DropTailQueue9GetTypeIdEv
   fun:_ZN3ns331XDropTailQueueRegistrationClassC1Ev
   fun:_Z41__static_initialization_and_destruction_0ii
   fun:_GLOBAL__I_drop_tail_queue.cc
   obj:/home/tazaki/hgworks/ns-3-dce-thehajime/build/lib/libns3-dev-network-debug.so
   obj:/home/tazaki/hgworks/ns-3-dce-thehajime/build/lib/libns3-dev-network-debug.so
   fun:vdl_list_iterate
   fun:vdl_init_call
}
{
   <insert_a_suppression_name_here>
   Memcheck:Leak
   fun:_Znwm
   fun:_ZNSs4_Rep9_S_createEmmRKSaIcE
   obj:/usr/lib/libstdc++.so.6.0.13
   fun:_ZNSsC1EPKcRKSaIcE
   fun:_ZN3ns315MakeTimeCheckerEv
   fun:_ZN3ns311Application9GetTypeIdEv
   fun:_ZN3ns329XApplicationRegistrationClassC1Ev
   fun:_Z41__static_initialization_and_destruction_0ii
   fun:_GLOBAL__I_application.cc
   obj:/home/tazaki/hgworks/ns-3-dce-thehajime/build/lib/libns3-dev-network-debug.so
   obj:/home/tazaki/hgworks/ns-3-dce-thehajime/build/lib/libns3-dev-network-debug.so
   fun:vdl_list_iterate
}
{
   <insert_a_suppression_name_here>
   Memcheck:Leak
   fun:_Znwm
   fun:_ZNSs4_Rep9_S_createEmmRKSaIcE
   obj:/usr/lib/libstdc++.so.6.0.13
   fun:_ZNSsC1EPKcRKSaIcE
   fun:_ZN3ns315MakeTimeCheckerEv
   fun:_ZN3ns315BridgeNetDevice9GetTypeIdEv
   fun:_ZN3ns333XBridgeNetDeviceRegistrationClassC1Ev
   fun:_Z41__static_initialization_and_destruction_0ii
   fun:_GLOBAL__I_bridge_net_device.cc
   obj:/home/tazaki/hgworks/ns-3-dce-thehajime/build/lib/libns3-dev-bridge-debug.so
   obj:/home/tazaki/hgworks/ns-3-dce-thehajime/build/lib/libns3-dev-bridge-debug.so
   fun:vdl_list_iterate
}
{
   <insert_a_suppression_name_here>
   Memcheck:Leak
   fun:_Znwm
   fun:_ZNSs4_Rep9_S_createEmmRKSaIcE
   obj:/usr/lib/libstdc++.so.6.0.13
   fun:_ZNSsC1EPKcRKSaIcE
   fun:_ZN3ns318MakeBooleanCheckerEv
   fun:_ZN3ns315BridgeNetDevice9GetTypeIdEv
   fun:_ZN3ns333XBridgeNetDeviceRegistrationClassC1Ev
   fun:_Z41__static_initialization_and_destruction_0ii
   fun:_GLOBAL__I_bridge_net_device.cc
   obj:/home/tazaki/hgworks/ns-3-dce-thehajime/build/lib/libns3-dev-bridge-debug.so
   obj:/home/tazaki/hgworks/ns-3-dce-thehajime/build/lib/libns3-dev-bridge-debug.so
   fun:vdl_list_iterate
}
{
   <insert_a_suppression_name_here>
   Memcheck:Leak
   fun:_Znwm
   fun:_ZNSs4_Rep9_S_createEmmRKSaIcE
   obj:/usr/lib/libstdc++.so.6.0.13
   fun:_ZNSsC1EPKcRKSaIcE
   fun:_ZN3ns318MakeBooleanCheckerEv
   fun:_ZN3ns317Ipv4RawSocketImpl9GetTypeIdEv
   fun:_ZN3ns335XIpv4RawSocketImplRegistrationClassC1Ev
   fun:_Z41__static_initialization_and_destruction_0ii
   fun:_GLOBAL__I_ipv4_raw_socket_impl.cc
   obj:/home/tazaki/hgworks/ns-3-dce-thehajime/build/lib/libns3-dev-internet-debug.so
   obj:/home/tazaki/hgworks/ns-3-dce-thehajime/build/lib/libns3-dev-internet-debug.so
   fun:vdl_list_iterate
}
{
   <insert_a_suppression_name_here>
   Memcheck:Leak
   fun:_Znwm
   fun:_ZNSs4_Rep9_S_createEmmRKSaIcE
   obj:/usr/lib/libstdc++.so.6.0.13
   fun:_ZNSsC1EPKcRKSaIcE
   fun:_ZN3ns315MakeTimeCheckerEv
   fun:_ZN3ns312RttEstimator9GetTypeIdEv
   fun:_ZN3ns330XRttEstimatorRegistrationClassC1Ev
   fun:_Z41__static_initialization_and_destruction_0ii
   fun:_GLOBAL__I_rtt_estimator.cc
   obj:/home/tazaki/hgworks/ns-3-dce-thehajime/build/lib/libns3-dev-internet-debug.so
   obj:/home/tazaki/hgworks/ns-3-dce-thehajime/build/lib/libns3-dev-internet-debug.so
   fun:vdl_list_iterate
}
{
   <insert_a_suppression_name_here>
   Memcheck:Leak
   fun:_Znwm
   fun:_ZNSs4_Rep9_S_createEmmRKSaIcE
   obj:/usr/lib/libstdc++.so.6.0.13
   fun:_ZNSsC1EPKcRKSaIcE
   fun:_ZN3ns316RttMeanDeviation9GetTypeIdEv
   fun:_ZN3ns334XRttMeanDeviationRegistrationClassC1Ev
   fun:_Z41__static_initialization_and_destruction_0ii
   fun:_GLOBAL__I_rtt_estimator.cc
   obj:/home/tazaki/hgworks/ns-3-dce-thehajime/build/lib/libns3-dev-internet-debug.so
   obj:/home/tazaki/hgworks/ns-3-dce-thehajime/build/lib/libns3-dev-internet-debug.so
   fun:vdl_list_iterate
   fun:vdl_init_call
}
{
   <insert_a_suppression_name_here>
   Memcheck:Leak
   fun:_Znwm
   fun:_ZNSs4_Rep9_S_createEmmRKSaIcE
   obj:/usr/lib/libstdc++.so.6.0.13
   fun:_ZNSsC1EPKcRKSaIcE
   fun:_ZN3ns313UdpSocketImpl9GetTypeIdEv
   fun:_ZN3ns331XUdpSocketImplRegistrationClassC1Ev
   fun:_Z41__static_initialization_and_destruction_0ii
   fun:_GLOBAL__I_udp_socket_impl.cc
   obj:/home/tazaki/hgworks/ns-3-dce-thehajime/build/lib/libns3-dev-internet-debug.so
   obj:/home/tazaki/hgworks/ns-3-dce-thehajime/build/lib/libns3-dev-internet-debug.so
   fun:vdl_list_iterate
   fun:vdl_init_call
}
{
   <insert_a_suppression_name_here>
   Memcheck:Leak
   fun:_Znwm
   fun:_ZNSs4_Rep9_S_createEmmRKSaIcE
   obj:/usr/lib/libstdc++.so.6.0.13
   fun:_ZNSsC1EPKcRKSaIcE
   fun:_ZN3ns313ArpL3Protocol9GetTypeIdEv
   fun:_ZN3ns331XArpL3ProtocolRegistrationClassC1Ev
   fun:_Z41__static_initialization_and_destruction_0ii
   fun:_GLOBAL__I_arp_l3_protocol.cc
   obj:/home/tazaki/hgworks/ns-3-dce-thehajime/build/lib/libns3-dev-internet-debug.so
   obj:/home/tazaki/hgworks/ns-3-dce-thehajime/build/lib/libns3-dev-internet-debug.so
   fun:vdl_list_iterate
   fun:vdl_init_call
}
{
   <insert_a_suppression_name_here>
   Memcheck:Leak
   fun:_Znwm
   fun:_ZNSs4_Rep9_S_createEmmRKSaIcE
   obj:/usr/lib/libstdc++.so.6.0.13
   fun:_ZNSsC1EPKcRKSaIcE
   fun:_ZN3ns38ArpCache9GetTypeIdEv
   fun:_ZN3ns326XArpCacheRegistrationClassC1Ev
   fun:_Z41__static_initialization_and_destruction_0ii
   fun:_GLOBAL__I_arp_cache.cc
   obj:/home/tazaki/hgworks/ns-3-dce-thehajime/build/lib/libns3-dev-internet-debug.so
   obj:/home/tazaki/hgworks/ns-3-dce-thehajime/build/lib/libns3-dev-internet-debug.so
   fun:vdl_list_iterate
   fun:vdl_init_call
}
{
   <insert_a_suppression_name_here>
   Memcheck:Leak
   fun:_Znwm
   fun:_ZNSs4_Rep9_S_createEmmRKSaIcE
   obj:/usr/lib/libstdc++.so.6.0.13
   fun:_ZNSsC1EPKcRKSaIcE
   fun:_ZN3ns315MakeTimeCheckerEv
   fun:_ZN3ns38ArpCache9GetTypeIdEv
   fun:_ZN3ns326XArpCacheRegistrationClassC1Ev
   fun:_Z41__static_initialization_and_destruction_0ii
   fun:_GLOBAL__I_arp_cache.cc
   obj:/home/tazaki/hgworks/ns-3-dce-thehajime/build/lib/libns3-dev-internet-debug.so
   obj:/home/tazaki/hgworks/ns-3-dce-thehajime/build/lib/libns3-dev-internet-debug.so
   fun:vdl_list_iterate
}
{
   <insert_a_suppression_name_here>
   Memcheck:Leak
   fun:_Znwm
   fun:_ZNSs4_Rep9_S_createEmmRKSaIcE
   obj:/usr/lib/libstdc++.so.6.0.13
   fun:_ZNSsC1EPKcRKSaIcE
   fun:_ZN3ns315MakeTimeCheckerEv
   fun:_ZN3ns39TcpSocket9GetTypeIdEv
   fun:_ZN3ns36TypeId9SetParentINS_9TcpSocketEEES0_v
   fun:_ZN3ns316NscTcpSocketImpl9GetTypeIdEv
   fun:_ZN3ns334XNscTcpSocketImplRegistrationClassC1Ev
   fun:_Z41__static_initialization_and_destruction_0ii
   fun:_GLOBAL__I_nsc_tcp_socket_impl.cc
   obj:/home/tazaki/hgworks/ns-3-dce-thehajime/build/lib/libns3-dev-internet-debug.so
}
{
   <insert_a_suppression_name_here>
   Memcheck:Leak
   fun:_Znwm
   fun:_ZNSs4_Rep9_S_createEmmRKSaIcE
   obj:/usr/lib/libstdc++.so.6.0.13
   fun:_ZNSsC1EPKcRKSaIcE
   fun:_ZN3ns318MakeBooleanCheckerEv
   fun:_ZN3ns39TcpSocket9GetTypeIdEv
   fun:_ZN3ns36TypeId9SetParentINS_9TcpSocketEEES0_v
   fun:_ZN3ns316NscTcpSocketImpl9GetTypeIdEv
   fun:_ZN3ns334XNscTcpSocketImplRegistrationClassC1Ev
   fun:_Z41__static_initialization_and_destruction_0ii
   fun:_GLOBAL__I_nsc_tcp_socket_impl.cc
   obj:/home/tazaki/hgworks/ns-3-dce-thehajime/build/lib/libns3-dev-internet-debug.so
}
{
   <insert_a_suppression_name_here>
   Memcheck:Leak
   fun:_Znwm
   fun:_ZNSs4_Rep9_S_createEmmRKSaIcE
   obj:/usr/lib/libstdc++.so.6.0.13
   fun:_ZNSsC1EPKcRKSaIcE
   fun:_ZN3ns318MakeBooleanCheckerEv
   fun:_ZN3ns317Ipv4GlobalRouting9GetTypeIdEv
   fun:_ZN3ns335XIpv4GlobalRoutingRegistrationClassC1Ev
   fun:_Z41__static_initialization_and_destruction_0ii
   fun:_GLOBAL__I_ipv4_global_routing.cc
   obj:/home/tazaki/hgworks/ns-3-dce-thehajime/build/lib/libns3-dev-internet-debug.so
   obj:/home/tazaki/hgworks/ns-3-dce-thehajime/build/lib/libns3-dev-internet-debug.so
   fun:vdl_list_iterate
}
{
   <insert_a_suppression_name_here>
   Memcheck:Leak
   fun:_Znwm
   fun:_ZNSs4_Rep9_S_createEmmRKSaIcE
   obj:/usr/lib/libstdc++.so.6.0.13
   fun:_ZNSsC1EPKcRKSaIcE
   fun:_ZN3ns318MakeBooleanCheckerEv
   fun:_ZN3ns34Ipv69GetTypeIdEv
   fun:_ZN3ns322XIpv6RegistrationClassC1Ev
   fun:_Z41__static_initialization_and_destruction_0ii
   fun:_GLOBAL__I_ipv6.cc
   obj:/home/tazaki/hgworks/ns-3-dce-thehajime/build/lib/libns3-dev-internet-debug.so
   obj:/home/tazaki/hgworks/ns-3-dce-thehajime/build/lib/libns3-dev-internet-debug.so
   fun:vdl_list_iterate
}
{
   <insert_a_suppression_name_here>
   Memcheck:Leak
   fun:_Znwm
   fun:_ZNSs4_Rep9_S_createEmmRKSaIcE
   obj:/usr/lib/libstdc++.so.6.0.13
   fun:_ZNSsC1EPKcRKSaIcE
   fun:_ZN3ns318MakeBooleanCheckerEv
   fun:_ZN3ns34Ipv49GetTypeIdEv
   fun:_ZN3ns322XIpv4RegistrationClassC1Ev
   fun:_Z41__static_initialization_and_destruction_0ii
   fun:_GLOBAL__I_ipv4.cc
   obj:/home/tazaki/hgworks/ns-3-dce-thehajime/build/lib/libns3-dev-internet-debug.so
   obj:/home/tazaki/hgworks/ns-3-dce-thehajime/build/lib/libns3-dev-internet-debug.so
   fun:vdl_list_iterate
}
{
   <insert_a_suppression_name_here>
   Memcheck:Leak
   fun:_Znwm
   fun:_ZNSs4_Rep9_S_createEmmRKSaIcE
   obj:/usr/lib/libstdc++.so.6.0.13
   fun:_ZNSsC1EPKcRKSaIcE
   fun:_ZN3ns318MakeBooleanCheckerEv
   fun:_ZN3ns39UdpSocket9GetTypeIdEv
   fun:_ZN3ns327XUdpSocketRegistrationClassC1Ev
   fun:_Z41__static_initialization_and_destruction_0ii
   fun:_GLOBAL__I_udp_socket.cc
   obj:/home/tazaki/hgworks/ns-3-dce-thehajime/build/lib/libns3-dev-internet-debug.so
   obj:/home/tazaki/hgworks/ns-3-dce-thehajime/build/lib/libns3-dev-internet-debug.so
   fun:vdl_list_iterate
}
{
   <insert_a_suppression_name_here>
   Memcheck:Leak
   fun:_Znwm
   fun:_ZNSs4_Rep9_S_createEmmRKSaIcE
   obj:/usr/lib/libstdc++.so.6.0.13
   fun:_ZNSsC1EPKcRKSaIcE
   fun:_ZN3ns318MakeBooleanCheckerEv
   fun:_ZN3ns310TcpNewReno9GetTypeIdEv
   fun:_ZN3ns328XTcpNewRenoRegistrationClassC1Ev
   fun:_Z41__static_initialization_and_destruction_0ii
   fun:_GLOBAL__I_tcp_newreno.cc
   obj:/home/tazaki/hgworks/ns-3-dce-thehajime/build/lib/libns3-dev-internet-debug.so
   obj:/home/tazaki/hgworks/ns-3-dce-thehajime/build/lib/libns3-dev-internet-debug.so
   fun:vdl_list_iterate
}
{
   <insert_a_suppression_name_here>
   Memcheck:Leak
   fun:_Znwm
   fun:_ZNSs4_Rep9_S_createEmmRKSaIcE
   obj:/usr/lib/libstdc++.so.6.0.13
   fun:_ZNSsC1EPKcRKSaIcE
   fun:_ZN3ns318MakeBooleanCheckerEv
   fun:_ZN3ns316Icmpv6L4Protocol9GetTypeIdEv
   fun:_ZN3ns334XIcmpv6L4ProtocolRegistrationClassC1Ev
   fun:_Z41__static_initialization_and_destruction_0ii
   fun:_GLOBAL__I_icmpv6_l4_protocol.cc
   obj:/home/tazaki/hgworks/ns-3-dce-thehajime/build/lib/libns3-dev-internet-debug.so
   obj:/home/tazaki/hgworks/ns-3-dce-thehajime/build/lib/libns3-dev-internet-debug.so
   fun:vdl_list_iterate
}
{
   <insert_a_suppression_name_here>
   Memcheck:Leak
   fun:_Znwm
   fun:_ZNSs4_Rep9_S_createEmmRKSaIcE
   obj:/usr/lib/libstdc++.so.6.0.13
   fun:_ZNSsC1EPKcRKSaIcE
   fun:_ZN3ns313Ipv6Extension9GetTypeIdEv
   fun:_ZN3ns331XIpv6ExtensionRegistrationClassC1Ev
   fun:_Z41__static_initialization_and_destruction_0ii
   fun:_GLOBAL__I_ipv6_extension.cc
   obj:/home/tazaki/hgworks/ns-3-dce-thehajime/build/lib/libns3-dev-internet-debug.so
   obj:/home/tazaki/hgworks/ns-3-dce-thehajime/build/lib/libns3-dev-internet-debug.so
   fun:vdl_list_iterate
   fun:vdl_init_call
}
{
   <insert_a_suppression_name_here>
   Memcheck:Leak
   fun:_Znwm
   fun:_ZNSs4_Rep9_S_createEmmRKSaIcE
   obj:/usr/lib/libstdc++.so.6.0.13
   fun:_ZNSsC1EPKcRKSaIcE
   fun:_ZN3ns318MakeBooleanCheckerEv
   fun:_ZN3ns314Ipv6L3Protocol9GetTypeIdEv
   fun:_ZN3ns332XIpv6L3ProtocolRegistrationClassC1Ev
   fun:_Z41__static_initialization_and_destruction_0ii
   fun:_GLOBAL__I_ipv6_l3_protocol.cc
   obj:/home/tazaki/hgworks/ns-3-dce-thehajime/build/lib/libns3-dev-internet-debug.so
   obj:/home/tazaki/hgworks/ns-3-dce-thehajime/build/lib/libns3-dev-internet-debug.so
   fun:vdl_list_iterate
}
{
   <insert_a_suppression_name_here>
   Memcheck:Leak
   fun:_Znwm
   fun:_ZNSs4_Rep9_S_createEmmRKSaIcE
   obj:/usr/lib/libstdc++.so.6.0.13
   fun:_ZNSsC1EPKcRKSaIcE
   fun:_ZN3ns315MakeTimeCheckerEv
   fun:_ZN3ns321RealtimeSimulatorImpl9GetTypeIdEv
   fun:_ZN3ns339XRealtimeSimulatorImplRegistrationClassC1Ev
   fun:_Z41__static_initialization_and_destruction_0ii
   fun:_GLOBAL__I_realtime_simulator_impl.cc
   obj:/home/tazaki/hgworks/ns-3-dce-thehajime/build/lib/libns3-dev-core-debug.so
   obj:/home/tazaki/hgworks/ns-3-dce-thehajime/build/lib/libns3-dev-core-debug.so
   fun:vdl_list_iterate
}
{
   <insert_a_suppression_name_here>
   Memcheck:Leak
   fun:_Znwm
   fun:_ZNSs4_Rep9_S_createEmmRKSaIcE
   obj:/usr/lib/libstdc++.so.6.0.13
   fun:_ZNSsC1EPKcRKSaIcE
   fun:_ZN3ns318MakeBooleanCheckerEv
   fun:_ZN3ns320RandomVariableStream9GetTypeIdEv
   fun:_ZN3ns338XRandomVariableStreamRegistrationClassC1Ev
   fun:_Z41__static_initialization_and_destruction_0ii
   fun:_GLOBAL__I_random_variable_stream.cc
   obj:/home/tazaki/hgworks/ns-3-dce-thehajime/build/lib/libns3-dev-core-debug.so
   obj:/home/tazaki/hgworks/ns-3-dce-thehajime/build/lib/libns3-dev-core-debug.so
   fun:vdl_list_iterate
}
{
   <insert_a_suppression_name_here>
   Memcheck:Leak
   fun:_Znwm
   fun:_ZNSs4_Rep9_S_createEmmRKSaIcE
   obj:/usr/lib/libstdc++.so.6.0.13
   fun:_ZNSsC1EPKcRKSaIcE
   fun:_ZN3ns325ExponentialRandomVariable9GetTypeIdEv
   fun:_ZN3ns343XExponentialRandomVariableRegistrationClassC1Ev
   fun:_Z41__static_initialization_and_destruction_0ii
   fun:_GLOBAL__I_random_variable_stream.cc
   obj:/home/tazaki/hgworks/ns-3-dce-thehajime/build/lib/libns3-dev-core-debug.so
   obj:/home/tazaki/hgworks/ns-3-dce-thehajime/build/lib/libns3-dev-core-debug.so
   fun:vdl_list_iterate
   fun:vdl_init_call
}
{
   <insert_a_suppression_name_here>
   Memcheck:Leak
   fun:_Znwm
   fun:_ZNSs4_Rep9_S_createEmmRKSaIcE
   obj:/usr/lib/libstdc++.so.6.0.13
   fun:_ZNSsC1EPKcRKSaIcE
   fun:_ZN3ns315MakeTimeCheckerEv
   fun:_ZN3ns314Ipv4L3Protocol9GetTypeIdEv
   fun:_ZN3ns332XIpv4L3ProtocolRegistrationClassC1Ev
   fun:_Z41__static_initialization_and_destruction_0ii
   fun:_GLOBAL__I_ipv4_l3_protocol.cc
   obj:/home/tazaki/hgworks/ns-3-dce-thehajime/build/lib/libns3-dev-internet-debug.so
   obj:/home/tazaki/hgworks/ns-3-dce-thehajime/build/lib/libns3-dev-internet-debug.so
   fun:vdl_list_iterate
}
{
   <insert_a_suppression_name_here>
   Memcheck:Leak
   fun:_Znwm
   fun:_ZNSs4_Rep9_S_createEmmRKSaIcE
   obj:/usr/lib/libstdc++.so.6.0.13
   fun:_ZNSsC1EPKcRKSaIcE
   fun:_ZN3ns320ParetoRandomVariable9GetTypeIdEv
   fun:_ZN3ns338XParetoRandomVariableRegistrationClassC1Ev
   fun:_Z41__static_initialization_and_destruction_0ii
   fun:_GLOBAL__I_random_variable_stream.cc
   obj:/home/tazaki/hgworks/ns-3-dce-thehajime/build/lib/libns3-dev-core-debug.so
   obj:/home/tazaki/hgworks/ns-3-dce-thehajime/build/lib/libns3-dev-core-debug.so
   fun:vdl_list_iterate
   fun:vdl_init_call
}
{
   <insert_a_suppression_name_here>
   Memcheck:Leak
   fun:_Znwm
   fun:_ZNSs4_Rep9_S_createEmmRKSaIcE
   obj:/usr/lib/libstdc++.so.6.0.13
   fun:_ZNSsC1EPKcRKSaIcE
   fun:_ZN3ns320NormalRandomVariable9GetTypeIdEv
   fun:_ZN3ns338XNormalRandomVariableRegistrationClassC1Ev
   fun:_Z41__static_initialization_and_destruction_0ii
   fun:_GLOBAL__I_random_variable_stream.cc
   obj:/home/tazaki/hgworks/ns-3-dce-thehajime/build/lib/libns3-dev-core-debug.so
   obj:/home/tazaki/hgworks/ns-3-dce-thehajime/build/lib/libns3-dev-core-debug.so
   fun:vdl_list_iterate
   fun:vdl_init_call
}
{
   <insert_a_suppression_name_here>
   Memcheck:Leak
   fun:_Znwm
   fun:_ZNSs4_Rep9_S_createEmmRKSaIcE
   obj:/usr/lib/libstdc++.so.6.0.13
   fun:_ZNSsC1EPKcRKSaIcE
   fun:_ZN3ns319GammaRandomVariable9GetTypeIdEv
   fun:_ZN3ns337XGammaRandomVariableRegistrationClassC1Ev
   fun:_Z41__static_initialization_and_destruction_0ii
   fun:_GLOBAL__I_random_variable_stream.cc
   obj:/home/tazaki/hgworks/ns-3-dce-thehajime/build/lib/libns3-dev-core-debug.so
   obj:/home/tazaki/hgworks/ns-3-dce-thehajime/build/lib/libns3-dev-core-debug.so
   fun:vdl_list_iterate
   fun:vdl_init_call
}
{
   <insert_a_suppression_name_here>
   Memcheck:Leak
   fun:_Znwm
   fun:_ZNSs4_Rep9_S_createEmmRKSaIcE
   obj:/usr/lib/libstdc++.so.6.0.13
   fun:_ZNSsC1EPKcRKSaIcE
   fun:_ZN3ns313NetlinkSocket9GetTypeIdEv
   fun:_ZN3ns331XNetlinkSocketRegistrationClassC1Ev
   fun:_Z41__static_initialization_and_destruction_0ii
   fun:_GLOBAL__I_netlink_socket.cc
   obj:/home/tazaki/hgworks/ns-3-dce-thehajime/build/lib/libns3-netlink.so
   obj:/home/tazaki/hgworks/ns-3-dce-thehajime/build/lib/libns3-netlink.so
   fun:vdl_list_iterate
   fun:vdl_init_call
}
{
   <insert_a_suppression_name_here>
   Memcheck:Leak
   fun:_Znwm
   fun:_ZNSs4_Rep9_S_createEmmRKSaIcE
   obj:/usr/lib/libstdc++.so.6.0.13
   fun:_ZNSsC1EPKcRKSaIcE
   fun:_ZN3ns318MakeBooleanCheckerEv
   fun:_ZN3ns310DceManager9GetTypeIdEv
   fun:_ZN3ns328XDceManagerRegistrationClassC1Ev
   fun:_Z41__static_initialization_and_destruction_0ii
   fun:_GLOBAL__I_dce_manager.cc
   obj:/home/tazaki/hgworks/ns-3-dce-thehajime/build/lib/libns3-dce.so
   obj:/home/tazaki/hgworks/ns-3-dce-thehajime/build/lib/libns3-dce.so
   fun:vdl_list_iterate
}
{
   <insert_a_suppression_name_here>
   Memcheck:Leak
   fun:_Znwm
   fun:_ZNSs4_Rep9_S_createEmmRKSaIcE
   obj:/usr/lib/libstdc++.so.6.0.13
   fun:_ZNSsC1EPKcRKSaIcE
   fun:_ZN3ns310DceManager9GetTypeIdEv
   fun:_ZN3ns328XDceManagerRegistrationClassC1Ev
   fun:_Z41__static_initialization_and_destruction_0ii
   fun:_GLOBAL__I_dce_manager.cc
   obj:/home/tazaki/hgworks/ns-3-dce-thehajime/build/lib/libns3-dce.so
   obj:/home/tazaki/hgworks/ns-3-dce-thehajime/build/lib/libns3-dce.so
   fun:vdl_list_iterate
   fun:vdl_init_call
}
{
   <insert_a_suppression_name_here>
   Memcheck:Leak
   fun:_Znwm
   fun:_ZNSs4_Rep9_S_createEmmRKSaIcE
   obj:/usr/lib/libstdc++.so.6.0.13
   fun:_ZNSsC1EPKcRKSaIcE
   fun:_ZN3ns315MakeTimeCheckerEv
   fun:_ZN3ns319PointToPointChannel9GetTypeIdEv
   fun:_ZN3ns36TypeId9SetParentINS_19PointToPointChannelEEES0_v
   fun:_ZN3ns325PointToPointRemoteChannel9GetTypeIdEv
   fun:_ZN3ns343XPointToPointRemoteChannelRegistrationClassC1Ev
   fun:_Z41__static_initialization_and_destruction_0ii
   fun:_GLOBAL__I_point_to_point_remote_channel.cc
   obj:/home/tazaki/hgworks/ns-3-dce-thehajime/build/lib/libns3-dev-point-to-point-debug.so
}
{
   <insert_a_suppression_name_here>
   Memcheck:Leak
   fun:_Znwm
   fun:_ZNSs4_Rep9_S_createEmmRKSaIcE
   obj:/usr/lib/libstdc++.so.6.0.13
   fun:_ZNSsC1EPKcRKSaIcE
   fun:_ZN3ns315MakeTimeCheckerEv
   fun:_ZN3ns321PointToPointNetDevice9GetTypeIdEv
   fun:_ZN3ns339XPointToPointNetDeviceRegistrationClassC1Ev
   fun:_Z41__static_initialization_and_destruction_0ii
   fun:_GLOBAL__I_point_to_point_net_device.cc
   obj:/home/tazaki/hgworks/ns-3-dce-thehajime/build/lib/libns3-dev-point-to-point-debug.so
   obj:/home/tazaki/hgworks/ns-3-dce-thehajime/build/lib/libns3-dev-point-to-point-debug.so
   fun:vdl_list_iterate
}
{
   <insert_a_suppression_name_here>
   Memcheck:Leak
   fun:_Znwm
   fun:_ZNSs4_Rep9_S_createEmmRKSaIcE
   obj:/usr/lib/libstdc++.so.6.0.13
   fun:_ZNSsC1ERKSsmm
   fun:_ZNKSs6substrEmm
   fun:_ZN3ns320DceApplicationHelper14ParseArgumentsESs
   fun:_ZL5RunIpN3ns33PtrINS_4NodeEEENS_4TimeESs
   fun:_ZL10AddAddressN3ns33PtrINS_4NodeEEENS_4TimeEPKcS5_
   fun:main
}
{
   <insert_a_suppression_name_here>
   Memcheck:Leak
   fun:_Znwm
   fun:_ZNSs4_Rep9_S_createEmmRKSaIcE
   obj:/usr/lib/libstdc++.so.6.0.13
   fun:_ZNSsC1EPKcRKSaIcE
   fun:_ZNSt4pairISsPN3ns312LogComponentEEC1IPKcS2_EERKS_IT_T0_E
   fun:_ZN3ns312LogComponentC1EPKc
   fun:_Z41__static_initialization_and_destruction_0ii
   fun:_GLOBAL__I_queue.cc
   obj:/home/tazaki/hgworks/ns-3-dce-thehajime/build/lib/libns3-dev-network-debug.so
   obj:/home/tazaki/hgworks/ns-3-dce-thehajime/build/lib/libns3-dev-network-debug.so
   fun:vdl_list_iterate
   fun:vdl_init_call
}
{
   <insert_a_suppression_name_here>
   Memcheck:Leak
   fun:_Znwm
   fun:_ZNSs4_Rep9_S_createEmmRKSaIcE
   obj:/usr/lib/libstdc++.so.6.0.13
   fun:_ZNSsC1EPKcRKSaIcE
   fun:_ZN3ns39UdpSocket9GetTypeIdEv
   fun:_ZN3ns327XUdpSocketRegistrationClassC1Ev
   fun:_Z41__static_initialization_and_destruction_0ii
   fun:_GLOBAL__I_udp_socket.cc
   obj:/home/tazaki/hgworks/ns-3-dce-thehajime/build/lib/libns3-dev-internet-debug.so
   obj:/home/tazaki/hgworks/ns-3-dce-thehajime/build/lib/libns3-dev-internet-debug.so
   fun:vdl_list_iterate
   fun:vdl_init_call
}
{
   <insert_a_suppression_name_here>
   Memcheck:Leak
   fun:_Znwm
   fun:_ZNSs4_Rep9_S_createEmmRKSaIcE
   obj:/usr/lib/libstdc++.so.6.0.13
   fun:_ZNSsC1EPKcRKSaIcE
   fun:_ZNSt4pairISsPN3ns312LogComponentEEC1IPKcS2_EERKS_IT_T0_E
   fun:_ZN3ns312LogComponentC1EPKc
   fun:_Z41__static_initialization_and_destruction_0ii
   fun:_GLOBAL__I_names.cc
   obj:/home/tazaki/hgworks/ns-3-dce-thehajime/build/lib/libns3-dev-core-debug.so
   obj:/home/tazaki/hgworks/ns-3-dce-thehajime/build/lib/libns3-dev-core-debug.so
   fun:vdl_list_iterate
   fun:vdl_init_call
}
{
   <insert_a_suppression_name_here>
   Memcheck:Leak
   fun:_Znwm
   fun:_ZNSs4_Rep9_S_createEmmRKSaIcE
   obj:/usr/lib/libstdc++.so.6.0.13
   fun:_ZNSsC1EPKcRKSaIcE
   fun:_ZN3ns321WeibullRandomVariable9GetTypeIdEv
   fun:_ZN3ns339XWeibullRandomVariableRegistrationClassC1Ev
   fun:_Z41__static_initialization_and_destruction_0ii
   fun:_GLOBAL__I_random_variable_stream.cc
   obj:/home/tazaki/hgworks/ns-3-dce-thehajime/build/lib/libns3-dev-core-debug.so
   obj:/home/tazaki/hgworks/ns-3-dce-thehajime/build/lib/libns3-dev-core-debug.so
   fun:vdl_list_iterate
   fun:vdl_init_call
}
{
   <insert_a_suppression_name_here>
   Memcheck:Leak
   fun:_Znwm
   fun:_ZNSs4_Rep9_S_createEmmRKSaIcE
   obj:/usr/lib/libstdc++.so.6.0.13
   fun:_ZNSsC1EPKcRKSaIcE
   fun:_ZN3ns318ZetaRandomVariable9GetTypeIdEv
   fun:_ZN3ns336XZetaRandomVariableRegistrationClassC1Ev
   fun:_Z41__static_initialization_and_destruction_0ii
   fun:_GLOBAL__I_random_variable_stream.cc
   obj:/home/tazaki/hgworks/ns-3-dce-thehajime/build/lib/libns3-dev-core-debug.so
   obj:/home/tazaki/hgworks/ns-3-dce-thehajime/build/lib/libns3-dev-core-debug.so
   fun:vdl_list_iterate
   fun:vdl_init_call
}
{
   <insert_a_suppression_name_here>
   Memcheck:Leak
   fun:_Znwm
   fun:_ZNSs4_Rep9_S_createEmmRKSaIcE
   obj:/usr/lib/libstdc++.so.6.0.13
   fun:_ZNSsC1EPKcRKSaIcE
   fun:_ZNSt4pairISsPN3ns312LogComponentEEC1IPKcS2_EERKS_IT_T0_E
   fun:_ZN3ns312LogComponentC1EPKc
   fun:_Z41__static_initialization_and_destruction_0ii
   fun:_GLOBAL__I_dce_at.cc
   obj:/home/tazaki/hgworks/ns-3-dce-thehajime/build/lib/libns3-dce.so
   obj:/home/tazaki/hgworks/ns-3-dce-thehajime/build/lib/libns3-dce.so
   fun:vdl_list_iterate
   fun:vdl_init_call
}
{
   <insert_a_suppression_name_here>
   Memcheck:Leak
   fun:_Znwm
   fun:_ZNSs4_Rep9_S_createEmmRKSaIcE
   obj:/usr/lib/libstdc++.so.6.0.13
   fun:_ZNSsC1EPKcRKSaIcE
   fun:_ZNSt4pairISsPN3ns312LogComponentEEC1IPKcS2_EERKS_IT_T0_E
   fun:_ZN3ns312LogComponentC1EPKc
   fun:_Z41__static_initialization_and_destruction_0ii
   fun:_GLOBAL__I_kingsley_alloc.cc
   obj:/home/tazaki/hgworks/ns-3-dce-thehajime/build/lib/libns3-dce.so
   obj:/home/tazaki/hgworks/ns-3-dce-thehajime/build/lib/libns3-dce.so
   fun:vdl_list_iterate
   fun:vdl_init_call
}
{
   <insert_a_suppression_name_here>
   Memcheck:Leak
   fun:_Znwm
   fun:_ZNSs4_Rep9_S_createEmmRKSaIcE
   obj:/usr/lib/libstdc++.so.6.0.13
   fun:_ZNSsC1EPKcRKSaIcE
   fun:_ZN3ns319PointToPointChannel9GetTypeIdEv
   fun:_ZN3ns36TypeId9SetParentINS_19PointToPointChannelEEES0_v
   fun:_ZN3ns325PointToPointRemoteChannel9GetTypeIdEv
   fun:_ZN3ns343XPointToPointRemoteChannelRegistrationClassC1Ev
   fun:_Z41__static_initialization_and_destruction_0ii
   fun:_GLOBAL__I_point_to_point_remote_channel.cc
   obj:/home/tazaki/hgworks/ns-3-dce-thehajime/build/lib/libns3-dev-point-to-point-debug.so
   obj:/home/tazaki/hgworks/ns-3-dce-thehajime/build/lib/libns3-dev-point-to-point-debug.so
}
{
   <insert_a_suppression_name_here>
   Memcheck:Leak
   fun:_Znwm
   fun:_ZNSs4_Rep9_S_createEmmRKSaIcE
   obj:/usr/lib/libstdc++.so.6.0.13
   fun:_ZNSsC1EPKcRKSaIcE
   fun:_Z41__static_initialization_and_destruction_0ii
   fun:_GLOBAL__I_nNodes
   obj:/home/tazaki/hgworks/ns-3-dce-thehajime/build/bin/dce-quagga-bgpd
   obj:/home/tazaki/hgworks/ns-3-dce-thehajime/build/bin/dce-quagga-bgpd
   obj:*
   fun:__libc_csu_init
   fun:(below main)
}
{
   <insert_a_suppression_name_here>
   Memcheck:Leak
   fun:_Znwm
   fun:_ZNSs4_Rep9_S_createEmmRKSaIcE
   fun:_ZNSs9_M_mutateEmmm
   fun:_ZNSs15_M_replace_safeEmmPKcm
   fun:_ZN3ns39NamesPrivC1Ev
   fun:_ZN3ns39NamesPriv3GetEv
   fun:_ZN3ns35Names8FindNameENS_3PtrINS_6ObjectEEE
   fun:_ZN3ns310PcapHelper21GetFilenameFromDeviceESsNS_3PtrINS_9NetDeviceEEEb
   fun:_ZN3ns318PointToPointHelper18EnablePcapInternalESsNS_3PtrINS_9NetDeviceEEEbb
   fun:_ZN3ns319PcapHelperForDevice10EnablePcapESsNS_3PtrINS_9NetDeviceEEEbb
   fun:_ZN3ns319PcapHelperForDevice10EnablePcapESsNS_18NetDeviceContainerEb
   fun:_ZN3ns319PcapHelperForDevice10EnablePcapESsNS_13NodeContainerEb
}
{
   <insert_a_suppression_name_here>
   Memcheck:Leak
   fun:_Znwm
   fun:_ZNSs4_Rep9_S_createEmmRKSaIcE
   obj:/usr/lib/libstdc++.so.6.0.13
   fun:_ZNSsC1EPKcRKSaIcE
   fun:_ZN3ns311TypeNameGetIdEESsv
   fun:_ZN3ns317MakeDoubleCheckerIdEENS_3PtrIKNS_16AttributeCheckerEEEv
   fun:_ZN3ns38RedQueue9GetTypeIdEv
   fun:_ZN3ns326XRedQueueRegistrationClassC1Ev
   fun:_Z41__static_initialization_and_destruction_0ii
   fun:_GLOBAL__I_red_queue.cc
   obj:/home/tazaki/hgworks/ns-3-dce-thehajime/build/lib/libns3-dev-network-debug.so
   obj:/home/tazaki/hgworks/ns-3-dce-thehajime/build/lib/libns3-dev-network-debug.so
}
{
   <insert_a_suppression_name_here>
   Memcheck:Leak
   fun:_Znwm
   fun:_ZNSs4_Rep9_S_createEmmRKSaIcE
   obj:/usr/lib/libstdc++.so.6.0.13
   fun:_ZNSsC1EPKcRKSaIcE
   fun:_ZN3ns314RateErrorModel9GetTypeIdEv
   fun:_ZN3ns332XRateErrorModelRegistrationClassC1Ev
   fun:_Z41__static_initialization_and_destruction_0ii
   fun:_GLOBAL__I_error_model.cc
   obj:/home/tazaki/hgworks/ns-3-dce-thehajime/build/lib/libns3-dev-network-debug.so
   obj:/home/tazaki/hgworks/ns-3-dce-thehajime/build/lib/libns3-dev-network-debug.so
   fun:vdl_list_iterate
   fun:vdl_init_call
}
{
   <insert_a_suppression_name_here>
   Memcheck:Leak
   fun:_Znwm
   fun:_ZNSs4_Rep9_S_createEmmRKSaIcE
   obj:/usr/lib/libstdc++.so.6.0.13
   fun:_ZNSsC1EPKcRKSaIcE
   fun:_ZN3ns311TypeNameGetIdEESsv
   fun:_ZN3ns317MakeDoubleCheckerIdEENS_3PtrIKNS_16AttributeCheckerEEEv
   fun:_ZN3ns314RateErrorModel9GetTypeIdEv
   fun:_ZN3ns332XRateErrorModelRegistrationClassC1Ev
   fun:_Z41__static_initialization_and_destruction_0ii
   fun:_GLOBAL__I_error_model.cc
   obj:/home/tazaki/hgworks/ns-3-dce-thehajime/build/lib/libns3-dev-network-debug.so
   obj:/home/tazaki/hgworks/ns-3-dce-thehajime/build/lib/libns3-dev-network-debug.so
}
{
   <insert_a_suppression_name_here>
   Memcheck:Leak
   fun:_Znwm
   fun:_ZNSs4_Rep9_S_createEmmRKSaIcE
   obj:/usr/lib/libstdc++.so.6.0.13
   fun:_ZNSsC1EPKcRKSaIcE
   fun:_ZNSt4pairISsPN3ns312LogComponentEEC1IPKcS2_EERKS_IT_T0_E
   fun:_ZN3ns312LogComponentC1EPKc
   fun:_Z41__static_initialization_and_destruction_0ii
   fun:_GLOBAL__I_socket.cc
   obj:/home/tazaki/hgworks/ns-3-dce-thehajime/build/lib/libns3-dev-network-debug.so
   obj:/home/tazaki/hgworks/ns-3-dce-thehajime/build/lib/libns3-dev-network-debug.so
   fun:vdl_list_iterate
   fun:vdl_init_call
}
{
   <insert_a_suppression_name_here>
   Memcheck:Leak
   fun:_Znwm
   fun:_ZNSs4_Rep9_S_createEmmRKSaIcE
   obj:/usr/lib/libstdc++.so.6.0.13
   fun:_ZNSsC1EPKcRKSaIcE
   fun:_ZNSt4pairISsPN3ns312LogComponentEEC1IPKcS2_EERKS_IT_T0_E
   fun:_ZN3ns312LogComponentC1EPKc
   fun:_Z41__static_initialization_and_destruction_0ii
   fun:_GLOBAL__I_packet.cc
   obj:/home/tazaki/hgworks/ns-3-dce-thehajime/build/lib/libns3-dev-network-debug.so
   obj:/home/tazaki/hgworks/ns-3-dce-thehajime/build/lib/libns3-dev-network-debug.so
   fun:vdl_list_iterate
   fun:vdl_init_call
}
{
   <insert_a_suppression_name_here>
   Memcheck:Leak
   fun:_Znwm
   fun:_ZNSs4_Rep9_S_createEmmRKSaIcE
   obj:/usr/lib/libstdc++.so.6.0.13
   fun:_ZNSsC1EPKcRKSaIcE
   fun:_ZNSt4pairISsPN3ns312LogComponentEEC1IPKcS2_EERKS_IT_T0_E
   fun:_ZN3ns312LogComponentC1EPKc
   fun:_Z41__static_initialization_and_destruction_0ii
   fun:_GLOBAL__I_buffer.cc
   obj:/home/tazaki/hgworks/ns-3-dce-thehajime/build/lib/libns3-dev-network-debug.so
   obj:/home/tazaki/hgworks/ns-3-dce-thehajime/build/lib/libns3-dev-network-debug.so
   fun:vdl_list_iterate
   fun:vdl_init_call
}
{
   <insert_a_suppression_name_here>
   Memcheck:Leak
   fun:_Znwm
   fun:_ZNSs4_Rep9_S_createEmmRKSaIcE
   obj:/usr/lib/libstdc++.so.6.0.13
   fun:_ZNSsC1EPKcRKSaIcE
   fun:_ZN3ns312RttEstimator9GetTypeIdEv
   fun:_ZN3ns330XRttEstimatorRegistrationClassC1Ev
   fun:_Z41__static_initialization_and_destruction_0ii
   fun:_GLOBAL__I_rtt_estimator.cc
   obj:/home/tazaki/hgworks/ns-3-dce-thehajime/build/lib/libns3-dev-internet-debug.so
   obj:/home/tazaki/hgworks/ns-3-dce-thehajime/build/lib/libns3-dev-internet-debug.so
   fun:vdl_list_iterate
   fun:vdl_init_call
}
{
   <insert_a_suppression_name_here>
   Memcheck:Leak
   fun:_Znwm
   fun:_ZNSs4_Rep9_S_createEmmRKSaIcE
   obj:/usr/lib/libstdc++.so.6.0.13
   fun:_ZNSsC1EPKcRKSaIcE
   fun:_ZN3ns311TypeNameGetIdEESsv
   fun:_ZN3ns317MakeDoubleCheckerIdEENS_3PtrIKNS_16AttributeCheckerEEEv
   fun:_ZN3ns316RttMeanDeviation9GetTypeIdEv
   fun:_ZN3ns334XRttMeanDeviationRegistrationClassC1Ev
   fun:_Z41__static_initialization_and_destruction_0ii
   fun:_GLOBAL__I_rtt_estimator.cc
   obj:/home/tazaki/hgworks/ns-3-dce-thehajime/build/lib/libns3-dev-internet-debug.so
   obj:/home/tazaki/hgworks/ns-3-dce-thehajime/build/lib/libns3-dev-internet-debug.so
}
{
   <insert_a_suppression_name_here>
   Memcheck:Leak
   fun:_Znwm
   fun:_ZNSs4_Rep9_S_createEmmRKSaIcE
   obj:/usr/lib/libstdc++.so.6.0.13
   fun:_ZNSsC1EPKcRKSaIcE
   fun:_ZN3ns317MakeTypeIdCheckerEv
   fun:_ZN3ns313TcpL4Protocol9GetTypeIdEv
   fun:_ZN3ns331XTcpL4ProtocolRegistrationClassC1Ev
   fun:_Z41__static_initialization_and_destruction_0ii
   fun:_GLOBAL__I_tcp_l4_protocol.cc
   obj:/home/tazaki/hgworks/ns-3-dce-thehajime/build/lib/libns3-dev-internet-debug.so
   obj:/home/tazaki/hgworks/ns-3-dce-thehajime/build/lib/libns3-dev-internet-debug.so
   fun:vdl_list_iterate
}
{
   <insert_a_suppression_name_here>
   Memcheck:Leak
   fun:_Znwm
   fun:_ZNSs4_Rep9_S_createEmmRKSaIcE
   obj:/usr/lib/libstdc++.so.6.0.13
   fun:_ZNSsC1EPKcRKSaIcE
   fun:_ZN3ns311TypeNameGetIdEESsv
   fun:_ZN3ns317MakeDoubleCheckerIdEENS_3PtrIKNS_16AttributeCheckerEEEd
   fun:_ZN3ns313TcpSocketBase9GetTypeIdEv
   fun:_ZN3ns36TypeId9SetParentINS_13TcpSocketBaseEEES0_v
   fun:_ZN3ns310TcpNewReno9GetTypeIdEv
   fun:_ZN3ns328XTcpNewRenoRegistrationClassC1Ev
   fun:_Z41__static_initialization_and_destruction_0ii
   fun:_GLOBAL__I_tcp_newreno.cc
}
{
   <insert_a_suppression_name_here>
   Memcheck:Leak
   fun:_Znwm
   fun:_ZNSs4_Rep9_S_createEmmRKSaIcE
   obj:/usr/lib/libstdc++.so.6.0.13
   fun:_ZNSsC1EPKcRKSaIcE
   fun:_ZNSt4pairISsPN3ns312LogComponentEEC1IPKcS2_EERKS_IT_T0_E
   fun:_ZN3ns312LogComponentC1EPKc
   fun:_Z41__static_initialization_and_destruction_0ii
   fun:_GLOBAL__I_config.cc
   obj:/home/tazaki/hgworks/ns-3-dce-thehajime/build/lib/libns3-dev-core-debug.so
   obj:/home/tazaki/hgworks/ns-3-dce-thehajime/build/lib/libns3-dev-core-debug.so
   fun:vdl_list_iterate
   fun:vdl_init_call
}
{
   <insert_a_suppression_name_here>
   Memcheck:Leak
   fun:_Znwm
   fun:_ZNSs4_Rep9_S_createEmmRKSaIcE
   obj:/usr/lib/libstdc++.so.6.0.13
   fun:_ZNSsC1EPKcRKSaIcE
   fun:_Z41__static_initialization_and_destruction_0ii
   fun:_GLOBAL__I_rng_seed_manager.cc
   obj:/home/tazaki/hgworks/ns-3-dce-thehajime/build/lib/libns3-dev-core-debug.so
   obj:/home/tazaki/hgworks/ns-3-dce-thehajime/build/lib/libns3-dev-core-debug.so
   fun:vdl_list_iterate
   fun:vdl_init_call
   fun:dlopen_with_context
   fun:vdl_dlmopen
}
{
   <insert_a_suppression_name_here>
   Memcheck:Leak
   fun:_Znwm
   fun:_ZNSs4_Rep9_S_createEmmRKSaIcE
   obj:/usr/lib/libstdc++.so.6.0.13
   fun:_ZNSsC1EPKcRKSaIcE
   fun:_ZN3ns320RandomVariableStream9GetTypeIdEv
   fun:_ZN3ns338XRandomVariableStreamRegistrationClassC1Ev
   fun:_Z41__static_initialization_and_destruction_0ii
   fun:_GLOBAL__I_random_variable_stream.cc
   obj:/home/tazaki/hgworks/ns-3-dce-thehajime/build/lib/libns3-dev-core-debug.so
   obj:/home/tazaki/hgworks/ns-3-dce-thehajime/build/lib/libns3-dev-core-debug.so
   fun:vdl_list_iterate
   fun:vdl_init_call
}
{
   <insert_a_suppression_name_here>
   Memcheck:Leak
   fun:_Znwm
   fun:_ZNSs4_Rep9_S_createEmmRKSaIcE
   obj:/usr/lib/libstdc++.so.6.0.13
   fun:_ZNSsC1EPKcRKSaIcE
   fun:_ZN3ns311TypeNameGetIdEESsv
   fun:_ZN3ns317MakeDoubleCheckerIdEENS_3PtrIKNS_16AttributeCheckerEEEv
   fun:_ZN3ns321UniformRandomVariable9GetTypeIdEv
   fun:_ZN3ns339XUniformRandomVariableRegistrationClassC1Ev
   fun:_Z41__static_initialization_and_destruction_0ii
   fun:_GLOBAL__I_random_variable_stream.cc
   obj:/home/tazaki/hgworks/ns-3-dce-thehajime/build/lib/libns3-dev-core-debug.so
   obj:/home/tazaki/hgworks/ns-3-dce-thehajime/build/lib/libns3-dev-core-debug.so
}
{
   <insert_a_suppression_name_here>
   Memcheck:Leak
   fun:_Znwm
   fun:_ZNSs4_Rep9_S_createEmmRKSaIcE
   obj:/usr/lib/libstdc++.so.6.0.13
   fun:_ZNSsC1EPKcRKSaIcE
   fun:_ZN3ns311TypeNameGetIdEESsv
   fun:_ZN3ns317MakeDoubleCheckerIdEENS_3PtrIKNS_16AttributeCheckerEEEv
   fun:_ZN3ns322ConstantRandomVariable9GetTypeIdEv
   fun:_ZN3ns340XConstantRandomVariableRegistrationClassC1Ev
   fun:_Z41__static_initialization_and_destruction_0ii
   fun:_GLOBAL__I_random_variable_stream.cc
   obj:/home/tazaki/hgworks/ns-3-dce-thehajime/build/lib/libns3-dev-core-debug.so
   obj:/home/tazaki/hgworks/ns-3-dce-thehajime/build/lib/libns3-dev-core-debug.so
}
{
   <insert_a_suppression_name_here>
   Memcheck:Leak
   fun:_Znwm
   fun:_ZNSs4_Rep9_S_createEmmRKSaIcE
   obj:/usr/lib/libstdc++.so.6.0.13
   fun:_ZNSsC1EPKcRKSaIcE
   fun:_ZN3ns311TypeNameGetIdEESsv
   fun:_ZN3ns317MakeDoubleCheckerIdEENS_3PtrIKNS_16AttributeCheckerEEEv
   fun:_ZN3ns324SequentialRandomVariable9GetTypeIdEv
   fun:_ZN3ns342XSequentialRandomVariableRegistrationClassC1Ev
   fun:_Z41__static_initialization_and_destruction_0ii
   fun:_GLOBAL__I_random_variable_stream.cc
   obj:/home/tazaki/hgworks/ns-3-dce-thehajime/build/lib/libns3-dev-core-debug.so
   obj:/home/tazaki/hgworks/ns-3-dce-thehajime/build/lib/libns3-dev-core-debug.so
}
{
   <insert_a_suppression_name_here>
   Memcheck:Leak
   fun:_Znwm
   fun:_ZNSs4_Rep9_S_createEmmRKSaIcE
   obj:/usr/lib/libstdc++.so.6.0.13
   fun:_ZNSsC1EPKcRKSaIcE
   fun:_ZN3ns311TypeNameGetIdEESsv
   fun:_ZN3ns317MakeDoubleCheckerIdEENS_3PtrIKNS_16AttributeCheckerEEEv
   fun:_ZN3ns325ExponentialRandomVariable9GetTypeIdEv
   fun:_ZN3ns343XExponentialRandomVariableRegistrationClassC1Ev
   fun:_Z41__static_initialization_and_destruction_0ii
   fun:_GLOBAL__I_random_variable_stream.cc
   obj:/home/tazaki/hgworks/ns-3-dce-thehajime/build/lib/libns3-dev-core-debug.so
   obj:/home/tazaki/hgworks/ns-3-dce-thehajime/build/lib/libns3-dev-core-debug.so
}
{
   <insert_a_suppression_name_here>
   Memcheck:Leak
   fun:_Znwm
   fun:_ZNSs4_Rep9_S_createEmmRKSaIcE
   obj:/usr/lib/libstdc++.so.6.0.13
   fun:_ZNSsC1EPKcRKSaIcE
   fun:_ZN3ns311TypeNameGetIdEESsv
   fun:_ZN3ns317MakeDoubleCheckerIdEENS_3PtrIKNS_16AttributeCheckerEEEv
   fun:_ZN3ns320ParetoRandomVariable9GetTypeIdEv
   fun:_ZN3ns338XParetoRandomVariableRegistrationClassC1Ev
   fun:_Z41__static_initialization_and_destruction_0ii
   fun:_GLOBAL__I_random_variable_stream.cc
   obj:/home/tazaki/hgworks/ns-3-dce-thehajime/build/lib/libns3-dev-core-debug.so
   obj:/home/tazaki/hgworks/ns-3-dce-thehajime/build/lib/libns3-dev-core-debug.so
}
{
   <insert_a_suppression_name_here>
   Memcheck:Leak
   fun:_Znwm
   fun:_ZNSs4_Rep9_S_createEmmRKSaIcE
   obj:/usr/lib/libstdc++.so.6.0.13
   fun:_ZNSsC1EPKcRKSaIcE
   fun:_ZN3ns311TypeNameGetIdEESsv
   fun:_ZN3ns317MakeDoubleCheckerIdEENS_3PtrIKNS_16AttributeCheckerEEEv
   fun:_ZN3ns321WeibullRandomVariable9GetTypeIdEv
   fun:_ZN3ns339XWeibullRandomVariableRegistrationClassC1Ev
   fun:_Z41__static_initialization_and_destruction_0ii
   fun:_GLOBAL__I_random_variable_stream.cc
   obj:/home/tazaki/hgworks/ns-3-dce-thehajime/build/lib/libns3-dev-core-debug.so
   obj:/home/tazaki/hgworks/ns-3-dce-thehajime/build/lib/libns3-dev-core-debug.so
}
{
   <insert_a_suppression_name_here>
   Memcheck:Leak
   fun:_Znwm
   fun:_ZNSs4_Rep9_S_createEmmRKSaIcE
   obj:/usr/lib/libstdc++.so.6.0.13
   fun:_ZNSsC1EPKcRKSaIcE
   fun:_ZN3ns311TypeNameGetIdEESsv
   fun:_ZN3ns317MakeDoubleCheckerIdEENS_3PtrIKNS_16AttributeCheckerEEEv
   fun:_ZN3ns320NormalRandomVariable9GetTypeIdEv
   fun:_ZN3ns338XNormalRandomVariableRegistrationClassC1Ev
   fun:_Z41__static_initialization_and_destruction_0ii
   fun:_GLOBAL__I_random_variable_stream.cc
   obj:/home/tazaki/hgworks/ns-3-dce-thehajime/build/lib/libns3-dev-core-debug.so
   obj:/home/tazaki/hgworks/ns-3-dce-thehajime/build/lib/libns3-dev-core-debug.so
}
{
   <insert_a_suppression_name_here>
   Memcheck:Leak
   fun:_Znwm
   fun:_ZNSs4_Rep9_S_createEmmRKSaIcE
   obj:/usr/lib/libstdc++.so.6.0.13
   fun:_ZNSsC1EPKcRKSaIcE
   fun:_ZN3ns311TypeNameGetIdEESsv
   fun:_ZN3ns317MakeDoubleCheckerIdEENS_3PtrIKNS_16AttributeCheckerEEEv
   fun:_ZN3ns323LogNormalRandomVariable9GetTypeIdEv
   fun:_ZN3ns341XLogNormalRandomVariableRegistrationClassC1Ev
   fun:_Z41__static_initialization_and_destruction_0ii
   fun:_GLOBAL__I_random_variable_stream.cc
   obj:/home/tazaki/hgworks/ns-3-dce-thehajime/build/lib/libns3-dev-core-debug.so
   obj:/home/tazaki/hgworks/ns-3-dce-thehajime/build/lib/libns3-dev-core-debug.so
}
{
   <insert_a_suppression_name_here>
   Memcheck:Leak
   fun:_Znwm
   fun:_ZNSs4_Rep9_S_createEmmRKSaIcE
   obj:/usr/lib/libstdc++.so.6.0.13
   fun:_ZNSsC1EPKcRKSaIcE
   fun:_ZN3ns311TypeNameGetIdEESsv
   fun:_ZN3ns317MakeDoubleCheckerIdEENS_3PtrIKNS_16AttributeCheckerEEEv
   fun:_ZN3ns319GammaRandomVariable9GetTypeIdEv
   fun:_ZN3ns337XGammaRandomVariableRegistrationClassC1Ev
   fun:_Z41__static_initialization_and_destruction_0ii
   fun:_GLOBAL__I_random_variable_stream.cc
   obj:/home/tazaki/hgworks/ns-3-dce-thehajime/build/lib/libns3-dev-core-debug.so
   obj:/home/tazaki/hgworks/ns-3-dce-thehajime/build/lib/libns3-dev-core-debug.so
}
{
   <insert_a_suppression_name_here>
   Memcheck:Leak
   fun:_Znwm
   fun:_ZNSs4_Rep9_S_createEmmRKSaIcE
   obj:/usr/lib/libstdc++.so.6.0.13
   fun:_ZNSsC1EPKcRKSaIcE
   fun:_ZN3ns311TypeNameGetIdEESsv
   fun:_ZN3ns317MakeDoubleCheckerIdEENS_3PtrIKNS_16AttributeCheckerEEEv
   fun:_ZN3ns320ErlangRandomVariable9GetTypeIdEv
   fun:_ZN3ns338XErlangRandomVariableRegistrationClassC1Ev
   fun:_Z41__static_initialization_and_destruction_0ii
   fun:_GLOBAL__I_random_variable_stream.cc
   obj:/home/tazaki/hgworks/ns-3-dce-thehajime/build/lib/libns3-dev-core-debug.so
   obj:/home/tazaki/hgworks/ns-3-dce-thehajime/build/lib/libns3-dev-core-debug.so
}
{
   <insert_a_suppression_name_here>
   Memcheck:Leak
   fun:_Znwm
   fun:_ZNSs4_Rep9_S_createEmmRKSaIcE
   obj:/usr/lib/libstdc++.so.6.0.13
   fun:_ZNSsC1EPKcRKSaIcE
   fun:_ZN3ns311TypeNameGetIdEESsv
   fun:_ZN3ns317MakeDoubleCheckerIdEENS_3PtrIKNS_16AttributeCheckerEEEv
   fun:_ZN3ns324TriangularRandomVariable9GetTypeIdEv
   fun:_ZN3ns342XTriangularRandomVariableRegistrationClassC1Ev
   fun:_Z41__static_initialization_and_destruction_0ii
   fun:_GLOBAL__I_random_variable_stream.cc
   obj:/home/tazaki/hgworks/ns-3-dce-thehajime/build/lib/libns3-dev-core-debug.so
   obj:/home/tazaki/hgworks/ns-3-dce-thehajime/build/lib/libns3-dev-core-debug.so
}
{
   <insert_a_suppression_name_here>
   Memcheck:Leak
   fun:_Znwm
   fun:_ZNSs4_Rep9_S_createEmmRKSaIcE
   obj:/usr/lib/libstdc++.so.6.0.13
   fun:_ZNSsC1EPKcRKSaIcE
   fun:_ZN3ns311TypeNameGetIdEESsv
   fun:_ZN3ns317MakeDoubleCheckerIdEENS_3PtrIKNS_16AttributeCheckerEEEv
   fun:_ZN3ns318ZipfRandomVariable9GetTypeIdEv
   fun:_ZN3ns336XZipfRandomVariableRegistrationClassC1Ev
   fun:_Z41__static_initialization_and_destruction_0ii
   fun:_GLOBAL__I_random_variable_stream.cc
   obj:/home/tazaki/hgworks/ns-3-dce-thehajime/build/lib/libns3-dev-core-debug.so
   obj:/home/tazaki/hgworks/ns-3-dce-thehajime/build/lib/libns3-dev-core-debug.so
}
{
   <insert_a_suppression_name_here>
   Memcheck:Leak
   fun:_Znwm
   fun:_ZNSs4_Rep9_S_createEmmRKSaIcE
   obj:/usr/lib/libstdc++.so.6.0.13
   fun:_ZNSsC1EPKcRKSaIcE
   fun:_ZN3ns311TypeNameGetIdEESsv
   fun:_ZN3ns317MakeDoubleCheckerIdEENS_3PtrIKNS_16AttributeCheckerEEEv
   fun:_ZN3ns318ZetaRandomVariable9GetTypeIdEv
   fun:_ZN3ns336XZetaRandomVariableRegistrationClassC1Ev
   fun:_Z41__static_initialization_and_destruction_0ii
   fun:_GLOBAL__I_random_variable_stream.cc
   obj:/home/tazaki/hgworks/ns-3-dce-thehajime/build/lib/libns3-dev-core-debug.so
   obj:/home/tazaki/hgworks/ns-3-dce-thehajime/build/lib/libns3-dev-core-debug.so
}
{
   <insert_a_suppression_name_here>
   Memcheck:Leak
   fun:_Znwm
   fun:_ZNSs4_Rep9_S_createEmmRKSaIcE
   obj:/usr/lib/libstdc++.so.6.0.13
   fun:_ZNSsC1EPKcRKSaIcE
   fun:_ZNSt4pairISsPN3ns312LogComponentEEC1IPKcS2_EERKS_IT_T0_E
   fun:_ZN3ns312LogComponentC1EPKc
   fun:_Z41__static_initialization_and_destruction_0ii
   fun:_GLOBAL__I_object.cc
   obj:/home/tazaki/hgworks/ns-3-dce-thehajime/build/lib/libns3-dev-core-debug.so
   obj:/home/tazaki/hgworks/ns-3-dce-thehajime/build/lib/libns3-dev-core-debug.so
   fun:vdl_list_iterate
   fun:vdl_init_call
}
{
   <insert_a_suppression_name_here>
   Memcheck:Leak
   fun:_Znwm
   fun:_ZNSs4_Rep9_S_createEmmRKSaIcE
   obj:/usr/lib/libstdc++.so.6.0.13
   fun:_ZNSsC1EPKcRKSaIcE
   fun:_ZN3ns317MakeTypeIdCheckerEv
   fun:_Z41__static_initialization_and_destruction_0ii
   fun:_GLOBAL__I_simulator.cc
   obj:/home/tazaki/hgworks/ns-3-dce-thehajime/build/lib/libns3-dev-core-debug.so
   obj:/home/tazaki/hgworks/ns-3-dce-thehajime/build/lib/libns3-dev-core-debug.so
   fun:vdl_list_iterate
   fun:vdl_init_call
   fun:dlopen_with_context
}
{
   <insert_a_suppression_name_here>
   Memcheck:Leak
   fun:_Znwm
   fun:_ZNSs4_Rep9_S_createEmmRKSaIcE
   obj:/usr/lib/libstdc++.so.6.0.13
   fun:_ZNSsC1EPKcRKSaIcE
   fun:_ZN3ns320LinuxSocketFdFactory9GetTypeIdEv
   fun:_ZN3ns338XLinuxSocketFdFactoryRegistrationClassC1Ev
   fun:_Z41__static_initialization_and_destruction_0ii
   fun:_GLOBAL__I_linux_socket_fd_factory.cc
   obj:/home/tazaki/hgworks/ns-3-dce-thehajime/build/lib/libns3-dce.so
   obj:/home/tazaki/hgworks/ns-3-dce-thehajime/build/lib/libns3-dce.so
   fun:vdl_list_iterate
   fun:vdl_init_call
}
{
   <insert_a_suppression_name_here>
   Memcheck:Leak
   fun:_Znwm
   fun:_ZNSs4_Rep9_S_createEmmRKSaIcE
   obj:/usr/lib/libstdc++.so.6.0.13
   fun:_ZNSsC1EPKcRKSaIcE
   fun:_ZN3ns311TypeNameGetIdEESsv
   fun:_ZN3ns317MakeDoubleCheckerIdEENS_3PtrIKNS_16AttributeCheckerEEEv
   fun:_ZN3ns320LinuxSocketFdFactory9GetTypeIdEv
   fun:_ZN3ns338XLinuxSocketFdFactoryRegistrationClassC1Ev
   fun:_Z41__static_initialization_and_destruction_0ii
   fun:_GLOBAL__I_linux_socket_fd_factory.cc
   obj:/home/tazaki/hgworks/ns-3-dce-thehajime/build/lib/libns3-dce.so
   obj:/home/tazaki/hgworks/ns-3-dce-thehajime/build/lib/libns3-dce.so
}
{
   <insert_a_suppression_name_here>
   Memcheck:Leak
   fun:_Znwm
   fun:_ZNSs4_Rep9_S_createEmmRKSaIcE
   obj:/usr/lib/libstdc++.so.6.0.13
   fun:_ZNSsC1EPKcRKSaIcE
   fun:_ZN3ns315LinuxSocketImpl9GetTypeIdEv
   fun:_ZN3ns333XLinuxSocketImplRegistrationClassC1Ev
   fun:_Z41__static_initialization_and_destruction_0ii
   fun:_GLOBAL__I_linux_socket_impl.cc
   obj:/home/tazaki/hgworks/ns-3-dce-thehajime/build/lib/libns3-dce.so
   obj:/home/tazaki/hgworks/ns-3-dce-thehajime/build/lib/libns3-dce.so
   fun:vdl_list_iterate
   fun:vdl_init_call
}
{
   <insert_a_suppression_name_here>
   Memcheck:Leak
   fun:_Znwm
   fun:_ZNSs4_Rep9_S_createEmmRKSaIcE
   obj:/usr/lib/libstdc++.so.6.0.13
   fun:_ZNSsC1EPKcRKSaIcE
   fun:_ZNSt4pairISsPN3ns312LogComponentEEC1IPKcS2_EERKS_IT_T0_E
   fun:_ZN3ns312LogComponentC1EPKc
   fun:_Z41__static_initialization_and_destruction_0ii
   fun:_GLOBAL__I_elf_ldd.cc
   obj:/home/tazaki/hgworks/ns-3-dce-thehajime/build/lib/libns3-dce.so
   obj:/home/tazaki/hgworks/ns-3-dce-thehajime/build/lib/libns3-dce.so
   fun:vdl_list_iterate
   fun:vdl_init_call
}
{
   <insert_a_suppression_name_here>
   Memcheck:Leak
   fun:_Znwm
   fun:_ZNSs4_Rep9_S_createEmmRKSaIcE
   obj:/usr/lib/libstdc++.so.6.0.13
   fun:_ZNSsC1EPKcRKSaIcE
   fun:_ZNSt4pairISsPN3ns312LogComponentEEC1IPKcS2_EERKS_IT_T0_E
   fun:_ZN3ns312LogComponentC1EPKc
   fun:_Z41__static_initialization_and_destruction_0ii
   fun:_GLOBAL__I_dce_vfs.cc
   obj:/home/tazaki/hgworks/ns-3-dce-thehajime/build/lib/libns3-dce.so
   obj:/home/tazaki/hgworks/ns-3-dce-thehajime/build/lib/libns3-dce.so
   fun:vdl_list_iterate
   fun:vdl_init_call
}
{
   <insert_a_suppression_name_here>
   Memcheck:Leak
   fun:_Znwm
   fun:_ZNSs4_Rep9_S_createEmmRKSaIcE
   obj:/usr/lib/libstdc++.so.6.0.13
   fun:_ZNSsC1EPKcRKSaIcE
   fun:_ZNSt4pairISsPN3ns312LogComponentEEC1IPKcS2_EERKS_IT_T0_E
   fun:_ZN3ns312LogComponentC1EPKc
   fun:_Z41__static_initialization_and_destruction_0ii
   fun:_GLOBAL__I_pipe_fd.cc
   obj:/home/tazaki/hgworks/ns-3-dce-thehajime/build/lib/libns3-dce.so
   obj:/home/tazaki/hgworks/ns-3-dce-thehajime/build/lib/libns3-dce.so
   fun:vdl_list_iterate
   fun:vdl_init_call
}
{
   <insert_a_suppression_name_here>
   Memcheck:Leak
   fun:_Znwm
   fun:_ZNSs4_Rep9_S_createEmmRKSaIcE
   obj:/usr/lib/libstdc++.so.6.0.13
   fun:_ZNSsC1EPKcRKSaIcE
   fun:_ZNSt4pairISsPN3ns312LogComponentEEC1IPKcS2_EERKS_IT_T0_E
   fun:_ZN3ns312LogComponentC1EPKc
   fun:_Z41__static_initialization_and_destruction_0ii
   fun:_GLOBAL__I_dce_pwd.cc
   obj:/home/tazaki/hgworks/ns-3-dce-thehajime/build/lib/libns3-dce.so
   obj:/home/tazaki/hgworks/ns-3-dce-thehajime/build/lib/libns3-dce.so
   fun:vdl_list_iterate
   fun:vdl_init_call
}
{
   <insert_a_suppression_name_here>
   Memcheck:Leak
   fun:_Znwm
   fun:_ZNSs4_Rep9_S_createEmmRKSaIcE
   obj:/usr/lib/libstdc++.so.6.0.13
   fun:_ZNSsC1EPKcRKSaIcE
   fun:_ZNSt4pairISsPN3ns312LogComponentEEC1IPKcS2_EERKS_IT_T0_E
   fun:_ZN3ns312LogComponentC1EPKc
   fun:_Z41__static_initialization_and_destruction_0ii
   fun:_GLOBAL__I_waiter.cc
   obj:/home/tazaki/hgworks/ns-3-dce-thehajime/build/lib/libns3-dce.so
   obj:/home/tazaki/hgworks/ns-3-dce-thehajime/build/lib/libns3-dce.so
   fun:vdl_list_iterate
   fun:vdl_init_call
}
{
   <insert_a_suppression_name_here>
   Memcheck:Leak
   fun:_Znwm
   fun:_ZNSs4_Rep9_S_createEmmRKSaIcE
   obj:/usr/lib/libstdc++.so.6.0.13
   fun:_ZNSsC1EPKcRKSaIcE
   fun:_ZNSt4pairISsPN3ns312LogComponentEEC1IPKcS2_EERKS_IT_T0_E
   fun:_ZN3ns312LogComponentC1EPKc
   fun:_Z41__static_initialization_and_destruction_0ii
   fun:_GLOBAL__I_dce_fd.cc
   obj:/home/tazaki/hgworks/ns-3-dce-thehajime/build/lib/libns3-dce.so
   obj:/home/tazaki/hgworks/ns-3-dce-thehajime/build/lib/libns3-dce.so
   fun:vdl_list_iterate
   fun:vdl_init_call
}
{
   <insert_a_suppression_name_here>
   Memcheck:Leak
   fun:_Znwm
   fun:_ZNSs4_Rep9_S_createEmmRKSaIcE
   obj:/usr/lib/libstdc++.so.6.0.13
   fun:_ZNSsC1EPKcRKSaIcE
   fun:_ZNSt4pairISsPN3ns312LogComponentEEC1IPKcS2_EERKS_IT_T0_E
   fun:_ZN3ns312LogComponentC1EPKc
   fun:_Z41__static_initialization_and_destruction_0ii
   fun:_GLOBAL__I_unix_fd.cc
   obj:/home/tazaki/hgworks/ns-3-dce-thehajime/build/lib/libns3-dce.so
   obj:/home/tazaki/hgworks/ns-3-dce-thehajime/build/lib/libns3-dce.so
   fun:vdl_list_iterate
   fun:vdl_init_call
}
{
   <insert_a_suppression_name_here>
   Memcheck:Leak
   fun:_Znwm
   fun:_ZN9__gnu_cxx13new_allocatorISt10_List_nodeISt4pairISsPN3ns312LogComponentEEEE8allocateEmPKv
   fun:_ZNSt10_List_baseISt4pairISsPN3ns312LogComponentEESaIS4_EE11_M_get_nodeEv
   fun:_ZNSt4listISt4pairISsPN3ns312LogComponentEESaIS4_EE14_M_create_nodeERKS4_
   fun:_ZNSt4listISt4pairISsPN3ns312LogComponentEESaIS4_EE9_M_insertESt14_List_iteratorIS4_ERKS4_
   fun:_ZNSt4listISt4pairISsPN3ns312LogComponentEESaIS4_EE9push_backERKS4_
   fun:_ZN3ns312LogComponentC1EPKc
   fun:_Z41__static_initialization_and_destruction_0ii
   fun:_GLOBAL__I_simple_net_device.cc
   obj:/home/tazaki/hgworks/ns-3-dce-thehajime/build/lib/libns3-dev-network-debug.so
   obj:/home/tazaki/hgworks/ns-3-dce-thehajime/build/lib/libns3-dev-network-debug.so
   fun:vdl_list_iterate
}
{
   <insert_a_suppression_name_here>
   Memcheck:Leak
   fun:_Znwm
   fun:_ZN9__gnu_cxx13new_allocatorISt10_List_nodeISt4pairISsPN3ns312LogComponentEEEE8allocateEmPKv
   fun:_ZNSt10_List_baseISt4pairISsPN3ns312LogComponentEESaIS4_EE11_M_get_nodeEv
   fun:_ZNSt4listISt4pairISsPN3ns312LogComponentEESaIS4_EE14_M_create_nodeERKS4_
   fun:_ZNSt4listISt4pairISsPN3ns312LogComponentEESaIS4_EE9_M_insertESt14_List_iteratorIS4_ERKS4_
   fun:_ZNSt4listISt4pairISsPN3ns312LogComponentEESaIS4_EE9push_backERKS4_
   fun:_ZN3ns312LogComponentC1EPKc
   fun:_Z41__static_initialization_and_destruction_0ii
   fun:_GLOBAL__I_trace_helper.cc
   obj:/home/tazaki/hgworks/ns-3-dce-thehajime/build/lib/libns3-dev-network-debug.so
   obj:/home/tazaki/hgworks/ns-3-dce-thehajime/build/lib/libns3-dev-network-debug.so
   fun:vdl_list_iterate
}
{
   <insert_a_suppression_name_here>
   Memcheck:Leak
   fun:_Znwm
   fun:_ZN3ns326MakeSimpleAttributeCheckerINS_9TimeValueENS_11TimeCheckerEEENS_3PtrINS_16AttributeCheckerEEESsSs
   fun:_ZN3ns315MakeTimeCheckerEv
   fun:_ZN3ns38RedQueue9GetTypeIdEv
   fun:_ZN3ns326XRedQueueRegistrationClassC1Ev
   fun:_Z41__static_initialization_and_destruction_0ii
   fun:_GLOBAL__I_red_queue.cc
   obj:/home/tazaki/hgworks/ns-3-dce-thehajime/build/lib/libns3-dev-network-debug.so
   obj:/home/tazaki/hgworks/ns-3-dce-thehajime/build/lib/libns3-dev-network-debug.so
   fun:vdl_list_iterate
   fun:vdl_init_call
   fun:dlopen_with_context
}
{
   <insert_a_suppression_name_here>
   Memcheck:Leak
   fun:_Znwm
   fun:_ZN3ns326MakeSimpleAttributeCheckerINS_13DataRateValueENS_15DataRateCheckerEEENS_3PtrINS_16AttributeCheckerEEESsSs
   fun:_ZN3ns319MakeDataRateCheckerEv
   fun:_ZN3ns38RedQueue9GetTypeIdEv
   fun:_ZN3ns326XRedQueueRegistrationClassC1Ev
   fun:_Z41__static_initialization_and_destruction_0ii
   fun:_GLOBAL__I_red_queue.cc
   obj:/home/tazaki/hgworks/ns-3-dce-thehajime/build/lib/libns3-dev-network-debug.so
   obj:/home/tazaki/hgworks/ns-3-dce-thehajime/build/lib/libns3-dev-network-debug.so
   fun:vdl_list_iterate
   fun:vdl_init_call
   fun:dlopen_with_context
}
{
   <insert_a_suppression_name_here>
   Memcheck:Leak
   fun:_Znwm
   fun:_ZN9__gnu_cxx13new_allocatorISt10_List_nodeISt4pairISsPN3ns312LogComponentEEEE8allocateEmPKv
   fun:_ZNSt10_List_baseISt4pairISsPN3ns312LogComponentEESaIS4_EE11_M_get_nodeEv
   fun:_ZNSt4listISt4pairISsPN3ns312LogComponentEESaIS4_EE14_M_create_nodeERKS4_
   fun:_ZNSt4listISt4pairISsPN3ns312LogComponentEESaIS4_EE9_M_insertESt14_List_iteratorIS4_ERKS4_
   fun:_ZNSt4listISt4pairISsPN3ns312LogComponentEESaIS4_EE9push_backERKS4_
   fun:_ZN3ns312LogComponentC1EPKc
   fun:_Z41__static_initialization_and_destruction_0ii
   fun:_GLOBAL__I_simple_channel.cc
   obj:/home/tazaki/hgworks/ns-3-dce-thehajime/build/lib/libns3-dev-network-debug.so
   obj:/home/tazaki/hgworks/ns-3-dce-thehajime/build/lib/libns3-dev-network-debug.so
   fun:vdl_list_iterate
}
{
   <insert_a_suppression_name_here>
   Memcheck:Leak
   fun:_Znwm
   fun:_ZN9__gnu_cxx13new_allocatorISt10_List_nodeISt4pairISsPN3ns312LogComponentEEEE8allocateEmPKv
   fun:_ZNSt10_List_baseISt4pairISsPN3ns312LogComponentEESaIS4_EE11_M_get_nodeEv
   fun:_ZNSt4listISt4pairISsPN3ns312LogComponentEESaIS4_EE14_M_create_nodeERKS4_
   fun:_ZNSt4listISt4pairISsPN3ns312LogComponentEESaIS4_EE9_M_insertESt14_List_iteratorIS4_ERKS4_
   fun:_ZNSt4listISt4pairISsPN3ns312LogComponentEESaIS4_EE9push_backERKS4_
   fun:_ZN3ns312LogComponentC1EPKc
   fun:_Z41__static_initialization_and_destruction_0ii
   fun:_GLOBAL__I_red_queue.cc
   obj:/home/tazaki/hgworks/ns-3-dce-thehajime/build/lib/libns3-dev-network-debug.so
   obj:/home/tazaki/hgworks/ns-3-dce-thehajime/build/lib/libns3-dev-network-debug.so
   fun:vdl_list_iterate
}
{
   <insert_a_suppression_name_here>
   Memcheck:Leak
   fun:_Znwm
   fun:_ZN9__gnu_cxx13new_allocatorISt10_List_nodeISt4pairISsPN3ns312LogComponentEEEE8allocateEmPKv
   fun:_ZNSt10_List_baseISt4pairISsPN3ns312LogComponentEESaIS4_EE11_M_get_nodeEv
   fun:_ZNSt4listISt4pairISsPN3ns312LogComponentEESaIS4_EE14_M_create_nodeERKS4_
   fun:_ZNSt4listISt4pairISsPN3ns312LogComponentEESaIS4_EE9_M_insertESt14_List_iteratorIS4_ERKS4_
   fun:_ZNSt4listISt4pairISsPN3ns312LogComponentEESaIS4_EE9push_backERKS4_
   fun:_ZN3ns312LogComponentC1EPKc
   fun:_Z41__static_initialization_and_destruction_0ii
   fun:_GLOBAL__I_net_device.cc
   obj:/home/tazaki/hgworks/ns-3-dce-thehajime/build/lib/libns3-dev-network-debug.so
   obj:/home/tazaki/hgworks/ns-3-dce-thehajime/build/lib/libns3-dev-network-debug.so
   fun:vdl_list_iterate
}
{
   <insert_a_suppression_name_here>
   Memcheck:Leak
   fun:_Znwm
   fun:_ZN9__gnu_cxx13new_allocatorISt10_List_nodeISt4pairISsPN3ns312LogComponentEEEE8allocateEmPKv
   fun:_ZNSt10_List_baseISt4pairISsPN3ns312LogComponentEESaIS4_EE11_M_get_nodeEv
   fun:_ZNSt4listISt4pairISsPN3ns312LogComponentEESaIS4_EE14_M_create_nodeERKS4_
   fun:_ZNSt4listISt4pairISsPN3ns312LogComponentEESaIS4_EE9_M_insertESt14_List_iteratorIS4_ERKS4_
   fun:_ZNSt4listISt4pairISsPN3ns312LogComponentEESaIS4_EE9push_backERKS4_
   fun:_ZN3ns312LogComponentC1EPKc
   fun:_Z41__static_initialization_and_destruction_0ii
   fun:_GLOBAL__I_node_list.cc
   obj:/home/tazaki/hgworks/ns-3-dce-thehajime/build/lib/libns3-dev-network-debug.so
   obj:/home/tazaki/hgworks/ns-3-dce-thehajime/build/lib/libns3-dev-network-debug.so
   fun:vdl_list_iterate
}
{
   <insert_a_suppression_name_here>
   Memcheck:Leak
   fun:_Znwm
   fun:_ZN9__gnu_cxx13new_allocatorISt10_List_nodeISt4pairISsPN3ns312LogComponentEEEE8allocateEmPKv
   fun:_ZNSt10_List_baseISt4pairISsPN3ns312LogComponentEESaIS4_EE11_M_get_nodeEv
   fun:_ZNSt4listISt4pairISsPN3ns312LogComponentEESaIS4_EE14_M_create_nodeERKS4_
   fun:_ZNSt4listISt4pairISsPN3ns312LogComponentEESaIS4_EE9_M_insertESt14_List_iteratorIS4_ERKS4_
   fun:_ZNSt4listISt4pairISsPN3ns312LogComponentEESaIS4_EE9push_backERKS4_
   fun:_ZN3ns312LogComponentC1EPKc
   fun:_Z41__static_initialization_and_destruction_0ii
   fun:_GLOBAL__I_node.cc
   obj:/home/tazaki/hgworks/ns-3-dce-thehajime/build/lib/libns3-dev-network-debug.so
   obj:/home/tazaki/hgworks/ns-3-dce-thehajime/build/lib/libns3-dev-network-debug.so
   fun:vdl_list_iterate
}
{
   <insert_a_suppression_name_here>
   Memcheck:Leak
   fun:_Znwm
   fun:_ZN3ns326MakeSimpleAttributeCheckerINS_12BooleanValueENS_14BooleanCheckerEEENS_3PtrINS_16AttributeCheckerEEESsSs
   fun:_ZN3ns318MakeBooleanCheckerEv
   fun:_Z41__static_initialization_and_destruction_0ii
   fun:_GLOBAL__I_node.cc
   obj:/home/tazaki/hgworks/ns-3-dce-thehajime/build/lib/libns3-dev-network-debug.so
   obj:/home/tazaki/hgworks/ns-3-dce-thehajime/build/lib/libns3-dev-network-debug.so
   fun:vdl_list_iterate
   fun:vdl_init_call
   fun:dlopen_with_context
   fun:vdl_dlmopen
   fun:vdl_dlmopen_public
}
{
   <insert_a_suppression_name_here>
   Memcheck:Leak
   fun:_Znwm
   fun:_ZN9__gnu_cxx13new_allocatorISt10_List_nodeISt4pairISsPN3ns312LogComponentEEEE8allocateEmPKv
   fun:_ZNSt10_List_baseISt4pairISsPN3ns312LogComponentEESaIS4_EE11_M_get_nodeEv
   fun:_ZNSt4listISt4pairISsPN3ns312LogComponentEESaIS4_EE14_M_create_nodeERKS4_
   fun:_ZNSt4listISt4pairISsPN3ns312LogComponentEESaIS4_EE9_M_insertESt14_List_iteratorIS4_ERKS4_
   fun:_ZNSt4listISt4pairISsPN3ns312LogComponentEESaIS4_EE9push_backERKS4_
   fun:_ZN3ns312LogComponentC1EPKc
   fun:_Z41__static_initialization_and_destruction_0ii
   fun:_GLOBAL__I_nix_vector.cc
   obj:/home/tazaki/hgworks/ns-3-dce-thehajime/build/lib/libns3-dev-network-debug.so
   obj:/home/tazaki/hgworks/ns-3-dce-thehajime/build/lib/libns3-dev-network-debug.so
   fun:vdl_list_iterate
}
{
   <insert_a_suppression_name_here>
   Memcheck:Leak
   fun:_Znwm
   fun:_ZN9__gnu_cxx13new_allocatorISt10_List_nodeISt4pairISsPN3ns312LogComponentEEEE8allocateEmPKv
   fun:_ZNSt10_List_baseISt4pairISsPN3ns312LogComponentEESaIS4_EE11_M_get_nodeEv
   fun:_ZNSt4listISt4pairISsPN3ns312LogComponentEESaIS4_EE14_M_create_nodeERKS4_
   fun:_ZNSt4listISt4pairISsPN3ns312LogComponentEESaIS4_EE9_M_insertESt14_List_iteratorIS4_ERKS4_
   fun:_ZNSt4listISt4pairISsPN3ns312LogComponentEESaIS4_EE9push_backERKS4_
   fun:_ZN3ns312LogComponentC1EPKc
   fun:_Z41__static_initialization_and_destruction_0ii
   fun:_GLOBAL__I_channel_list.cc
   obj:/home/tazaki/hgworks/ns-3-dce-thehajime/build/lib/libns3-dev-network-debug.so
   obj:/home/tazaki/hgworks/ns-3-dce-thehajime/build/lib/libns3-dev-network-debug.so
   fun:vdl_list_iterate
}
{
   <insert_a_suppression_name_here>
   Memcheck:Leak
   fun:_Znwm
   fun:_ZN3ns326MakeSimpleAttributeCheckerINS_12BooleanValueENS_14BooleanCheckerEEENS_3PtrINS_16AttributeCheckerEEESsSs
   fun:_ZN3ns318MakeBooleanCheckerEv
   fun:_ZN3ns38RedQueue9GetTypeIdEv
   fun:_ZN3ns326XRedQueueRegistrationClassC1Ev
   fun:_Z41__static_initialization_and_destruction_0ii
   fun:_GLOBAL__I_red_queue.cc
   obj:/home/tazaki/hgworks/ns-3-dce-thehajime/build/lib/libns3-dev-network-debug.so
   obj:/home/tazaki/hgworks/ns-3-dce-thehajime/build/lib/libns3-dev-network-debug.so
   fun:vdl_list_iterate
   fun:vdl_init_call
   fun:dlopen_with_context
}
{
   <insert_a_suppression_name_here>
   Memcheck:Leak
   fun:_Znwm
   fun:_ZN3ns36CreateINS_11EnumCheckerEEENS_3PtrIT_EEv
   fun:_ZN3ns315MakeEnumCheckerEiSsiSsiSsiSsiSsiSsiSsiSsiSsiSsiSsiSsiSsiSsiSsiSsiSsiSsiSsiSsiSsiSs
   fun:_ZN3ns38RedQueue9GetTypeIdEv
   fun:_ZN3ns326XRedQueueRegistrationClassC1Ev
   fun:_Z41__static_initialization_and_destruction_0ii
   fun:_GLOBAL__I_red_queue.cc
   obj:/home/tazaki/hgworks/ns-3-dce-thehajime/build/lib/libns3-dev-network-debug.so
   obj:/home/tazaki/hgworks/ns-3-dce-thehajime/build/lib/libns3-dev-network-debug.so
   fun:vdl_list_iterate
   fun:vdl_init_call
   fun:dlopen_with_context
}
{
   <insert_a_suppression_name_here>
   Memcheck:Leak
   fun:_Znwm
   fun:_ZN9__gnu_cxx13new_allocatorISt10_List_nodeISt4pairIiSsEEE8allocateEmPKv
   fun:_ZNSt10_List_baseISt4pairIiSsESaIS1_EE11_M_get_nodeEv
   fun:_ZNSt4listISt4pairIiSsESaIS1_EE14_M_create_nodeERKS1_
   fun:_ZNSt4listISt4pairIiSsESaIS1_EE9_M_insertESt14_List_iteratorIS1_ERKS1_
   fun:_ZNSt4listISt4pairIiSsESaIS1_EE10push_frontERKS1_
   fun:_ZN3ns311EnumChecker10AddDefaultEiSs
   fun:_ZN3ns315MakeEnumCheckerEiSsiSsiSsiSsiSsiSsiSsiSsiSsiSsiSsiSsiSsiSsiSsiSsiSsiSsiSsiSsiSsiSs
   fun:_ZN3ns38RedQueue9GetTypeIdEv
   fun:_ZN3ns326XRedQueueRegistrationClassC1Ev
   fun:_Z41__static_initialization_and_destruction_0ii
   fun:_GLOBAL__I_red_queue.cc
}
{
   <insert_a_suppression_name_here>
   Memcheck:Leak
   fun:_Znwm
   fun:_ZN9__gnu_cxx13new_allocatorISt10_List_nodeISt4pairIiSsEEE8allocateEmPKv
   fun:_ZNSt10_List_baseISt4pairIiSsESaIS1_EE11_M_get_nodeEv
   fun:_ZNSt4listISt4pairIiSsESaIS1_EE14_M_create_nodeERKS1_
   fun:_ZNSt4listISt4pairIiSsESaIS1_EE9_M_insertESt14_List_iteratorIS1_ERKS1_
   fun:_ZNSt4listISt4pairIiSsESaIS1_EE9push_backERKS1_
   fun:_ZN3ns311EnumChecker3AddEiSs
   fun:_ZN3ns315MakeEnumCheckerEiSsiSsiSsiSsiSsiSsiSsiSsiSsiSsiSsiSsiSsiSsiSsiSsiSsiSsiSsiSsiSsiSs
   fun:_ZN3ns38RedQueue9GetTypeIdEv
   fun:_ZN3ns326XRedQueueRegistrationClassC1Ev
   fun:_Z41__static_initialization_and_destruction_0ii
   fun:_GLOBAL__I_red_queue.cc
}
{
   <insert_a_suppression_name_here>
   Memcheck:Leak
   fun:_Znwm
   fun:_ZN3ns323DoMakeAccessorHelperOneINS_9EnumValueENS_8RedQueueENS_5Queue9QueueModeEEENS_3PtrIKNS_17AttributeAccessorEEEMT0_FvT1_E
   fun:_ZN3ns318MakeAccessorHelperINS_9EnumValueEMNS_8RedQueueEFvNS_5Queue9QueueModeEEEENS_3PtrIKNS_17AttributeAccessorEEET0_
   fun:_ZN3ns316MakeEnumAccessorIMNS_8RedQueueEFvNS_5Queue9QueueModeEEEENS_3PtrIKNS_17AttributeAccessorEEET_
   fun:_ZN3ns38RedQueue9GetTypeIdEv
   fun:_ZN3ns326XRedQueueRegistrationClassC1Ev
   fun:_Z41__static_initialization_and_destruction_0ii
   fun:_GLOBAL__I_red_queue.cc
   obj:/home/tazaki/hgworks/ns-3-dce-thehajime/build/lib/libns3-dev-network-debug.so
   obj:/home/tazaki/hgworks/ns-3-dce-thehajime/build/lib/libns3-dev-network-debug.so
   fun:vdl_list_iterate
   fun:vdl_init_call
}
{
   <insert_a_suppression_name_here>
   Memcheck:Leak
   fun:_Znwm
   fun:_ZN9__gnu_cxx13new_allocatorISt10_List_nodeISt4pairISsPN3ns312LogComponentEEEE8allocateEmPKv
   fun:_ZNSt10_List_baseISt4pairISsPN3ns312LogComponentEESaIS4_EE11_M_get_nodeEv
   fun:_ZNSt4listISt4pairISsPN3ns312LogComponentEESaIS4_EE14_M_create_nodeERKS4_
   fun:_ZNSt4listISt4pairISsPN3ns312LogComponentEESaIS4_EE9_M_insertESt14_List_iteratorIS4_ERKS4_
   fun:_ZNSt4listISt4pairISsPN3ns312LogComponentEESaIS4_EE9push_backERKS4_
   fun:_ZN3ns312LogComponentC1EPKc
   fun:_Z41__static_initialization_and_destruction_0ii
   fun:_GLOBAL__I_radiotap_header.cc
   obj:/home/tazaki/hgworks/ns-3-dce-thehajime/build/lib/libns3-dev-network-debug.so
   obj:/home/tazaki/hgworks/ns-3-dce-thehajime/build/lib/libns3-dev-network-debug.so
   fun:vdl_list_iterate
}
{
   <insert_a_suppression_name_here>
   Memcheck:Leak
   fun:_Znwm
   fun:_ZN9__gnu_cxx13new_allocatorISt10_List_nodeISt4pairISsPN3ns312LogComponentEEEE8allocateEmPKv
   fun:_ZNSt10_List_baseISt4pairISsPN3ns312LogComponentEESaIS4_EE11_M_get_nodeEv
   fun:_ZNSt4listISt4pairISsPN3ns312LogComponentEESaIS4_EE14_M_create_nodeERKS4_
   fun:_ZNSt4listISt4pairISsPN3ns312LogComponentEESaIS4_EE9_M_insertESt14_List_iteratorIS4_ERKS4_
   fun:_ZNSt4listISt4pairISsPN3ns312LogComponentEESaIS4_EE9push_backERKS4_
   fun:_ZN3ns312LogComponentC1EPKc
   fun:_Z41__static_initialization_and_destruction_0ii
   fun:_GLOBAL__I_queue.cc
   obj:/home/tazaki/hgworks/ns-3-dce-thehajime/build/lib/libns3-dev-network-debug.so
   obj:/home/tazaki/hgworks/ns-3-dce-thehajime/build/lib/libns3-dev-network-debug.so
   fun:vdl_list_iterate
}
{
   <insert_a_suppression_name_here>
   Memcheck:Leak
   fun:_Znwm
   fun:_ZN9__gnu_cxx13new_allocatorISt10_List_nodeISt4pairISsPN3ns312LogComponentEEEE8allocateEmPKv
   fun:_ZNSt10_List_baseISt4pairISsPN3ns312LogComponentEESaIS4_EE11_M_get_nodeEv
   fun:_ZNSt4listISt4pairISsPN3ns312LogComponentEESaIS4_EE14_M_create_nodeERKS4_
   fun:_ZNSt4listISt4pairISsPN3ns312LogComponentEESaIS4_EE9_M_insertESt14_List_iteratorIS4_ERKS4_
   fun:_ZNSt4listISt4pairISsPN3ns312LogComponentEESaIS4_EE9push_backERKS4_
   fun:_ZN3ns312LogComponentC1EPKc
   fun:_Z41__static_initialization_and_destruction_0ii
   fun:_GLOBAL__I_pcap_file_wrapper.cc
   obj:/home/tazaki/hgworks/ns-3-dce-thehajime/build/lib/libns3-dev-network-debug.so
   obj:/home/tazaki/hgworks/ns-3-dce-thehajime/build/lib/libns3-dev-network-debug.so
   fun:vdl_list_iterate
}
{
   <insert_a_suppression_name_here>
   Memcheck:Leak
   fun:_Znwm
   fun:_ZN9__gnu_cxx13new_allocatorISt10_List_nodeISt4pairISsPN3ns312LogComponentEEEE8allocateEmPKv
   fun:_ZNSt10_List_baseISt4pairISsPN3ns312LogComponentEESaIS4_EE11_M_get_nodeEv
   fun:_ZNSt4listISt4pairISsPN3ns312LogComponentEESaIS4_EE14_M_create_nodeERKS4_
   fun:_ZNSt4listISt4pairISsPN3ns312LogComponentEESaIS4_EE9_M_insertESt14_List_iteratorIS4_ERKS4_
   fun:_ZNSt4listISt4pairISsPN3ns312LogComponentEESaIS4_EE9push_backERKS4_
   fun:_ZN3ns312LogComponentC1EPKc
   fun:_Z41__static_initialization_and_destruction_0ii
   fun:_GLOBAL__I_packet_socket.cc
   obj:/home/tazaki/hgworks/ns-3-dce-thehajime/build/lib/libns3-dev-network-debug.so
   obj:/home/tazaki/hgworks/ns-3-dce-thehajime/build/lib/libns3-dev-network-debug.so
   fun:vdl_list_iterate
}
{
   <insert_a_suppression_name_here>
   Memcheck:Leak
   fun:_Znwm
   fun:_ZN9__gnu_cxx13new_allocatorISt10_List_nodeISt4pairISsPN3ns312LogComponentEEEE8allocateEmPKv
   fun:_ZNSt10_List_baseISt4pairISsPN3ns312LogComponentEESaIS4_EE11_M_get_nodeEv
   fun:_ZNSt4listISt4pairISsPN3ns312LogComponentEESaIS4_EE14_M_create_nodeERKS4_
   fun:_ZNSt4listISt4pairISsPN3ns312LogComponentEESaIS4_EE9_M_insertESt14_List_iteratorIS4_ERKS4_
   fun:_ZNSt4listISt4pairISsPN3ns312LogComponentEESaIS4_EE9push_backERKS4_
   fun:_ZN3ns312LogComponentC1EPKc
   fun:_Z41__static_initialization_and_destruction_0ii
   fun:_GLOBAL__I_packet_burst.cc
   obj:/home/tazaki/hgworks/ns-3-dce-thehajime/build/lib/libns3-dev-network-debug.so
   obj:/home/tazaki/hgworks/ns-3-dce-thehajime/build/lib/libns3-dev-network-debug.so
   fun:vdl_list_iterate
}
{
   <insert_a_suppression_name_here>
   Memcheck:Leak
